Archive member included to satisfy reference by file (symbol)

../../../libc/x86/libc.a(_systemcall.oo)
                              main.o (_system_call)
../../../libc/x86/libc.a(stdio.o)
                              main.o (fopen)
../../../libc/x86/libc.a(stdlib.o)
                              ../../../libc/x86/libc.a(stdio.o) (malloc)
../../../libc/x86/libc.a(string.o)
                              ../../../libc/x86/libc.a(stdio.o) (memmove)
../../../libc/x86/libc.a(fcntl.o)
                              ../../../libc/x86/libc.a(stdio.o) (open)
../../../libc/x86/libc.a(unistd.o)
                              ../../../libc/x86/libc.a(stdio.o) (close)
/cygdrive/c/Users/Alex/Toolchain/Output/bin/../lib/gcc/i386-banana/8.1.0/libgcc.a(_udivmoddi4.o)
                              ../../../libc/x86/libc.a(stdio.o) (__udivmoddi4)

Allocating common symbols
Common symbol       size              file

stdout              0x4               ../../../libc/x86/libc.a(stdio.o)
errno               0x4               main.o
stdin               0x4               ../../../libc/x86/libc.a(stdio.o)
stderr              0x4               ../../../libc/x86/libc.a(stdio.o)

Discarded input sections

 .comment       0x0000000000000000       0x12 main.o
 .comment       0x0000000000000000       0x12 ../../../libc/x86/libc.a(stdio.o)
 .comment       0x0000000000000000       0x12 ../../../libc/x86/libc.a(stdlib.o)
 .comment       0x0000000000000000       0x12 ../../../libc/x86/libc.a(string.o)
 .comment       0x0000000000000000       0x12 ../../../libc/x86/libc.a(fcntl.o)
 .comment       0x0000000000000000       0x12 ../../../libc/x86/libc.a(unistd.o)
 .debug_info    0x0000000000000000      0xc6a /cygdrive/c/Users/Alex/Toolchain/Output/bin/../lib/gcc/i386-banana/8.1.0/libgcc.a(_udivmoddi4.o)
 .debug_abbrev  0x0000000000000000      0x1e7 /cygdrive/c/Users/Alex/Toolchain/Output/bin/../lib/gcc/i386-banana/8.1.0/libgcc.a(_udivmoddi4.o)
 .debug_loc     0x0000000000000000      0x609 /cygdrive/c/Users/Alex/Toolchain/Output/bin/../lib/gcc/i386-banana/8.1.0/libgcc.a(_udivmoddi4.o)
 .debug_aranges
                0x0000000000000000       0x20 /cygdrive/c/Users/Alex/Toolchain/Output/bin/../lib/gcc/i386-banana/8.1.0/libgcc.a(_udivmoddi4.o)
 .debug_ranges  0x0000000000000000       0x20 /cygdrive/c/Users/Alex/Toolchain/Output/bin/../lib/gcc/i386-banana/8.1.0/libgcc.a(_udivmoddi4.o)
 .debug_line    0x0000000000000000      0x335 /cygdrive/c/Users/Alex/Toolchain/Output/bin/../lib/gcc/i386-banana/8.1.0/libgcc.a(_udivmoddi4.o)
 .debug_str     0x0000000000000000      0xc1f /cygdrive/c/Users/Alex/Toolchain/Output/bin/../lib/gcc/i386-banana/8.1.0/libgcc.a(_udivmoddi4.o)
 .comment       0x0000000000000000       0x12 /cygdrive/c/Users/Alex/Toolchain/Output/bin/../lib/gcc/i386-banana/8.1.0/libgcc.a(_udivmoddi4.o)

Memory Configuration

Name             Origin             Length             Attributes
*default*        0x0000000000000000 0xffffffffffffffff

Linker script and memory map

LOAD main.o
LOAD ../../../libc/x86/libc.a
LOAD /cygdrive/c/Users/Alex/Toolchain/Output/bin/../lib/gcc/i386-banana/8.1.0/libgcc.a
                0x0000000010000000                . = 0x10000000

.text           0x0000000010000000     0x188c
 *(.text)
 .text          0x0000000010000000      0x384 main.o
                0x0000000010000000                _start
 *fill*         0x0000000010000384        0xc 
 .text          0x0000000010000390       0x1e ../../../libc/x86/libc.a(_systemcall.oo)
                0x0000000010000390                _system_call
 .text          0x00000000100003ae      0xea8 ../../../libc/x86/libc.a(stdio.o)
                0x00000000100004b1                fopen
                0x00000000100004e8                ftrylockfile
                0x0000000010000513                funlockfile
                0x0000000010000522                flockfile
                0x000000001000053c                feof
                0x000000001000055c                ferror
                0x000000001000057c                clearerr
                0x00000000100005a1                setvbuf
                0x0000000010000630                fflush
                0x00000000100006cc                fclose
                0x0000000010000728                freopen
                0x0000000010000759                ungetc
                0x000000001000079e                fputc
                0x00000000100008be                fgetc
                0x0000000010000959                getc
                0x000000001000095e                getchar
                0x0000000010000971                fputs
                0x00000000100009ba                fileno
                0x00000000100009d8                vfprintf
                0x0000000010001206                vsnprintf
                0x0000000010001209                vsprintf
                0x000000001000120c                vprintf
                0x0000000010001225                fprintf
                0x000000001000123c                printf
                0x0000000010001250                sprintf
                0x0000000010001253                snprintf
 .text          0x0000000010001256      0x125 ../../../libc/x86/libc.a(stdlib.o)
                0x0000000010001256                rand
                0x0000000010001294                srand
                0x00000000100012ab                malloc
                0x000000001000132b                free
                0x000000001000132c                calloc
 .text          0x000000001000137b      0x1d2 ../../../libc/x86/libc.a(string.o)
                0x000000001000137b                memchr
                0x0000000010001398                memcmp
                0x00000000100013cc                memcpy
                0x00000000100013e2                memmove
                0x0000000010001411                memset
                0x0000000010001426                strcat
                0x000000001000144d                strchr
                0x0000000010001463                strcmp
                0x0000000010001483                strcpy
                0x000000001000149b                strerror
                0x00000000100014b4                strlen
                0x00000000100014c7                strncpy
                0x00000000100014ef                strdup
                0x000000001000151d                strncmp
 .text          0x000000001000154d       0x53 ../../../libc/x86/libc.a(fcntl.o)
                0x000000001000154d                open
                0x000000001000157d                creat
                0x0000000010001592                fcntl
 .text          0x00000000100015a0       0xbc ../../../libc/x86/libc.a(unistd.o)
                0x00000000100015a0                close
                0x00000000100015c7                read
                0x00000000100015f7                write
                0x0000000010001627                lseek
 .text          0x000000001000165c      0x1d9 /cygdrive/c/Users/Alex/Toolchain/Output/bin/../lib/gcc/i386-banana/8.1.0/libgcc.a(_udivmoddi4.o)
                0x000000001000165c                __udivmoddi4
 *(.rodata)
 *fill*         0x0000000010001835        0xb 
 .rodata        0x0000000010001840       0x4c ../../../libc/x86/libc.a(string.o)
 *(.symtab)
 *(.strtab)

.iplt           0x0000000010001890        0x0
 .iplt          0x0000000010001890        0x0 main.o

.rodata.str1.1  0x000000001000188c      0x3e7
 .rodata.str1.1
                0x000000001000188c      0x1df main.o
 .rodata.str1.1
                0x0000000010001a6b       0x3d ../../../libc/x86/libc.a(stdio.o)
 .rodata.str1.1
                0x0000000010001aa8      0x1cb ../../../libc/x86/libc.a(string.o)

.eh_frame       0x0000000010001c74      0x780
 .eh_frame      0x0000000010001c74       0x34 main.o
 .eh_frame      0x0000000010001ca8      0x394 ../../../libc/x86/libc.a(stdio.o)
                                        0x3ac (size before relaxing)
 .eh_frame      0x000000001000203c       0x94 ../../../libc/x86/libc.a(stdlib.o)
                                         0xac (size before relaxing)
 .eh_frame      0x00000000100020d0      0x1f8 ../../../libc/x86/libc.a(string.o)
                                        0x210 (size before relaxing)
 .eh_frame      0x00000000100022c8       0x54 ../../../libc/x86/libc.a(fcntl.o)
                                         0x6c (size before relaxing)
 .eh_frame      0x000000001000231c       0x80 ../../../libc/x86/libc.a(unistd.o)
                                         0x98 (size before relaxing)
 .eh_frame      0x000000001000239c       0x58 /cygdrive/c/Users/Alex/Toolchain/Output/bin/../lib/gcc/i386-banana/8.1.0/libgcc.a(_udivmoddi4.o)
                                         0x70 (size before relaxing)

.rel.dyn        0x00000000100023f4        0x0
 .rel.got       0x00000000100023f4        0x0 main.o
 .rel.iplt      0x00000000100023f4        0x0 main.o
 .rel.text      0x00000000100023f4        0x0 main.o

.data           0x0000000010003000        0x8
 *(.data)
 .data          0x0000000010003000        0x0 main.o
 .data          0x0000000010003000        0x0 ../../../libc/x86/libc.a(stdio.o)
 .data          0x0000000010003000        0x8 ../../../libc/x86/libc.a(stdlib.o)
                0x0000000010003000                rand_seed
 .data          0x0000000010003008        0x0 ../../../libc/x86/libc.a(string.o)
 .data          0x0000000010003008        0x0 ../../../libc/x86/libc.a(fcntl.o)
 .data          0x0000000010003008        0x0 ../../../libc/x86/libc.a(unistd.o)
 .data          0x0000000010003008        0x0 /cygdrive/c/Users/Alex/Toolchain/Output/bin/../lib/gcc/i386-banana/8.1.0/libgcc.a(_udivmoddi4.o)

.got            0x0000000010003008        0x0
 .got           0x0000000010003008        0x0 main.o

.got.plt        0x0000000010003008        0x0
 .got.plt       0x0000000010003008        0x0 main.o

.igot.plt       0x0000000010003008        0x0
 .igot.plt      0x0000000010003008        0x0 main.o

.bss            0x0000000010004000       0x18
 *(COMMON)
 COMMON         0x0000000010004000        0x4 main.o
                0x0000000010004000                errno
 COMMON         0x0000000010004004        0xc ../../../libc/x86/libc.a(stdio.o)
                0x0000000010004004                stdout
                0x0000000010004008                stdin
                0x000000001000400c                stderr
 *(.bss)
 .bss           0x0000000010004010        0x0 main.o
 .bss           0x0000000010004010        0x0 ../../../libc/x86/libc.a(stdio.o)
 .bss           0x0000000010004010        0x8 ../../../libc/x86/libc.a(stdlib.o)
 .bss           0x0000000010004018        0x0 ../../../libc/x86/libc.a(string.o)
 .bss           0x0000000010004018        0x0 ../../../libc/x86/libc.a(fcntl.o)
 .bss           0x0000000010004018        0x0 ../../../libc/x86/libc.a(unistd.o)
 .bss           0x0000000010004018        0x0 /cygdrive/c/Users/Alex/Toolchain/Output/bin/../lib/gcc/i386-banana/8.1.0/libgcc.a(_udivmoddi4.o)
 *(.bootstrap_stack)

/DISCARD/
 *(.comment)
OUTPUT(usertest.exe elf32-i386)
