Archive member included to satisfy reference by file (symbol)

../../../libc/x86/libc.a(fcntl.o)
                              main.o (open)
../../../libc/x86/libc.a(unistd.o)
                              main.o (write)
../../../libc/x86/libc.a(_systemcall.oo)
                              main.o (_system_call)
../../../libc/x86/libc.a(stdio.o)
                              main.o (fopen)
../../../libc/x86/libc.a(stdlib.o)
                              ../../../libc/x86/libc.a(stdio.o) (malloc)
../../../libc/x86/libc.a(string.o)
                              ../../../libc/x86/libc.a(stdio.o) (memmove)

Allocating common symbols
Common symbol       size              file

stdout              0x4               ../../../libc/x86/libc.a(stdio.o)
errno               0x4               ../../../libc/x86/libc.a(fcntl.o)
stdin               0x4               ../../../libc/x86/libc.a(stdio.o)
stderr              0x4               ../../../libc/x86/libc.a(stdio.o)

Discarded input sections

 .comment       0x0000000000000000       0x12 main.o
 .comment       0x0000000000000000       0x12 ../../../libc/x86/libc.a(fcntl.o)
 .comment       0x0000000000000000       0x12 ../../../libc/x86/libc.a(unistd.o)
 .comment       0x0000000000000000       0x12 ../../../libc/x86/libc.a(stdio.o)
 .comment       0x0000000000000000       0x12 ../../../libc/x86/libc.a(stdlib.o)
 .comment       0x0000000000000000       0x12 ../../../libc/x86/libc.a(string.o)

Memory Configuration

Name             Origin             Length             Attributes
*default*        0x0000000000000000 0xffffffffffffffff

Linker script and memory map

LOAD main.o
LOAD /cygdrive/c/Users/Alex/Toolchain/Output/bin/../lib/gcc/i386-banana/8.1.0/libgcc.a
LOAD ../../../libc/x86/libc.a
                0x0000000010000000                . = 0x10000000

.text           0x0000000010000000      0x9ac
 *(.text)
 .text          0x0000000010000000       0x76 main.o
                0x0000000010000000                _start
 .text          0x0000000010000076       0x53 ../../../libc/x86/libc.a(fcntl.o)
                0x0000000010000076                open
                0x00000000100000a6                creat
                0x00000000100000bb                fcntl
 .text          0x00000000100000c9       0xa3 ../../../libc/x86/libc.a(unistd.o)
                0x00000000100000c9                close
                0x00000000100000d7                read
                0x0000000010000107                write
                0x0000000010000137                lseek
 *fill*         0x000000001000016c        0x4 
 .text          0x0000000010000170       0x1d ../../../libc/x86/libc.a(_systemcall.oo)
                0x0000000010000170                _system_call
 .text          0x000000001000018d      0x59b ../../../libc/x86/libc.a(stdio.o)
                0x0000000010000290                fopen
                0x00000000100002c7                ftrylockfile
                0x00000000100002f2                funlockfile
                0x0000000010000301                flockfile
                0x000000001000031b                feof
                0x000000001000033b                ferror
                0x000000001000035b                clearerr
                0x0000000010000380                setvbuf
                0x000000001000040f                fflush
                0x0000000010000483                fclose
                0x00000000100004df                freopen
                0x0000000010000510                ungetc
                0x0000000010000555                fputc
                0x0000000010000675                fgetc
                0x0000000010000710                getc
                0x0000000010000715                getchar
 .text          0x0000000010000728       0x62 ../../../libc/x86/libc.a(stdlib.o)
                0x0000000010000728                malloc
                0x0000000010000749                free
                0x000000001000074a                calloc
 .text          0x000000001000078a      0x1d2 ../../../libc/x86/libc.a(string.o)
                0x000000001000078a                memchr
                0x00000000100007a7                memcmp
                0x00000000100007db                memcpy
                0x00000000100007f1                memmove
                0x0000000010000820                memset
                0x0000000010000835                strcat
                0x000000001000085c                strchr
                0x0000000010000872                strcmp
                0x0000000010000892                strcpy
                0x00000000100008aa                strerror
                0x00000000100008c3                strlen
                0x00000000100008d6                strncpy
                0x00000000100008fe                strdup
                0x000000001000092c                strncmp
 *(.rodata)
 *fill*         0x000000001000095c        0x4 
 .rodata        0x0000000010000960       0x4c ../../../libc/x86/libc.a(string.o)
 *(.symtab)
 *(.strtab)

.iplt           0x00000000100009b0        0x0
 .iplt          0x00000000100009b0        0x0 main.o

.rodata.str1.1  0x00000000100009ac      0x1ed
 .rodata.str1.1
                0x00000000100009ac       0x22 main.o
 .rodata.str1.1
                0x00000000100009ce      0x1cb ../../../libc/x86/libc.a(string.o)

.eh_frame       0x0000000010000b9c      0x5b8
 .eh_frame      0x0000000010000b9c       0x38 main.o
 .eh_frame      0x0000000010000bd4       0x54 ../../../libc/x86/libc.a(fcntl.o)
                                         0x6c (size before relaxing)
 .eh_frame      0x0000000010000c28       0x74 ../../../libc/x86/libc.a(unistd.o)
                                         0x8c (size before relaxing)
 .eh_frame      0x0000000010000c9c      0x268 ../../../libc/x86/libc.a(stdio.o)
                                        0x280 (size before relaxing)
 .eh_frame      0x0000000010000f04       0x58 ../../../libc/x86/libc.a(stdlib.o)
                                         0x70 (size before relaxing)
 .eh_frame      0x0000000010000f5c      0x1f8 ../../../libc/x86/libc.a(string.o)
                                        0x210 (size before relaxing)

.rel.dyn        0x0000000010001154        0x0
 .rel.got       0x0000000010001154        0x0 main.o
 .rel.iplt      0x0000000010001154        0x0 main.o
 .rel.text      0x0000000010001154        0x0 main.o

.data           0x0000000010002000        0x4
 *(.data)
 .data          0x0000000010002000        0x0 main.o
 .data          0x0000000010002000        0x0 ../../../libc/x86/libc.a(fcntl.o)
 .data          0x0000000010002000        0x0 ../../../libc/x86/libc.a(unistd.o)
 .data          0x0000000010002000        0x0 ../../../libc/x86/libc.a(stdio.o)
 .data          0x0000000010002000        0x4 ../../../libc/x86/libc.a(stdlib.o)
 .data          0x0000000010002004        0x0 ../../../libc/x86/libc.a(string.o)

.got            0x0000000010002004        0x0
 .got           0x0000000010002004        0x0 main.o

.got.plt        0x0000000010002004        0x0
 .got.plt       0x0000000010002004        0x0 main.o

.igot.plt       0x0000000010002004        0x0
 .igot.plt      0x0000000010002004        0x0 main.o

.bss            0x0000000010003000       0x10
 *(COMMON)
 COMMON         0x0000000010003000        0x4 ../../../libc/x86/libc.a(fcntl.o)
                0x0000000010003000                errno
 COMMON         0x0000000010003004        0xc ../../../libc/x86/libc.a(stdio.o)
                0x0000000010003004                stdout
                0x0000000010003008                stdin
                0x000000001000300c                stderr
 *(.bss)
 .bss           0x0000000010003010        0x0 main.o
 .bss           0x0000000010003010        0x0 ../../../libc/x86/libc.a(fcntl.o)
 .bss           0x0000000010003010        0x0 ../../../libc/x86/libc.a(unistd.o)
 .bss           0x0000000010003010        0x0 ../../../libc/x86/libc.a(stdio.o)
 .bss           0x0000000010003010        0x0 ../../../libc/x86/libc.a(stdlib.o)
 .bss           0x0000000010003010        0x0 ../../../libc/x86/libc.a(string.o)
 *(.bootstrap_stack)

/DISCARD/
 *(.comment)
OUTPUT(usertest.exe elf32-i386)
