
usertest.exe:	file format elf32-i386

Disassembly of section .text:

10000000 <.text>:
10000000: 55                           	push	ebp
10000001: 89 e5                        	mov	ebp, esp
10000003: 53                           	push	ebx
10000004: 51                           	push	ecx
10000005: 56                           	push	esi
10000006: 57                           	push	edi
10000007: 8b 45 08                     	mov	eax, dword ptr [ebp + 8]
1000000a: 8b 5d 0c                     	mov	ebx, dword ptr [ebp + 12]
1000000d: 8b 4d 10                     	mov	ecx, dword ptr [ebp + 16]
10000010: 8b 75 14                     	mov	esi, dword ptr [ebp + 20]
10000013: 8b 7d 18                     	mov	edi, dword ptr [ebp + 24]
10000016: cd 60                        	int	96
10000018: 5f                           	pop	edi
10000019: 5e                           	pop	esi
1000001a: 59                           	pop	ecx
1000001b: 5b                           	pop	ebx
1000001c: 5d                           	pop	ebp
1000001d: c3                           	ret
1000001e: 66 90                        	nop
10000020: 55                           	push	ebp
10000021: 89 e5                        	mov	ebp, esp
10000023: 57                           	push	edi
10000024: 56                           	push	esi
10000025: 53                           	push	ebx
10000026: 83 ec 2c                     	sub	esp, 44
10000029: 8b 45 08                     	mov	eax, dword ptr [ebp + 8]
1000002c: 8b 7d 0c                     	mov	edi, dword ptr [ebp + 12]
1000002f: 8b 75 14                     	mov	esi, dword ptr [ebp + 20]
10000032: 8b 5d 10                     	mov	ebx, dword ptr [ebp + 16]
10000035: 89 45 dc                     	mov	dword ptr [ebp - 36], eax
10000038: 89 fa                        	mov	edx, edi
1000003a: 85 f6                        	test	esi, esi
1000003c: 75 3a                        	jne	0x10000078 <.text+0x78>
1000003e: 39 df                        	cmp	edi, ebx
10000040: 0f 83 92 00 00 00            	jae	0x100000d8 <.text+0xd8>
10000046: c7 45 e4 00 00 00 00         	mov	dword ptr [ebp - 28], 0
1000004d: f7 f3                        	div	ebx
1000004f: 8b 75 18                     	mov	esi, dword ptr [ebp + 24]
10000052: 89 45 e0                     	mov	dword ptr [ebp - 32], eax
10000055: 85 f6                        	test	esi, esi
10000057: 74 0c                        	je	0x10000065 <.text+0x65>
10000059: 8b 45 18                     	mov	eax, dword ptr [ebp + 24]
1000005c: 89 10                        	mov	dword ptr [eax], edx
1000005e: c7 40 04 00 00 00 00         	mov	dword ptr [eax + 4], 0
10000065: 8b 45 e0                     	mov	eax, dword ptr [ebp - 32]
10000068: 8b 55 e4                     	mov	edx, dword ptr [ebp - 28]
1000006b: 83 c4 2c                     	add	esp, 44
1000006e: 5b                           	pop	ebx
1000006f: 5e                           	pop	esi
10000070: 5f                           	pop	edi
10000071: 5d                           	pop	ebp
10000072: c3                           	ret
10000073: 8d 74 26 00                  	lea	esi, [esi + eiz]
10000077: 90                           	nop
10000078: 39 f7                        	cmp	edi, esi
1000007a: 73 24                        	jae	0x100000a0 <.text+0xa0>
1000007c: 8b 5d 18                     	mov	ebx, dword ptr [ebp + 24]
1000007f: 85 db                        	test	ebx, ebx
10000081: 74 0b                        	je	0x1000008e <.text+0x8e>
10000083: 8b 45 18                     	mov	eax, dword ptr [ebp + 24]
10000086: 8b 75 dc                     	mov	esi, dword ptr [ebp - 36]
10000089: 89 78 04                     	mov	dword ptr [eax + 4], edi
1000008c: 89 30                        	mov	dword ptr [eax], esi
1000008e: c7 45 e4 00 00 00 00         	mov	dword ptr [ebp - 28], 0
10000095: c7 45 e0 00 00 00 00         	mov	dword ptr [ebp - 32], 0
1000009c: eb c7                        	jmp	0x10000065 <.text+0x65>
1000009e: 66 90                        	nop
100000a0: 0f bd ce                     	bsr	ecx, esi
100000a3: 83 f1 1f                     	xor	ecx, 31
100000a6: 89 4d e4                     	mov	dword ptr [ebp - 28], ecx
100000a9: 75 55                        	jne	0x10000100 <.text+0x100>
100000ab: 39 fe                        	cmp	esi, edi
100000ad: 0f 82 0d 01 00 00            	jb	0x100001c0 <.text+0x1c0>
100000b3: c7 45 e0 00 00 00 00         	mov	dword ptr [ebp - 32], 0
100000ba: 39 5d dc                     	cmp	dword ptr [ebp - 36], ebx
100000bd: 0f 83 fd 00 00 00            	jae	0x100001c0 <.text+0x1c0>
100000c3: 8b 4d 18                     	mov	ecx, dword ptr [ebp + 24]
100000c6: 85 c9                        	test	ecx, ecx
100000c8: 74 9b                        	je	0x10000065 <.text+0x65>
100000ca: 8b 5d 18                     	mov	ebx, dword ptr [ebp + 24]
100000cd: 89 03                        	mov	dword ptr [ebx], eax
100000cf: 89 53 04                     	mov	dword ptr [ebx + 4], edx
100000d2: eb 91                        	jmp	0x10000065 <.text+0x65>
100000d4: 8d 74 26 00                  	lea	esi, [esi + eiz]
100000d8: 89 d9                        	mov	ecx, ebx
100000da: 85 db                        	test	ebx, ebx
100000dc: 75 0b                        	jne	0x100000e9 <.text+0xe9>
100000de: b8 01 00 00 00               	mov	eax, 1
100000e3: 31 d2                        	xor	edx, edx
100000e5: f7 f3                        	div	ebx
100000e7: 89 c1                        	mov	ecx, eax
100000e9: 89 f8                        	mov	eax, edi
100000eb: 31 d2                        	xor	edx, edx
100000ed: f7 f1                        	div	ecx
100000ef: 89 c7                        	mov	edi, eax
100000f1: 8b 45 dc                     	mov	eax, dword ptr [ebp - 36]
100000f4: 89 7d e4                     	mov	dword ptr [ebp - 28], edi
100000f7: f7 f1                        	div	ecx
100000f9: e9 51 ff ff ff               	jmp	0x1000004f <.text+0x4f>
100000fe: 66 90                        	nop
10000100: 8b 45 e4                     	mov	eax, dword ptr [ebp - 28]
10000103: ba 20 00 00 00               	mov	edx, 32
10000108: 29 c2                        	sub	edx, eax
1000010a: 89 c1                        	mov	ecx, eax
1000010c: 89 d8                        	mov	eax, ebx
1000010e: d3 e6                        	shl	esi, cl
10000110: 89 d1                        	mov	ecx, edx
10000112: 89 55 d0                     	mov	dword ptr [ebp - 48], edx
10000115: d3 e8                        	shr	eax, cl
10000117: 09 c6                        	or	esi, eax
10000119: 89 f8                        	mov	eax, edi
1000011b: 89 75 d8                     	mov	dword ptr [ebp - 40], esi
1000011e: 8b 75 e4                     	mov	esi, dword ptr [ebp - 28]
10000121: 89 f1                        	mov	ecx, esi
10000123: d3 e3                        	shl	ebx, cl
10000125: 89 d1                        	mov	ecx, edx
10000127: d3 e8                        	shr	eax, cl
10000129: 89 5d d4                     	mov	dword ptr [ebp - 44], ebx
1000012c: 89 f1                        	mov	ecx, esi
1000012e: 89 d3                        	mov	ebx, edx
10000130: 89 fa                        	mov	edx, edi
10000132: 89 f7                        	mov	edi, esi
10000134: 8b 75 dc                     	mov	esi, dword ptr [ebp - 36]
10000137: d3 e2                        	shl	edx, cl
10000139: 89 d9                        	mov	ecx, ebx
1000013b: 89 c3                        	mov	ebx, eax
1000013d: d3 ee                        	shr	esi, cl
1000013f: 89 f1                        	mov	ecx, esi
10000141: 8b 75 dc                     	mov	esi, dword ptr [ebp - 36]
10000144: 09 d1                        	or	ecx, edx
10000146: 89 ca                        	mov	edx, ecx
10000148: 89 f9                        	mov	ecx, edi
1000014a: d3 e6                        	shl	esi, cl
1000014c: 89 d0                        	mov	eax, edx
1000014e: 89 da                        	mov	edx, ebx
10000150: f7 75 d8                     	div	dword ptr [ebp - 40]
10000153: 89 d3                        	mov	ebx, edx
10000155: 89 45 e0                     	mov	dword ptr [ebp - 32], eax
10000158: 89 c1                        	mov	ecx, eax
1000015a: 89 75 cc                     	mov	dword ptr [ebp - 52], esi
1000015d: f7 65 d4                     	mul	dword ptr [ebp - 44]
10000160: 89 55 dc                     	mov	dword ptr [ebp - 36], edx
10000163: 89 c7                        	mov	edi, eax
10000165: 39 d3                        	cmp	ebx, edx
10000167: 72 06                        	jb	0x1000016f <.text+0x16f>
10000169: 75 15                        	jne	0x10000180 <.text+0x180>
1000016b: 39 c6                        	cmp	esi, eax
1000016d: 73 11                        	jae	0x10000180 <.text+0x180>
1000016f: 8d 71 ff                     	lea	esi, [ecx - 1]
10000172: 2b 45 d4                     	sub	eax, dword ptr [ebp - 44]
10000175: 1b 55 d8                     	sbb	edx, dword ptr [ebp - 40]
10000178: 89 75 e0                     	mov	dword ptr [ebp - 32], esi
1000017b: 89 c7                        	mov	edi, eax
1000017d: 89 55 dc                     	mov	dword ptr [ebp - 36], edx
10000180: 8b 45 18                     	mov	eax, dword ptr [ebp + 24]
10000183: 85 c0                        	test	eax, eax
10000185: 74 25                        	je	0x100001ac <.text+0x1ac>
10000187: 0f b6 4d d0                  	movzx	ecx, byte ptr [ebp - 48]
1000018b: 8b 75 e4                     	mov	esi, dword ptr [ebp - 28]
1000018e: 89 d8                        	mov	eax, ebx
10000190: 8b 55 cc                     	mov	edx, dword ptr [ebp - 52]
10000193: 29 fa                        	sub	edx, edi
10000195: 1b 45 dc                     	sbb	eax, dword ptr [ebp - 36]
10000198: 89 c3                        	mov	ebx, eax
1000019a: d3 e3                        	shl	ebx, cl
1000019c: 89 f1                        	mov	ecx, esi
1000019e: 8b 75 18                     	mov	esi, dword ptr [ebp + 24]
100001a1: d3 ea                        	shr	edx, cl
100001a3: d3 e8                        	shr	eax, cl
100001a5: 09 da                        	or	edx, ebx
100001a7: 89 46 04                     	mov	dword ptr [esi + 4], eax
100001aa: 89 16                        	mov	dword ptr [esi], edx
100001ac: c7 45 e4 00 00 00 00         	mov	dword ptr [ebp - 28], 0
100001b3: e9 ad fe ff ff               	jmp	0x10000065 <.text+0x65>
100001b8: 8d b4 26 00 00 00 00         	lea	esi, [esi + eiz]
100001bf: 90                           	nop
100001c0: 8b 45 dc                     	mov	eax, dword ptr [ebp - 36]
100001c3: 89 fa                        	mov	edx, edi
100001c5: c7 45 e0 01 00 00 00         	mov	dword ptr [ebp - 32], 1
100001cc: 29 d8                        	sub	eax, ebx
100001ce: 19 f2                        	sbb	edx, esi
100001d0: e9 ee fe ff ff               	jmp	0x100000c3 <.text+0xc3>

Disassembly of section .text._start:

100001d5 <.text._start>:
100001d5: 55                           	push	ebp
100001d6: 89 e5                        	mov	ebp, esp
100001d8: 83 ec 10                     	sub	esp, 16
100001db: 68 61 17 00 10               	push	268441441
100001e0: 68 63 17 00 10               	push	268441443
100001e5: e8 9f 07 00 00               	call	0x10000989
100001ea: a3 e4 1a 00 10               	mov	dword ptr [268442340], eax
100001ef: 58                           	pop	eax
100001f0: 5a                           	pop	edx
100001f1: 68 68 17 00 10               	push	268441448
100001f6: 68 63 17 00 10               	push	268441443
100001fb: e8 89 07 00 00               	call	0x10000989
10000200: 59                           	pop	ecx
10000201: a3 e0 1a 00 10               	mov	dword ptr [268442336], eax
10000206: 58                           	pop	eax
10000207: 68 68 17 00 10               	push	268441448
1000020c: 68 63 17 00 10               	push	268441443
10000211: e8 73 07 00 00               	call	0x10000989
10000216: 6a 01                        	push	1
10000218: 6a 02                        	push	2
1000021a: 6a 00                        	push	0
1000021c: 50                           	push	eax
1000021d: a3 dc 1a 00 10               	mov	dword ptr [268442332], eax
10000222: e8 ee 07 00 00               	call	0x10000a15
10000227: 83 c4 18                     	add	esp, 24
1000022a: 31 c0                        	xor	eax, eax
1000022c: 6a 00                        	push	0
1000022e: 6a 00                        	push	0
10000230: a3 f0 1a 00 10               	mov	dword ptr [268442352], eax
10000235: e8 08 00 00 00               	call	0x10000242
1000023a: 89 04 24                     	mov	dword ptr [esp], eax
1000023d: e8 93 13 00 00               	call	0x100015d5

Disassembly of section .text.startup.main:

10000242 <.text.startup.main>:
10000242: 8d 4c 24 04                  	lea	ecx, [esp + 4]
10000246: 83 e4 f0                     	and	esp, -16
10000249: ff 71 fc                     	push	dword ptr [ecx - 4]
1000024c: 55                           	push	ebp
1000024d: 89 e5                        	mov	ebp, esp
1000024f: 53                           	push	ebx
10000250: 51                           	push	ecx
10000251: 83 ec 48                     	sub	esp, 72
10000254: 68 6a 17 00 10               	push	268441450
10000259: 68 6c 17 00 10               	push	268441452
1000025e: e8 26 07 00 00               	call	0x10000989
10000263: 59                           	pop	ecx
10000264: 5a                           	pop	edx
10000265: 50                           	push	eax
10000266: 89 c3                        	mov	ebx, eax
10000268: 68 71 17 00 10               	push	268441457
1000026d: e8 d7 0a 00 00               	call	0x10000d49
10000272: 59                           	pop	ecx
10000273: 58                           	pop	eax
10000274: 68 8d 17 00 10               	push	268441485
10000279: 53                           	push	ebx
1000027a: e8 14 13 00 00               	call	0x10001593
1000027f: 83 c4 0c                     	add	esp, 12
10000282: 6a 7b                        	push	123
10000284: 68 a7 17 00 10               	push	268441511
10000289: 53                           	push	ebx
1000028a: e8 04 13 00 00               	call	0x10001593
1000028f: 83 c4 0c                     	add	esp, 12
10000292: 68 bd 17 00 10               	push	268441533
10000297: 68 c4 17 00 10               	push	268441540
1000029c: 53                           	push	ebx
1000029d: e8 f1 12 00 00               	call	0x10001593
100002a2: 83 c4 0c                     	add	esp, 12
100002a5: 68 da 17 00 10               	push	268441562
100002aa: 68 e8 17 00 10               	push	268441576
100002af: 53                           	push	ebx
100002b0: e8 de 12 00 00               	call	0x10001593
100002b5: 83 c4 0c                     	add	esp, 12
100002b8: 68 da 17 00 10               	push	268441562
100002bd: 68 ee 17 00 10               	push	268441582
100002c2: 53                           	push	ebx
100002c3: e8 cb 12 00 00               	call	0x10001593
100002c8: 83 c4 0c                     	add	esp, 12
100002cb: 68 da 17 00 10               	push	268441562
100002d0: 68 f6 17 00 10               	push	268441590
100002d5: 53                           	push	ebx
100002d6: e8 b8 12 00 00               	call	0x10001593
100002db: 83 c4 0c                     	add	esp, 12
100002de: 68 da 17 00 10               	push	268441562
100002e3: 68 ff 17 00 10               	push	268441599
100002e8: 53                           	push	ebx
100002e9: e8 a5 12 00 00               	call	0x10001593
100002ee: 83 c4 0c                     	add	esp, 12
100002f1: 68 da 17 00 10               	push	268441562
100002f6: 68 08 18 00 10               	push	268441608
100002fb: 53                           	push	ebx
100002fc: e8 92 12 00 00               	call	0x10001593
10000301: 83 c4 0c                     	add	esp, 12
10000304: 68 da 17 00 10               	push	268441562
10000309: 68 11 18 00 10               	push	268441617
1000030e: 53                           	push	ebx
1000030f: e8 7f 12 00 00               	call	0x10001593
10000314: 83 c4 0c                     	add	esp, 12
10000317: 68 da 17 00 10               	push	268441562
1000031c: 68 1a 18 00 10               	push	268441626
10000321: 53                           	push	ebx
10000322: e8 6c 12 00 00               	call	0x10001593
10000327: 83 c4 0c                     	add	esp, 12
1000032a: 68 da 17 00 10               	push	268441562
1000032f: 68 25 18 00 10               	push	268441637
10000334: 53                           	push	ebx
10000335: e8 59 12 00 00               	call	0x10001593
1000033a: 83 c4 0c                     	add	esp, 12
1000033d: 68 32 18 00 10               	push	268441650
10000342: 68 37 18 00 10               	push	268441655
10000347: 53                           	push	ebx
10000348: e8 46 12 00 00               	call	0x10001593
1000034d: 83 c4 0c                     	add	esp, 12
10000350: 68 39 30 00 00               	push	12345
10000355: 68 46 18 00 10               	push	268441670
1000035a: 53                           	push	ebx
1000035b: e8 33 12 00 00               	call	0x10001593
10000360: 83 c4 0c                     	add	esp, 12
10000363: 6a 19                        	push	25
10000365: 68 58 18 00 10               	push	268441688
1000036a: 53                           	push	ebx
1000036b: e8 23 12 00 00               	call	0x10001593
10000370: 83 c4 0c                     	add	esp, 12
10000373: 68 d2 04 00 00               	push	1234
10000378: 68 6d 18 00 10               	push	268441709
1000037d: 53                           	push	ebx
1000037e: e8 10 12 00 00               	call	0x10001593
10000383: 83 c4 0c                     	add	esp, 12
10000386: 68 ff 00 00 00               	push	255
1000038b: 68 7f 18 00 10               	push	268441727
10000390: 53                           	push	ebx
10000391: e8 fd 11 00 00               	call	0x10001593
10000396: 83 c4 0c                     	add	esp, 12
10000399: 68 ff 00 00 00               	push	255
1000039e: 68 90 18 00 10               	push	268441744
100003a3: 53                           	push	ebx
100003a4: e8 ea 11 00 00               	call	0x10001593
100003a9: 83 c4 0c                     	add	esp, 12
100003ac: 68 96 00 00 00               	push	150
100003b1: 68 9b 18 00 10               	push	268441755
100003b6: 53                           	push	ebx
100003b7: e8 d7 11 00 00               	call	0x10001593
100003bc: 83 c4 0c                     	add	esp, 12
100003bf: 6a 0a                        	push	10
100003c1: 68 af 18 00 10               	push	268441775
100003c6: 53                           	push	ebx
100003c7: e8 c7 11 00 00               	call	0x10001593
100003cc: 83 c4 0c                     	add	esp, 12
100003cf: 6a 0d                        	push	13
100003d1: 68 d3 18 00 10               	push	268441811
100003d6: 53                           	push	ebx
100003d7: e8 b7 11 00 00               	call	0x10001593
100003dc: 83 c4 0c                     	add	esp, 12
100003df: 6a 0d                        	push	13
100003e1: 68 da 18 00 10               	push	268441818
100003e6: 53                           	push	ebx
100003e7: e8 a7 11 00 00               	call	0x10001593
100003ec: 83 c4 0c                     	add	esp, 12
100003ef: 6a 0d                        	push	13
100003f1: 68 e2 18 00 10               	push	268441826
100003f6: 53                           	push	ebx
100003f7: e8 97 11 00 00               	call	0x10001593
100003fc: 83 c4 0c                     	add	esp, 12
100003ff: 6a 0d                        	push	13
10000401: 68 ea 18 00 10               	push	268441834
10000406: 53                           	push	ebx
10000407: e8 87 11 00 00               	call	0x10001593
1000040c: 83 c4 0c                     	add	esp, 12
1000040f: 6a 0d                        	push	13
10000411: 68 f2 18 00 10               	push	268441842
10000416: 53                           	push	ebx
10000417: e8 77 11 00 00               	call	0x10001593
1000041c: 83 c4 0c                     	add	esp, 12
1000041f: 6a 0d                        	push	13
10000421: 68 fa 18 00 10               	push	268441850
10000426: 53                           	push	ebx
10000427: e8 67 11 00 00               	call	0x10001593
1000042c: 83 c4 0c                     	add	esp, 12
1000042f: 6a 0d                        	push	13
10000431: 68 03 19 00 10               	push	268441859
10000436: 53                           	push	ebx
10000437: e8 57 11 00 00               	call	0x10001593
1000043c: 83 c4 0c                     	add	esp, 12
1000043f: 6a f3                        	push	-13
10000441: 68 d3 18 00 10               	push	268441811
10000446: 53                           	push	ebx
10000447: e8 47 11 00 00               	call	0x10001593
1000044c: 83 c4 0c                     	add	esp, 12
1000044f: 6a f3                        	push	-13
10000451: 68 da 18 00 10               	push	268441818
10000456: 53                           	push	ebx
10000457: e8 37 11 00 00               	call	0x10001593
1000045c: 83 c4 0c                     	add	esp, 12
1000045f: 6a f3                        	push	-13
10000461: 68 e2 18 00 10               	push	268441826
10000466: 53                           	push	ebx
10000467: e8 27 11 00 00               	call	0x10001593
1000046c: 83 c4 0c                     	add	esp, 12
1000046f: 6a f3                        	push	-13
10000471: 68 ea 18 00 10               	push	268441834
10000476: 53                           	push	ebx
10000477: e8 17 11 00 00               	call	0x10001593
1000047c: 83 c4 0c                     	add	esp, 12
1000047f: 6a f3                        	push	-13
10000481: 68 f2 18 00 10               	push	268441842
10000486: 53                           	push	ebx
10000487: e8 07 11 00 00               	call	0x10001593
1000048c: 83 c4 0c                     	add	esp, 12
1000048f: 6a f3                        	push	-13
10000491: 68 fa 18 00 10               	push	268441850
10000496: 53                           	push	ebx
10000497: e8 f7 10 00 00               	call	0x10001593
1000049c: 83 c4 0c                     	add	esp, 12
1000049f: 6a f3                        	push	-13
100004a1: 68 03 19 00 10               	push	268441859
100004a6: 53                           	push	ebx
100004a7: e8 e7 10 00 00               	call	0x10001593
100004ac: 83 c4 0c                     	add	esp, 12
100004af: 6a 0d                        	push	13
100004b1: 68 0c 19 00 10               	push	268441868
100004b6: 53                           	push	ebx
100004b7: e8 d7 10 00 00               	call	0x10001593
100004bc: 83 c4 0c                     	add	esp, 12
100004bf: 6a 0d                        	push	13
100004c1: 68 15 19 00 10               	push	268441877
100004c6: 53                           	push	ebx
100004c7: e8 c7 10 00 00               	call	0x10001593
100004cc: 83 c4 0c                     	add	esp, 12
100004cf: 6a 0d                        	push	13
100004d1: 68 1e 19 00 10               	push	268441886
100004d6: 53                           	push	ebx
100004d7: e8 b7 10 00 00               	call	0x10001593
100004dc: 83 c4 0c                     	add	esp, 12
100004df: 6a 00                        	push	0
100004e1: 68 0c 19 00 10               	push	268441868
100004e6: 53                           	push	ebx
100004e7: e8 a7 10 00 00               	call	0x10001593
100004ec: 83 c4 0c                     	add	esp, 12
100004ef: 6a 00                        	push	0
100004f1: 68 15 19 00 10               	push	268441877
100004f6: 53                           	push	ebx
100004f7: e8 97 10 00 00               	call	0x10001593
100004fc: 83 c4 0c                     	add	esp, 12
100004ff: 6a 00                        	push	0
10000501: 68 27 19 00 10               	push	268441895
10000506: 53                           	push	ebx
10000507: e8 87 10 00 00               	call	0x10001593
1000050c: 6a 7b                        	push	123
1000050e: 6a 02                        	push	2
10000510: 68 31 19 00 10               	push	268441905
10000515: 53                           	push	ebx
10000516: e8 78 10 00 00               	call	0x10001593
1000051b: 83 c4 20                     	add	esp, 32
1000051e: 6a 7b                        	push	123
10000520: 6a 03                        	push	3
10000522: 68 31 19 00 10               	push	268441905
10000527: 53                           	push	ebx
10000528: e8 66 10 00 00               	call	0x10001593
1000052d: 6a 7b                        	push	123
1000052f: 6a 04                        	push	4
10000531: 68 31 19 00 10               	push	268441905
10000536: 53                           	push	ebx
10000537: e8 57 10 00 00               	call	0x10001593
1000053c: 83 c4 20                     	add	esp, 32
1000053f: 6a 7b                        	push	123
10000541: 6a 05                        	push	5
10000543: 68 31 19 00 10               	push	268441905
10000548: 53                           	push	ebx
10000549: e8 45 10 00 00               	call	0x10001593
1000054e: 6a 7b                        	push	123
10000550: 6a 06                        	push	6
10000552: 68 31 19 00 10               	push	268441905
10000557: 53                           	push	ebx
10000558: e8 36 10 00 00               	call	0x10001593
1000055d: 83 c4 20                     	add	esp, 32
10000560: 6a 00                        	push	0
10000562: 6a 00                        	push	0
10000564: 68 38 19 00 10               	push	268441912
10000569: 53                           	push	ebx
1000056a: e8 24 10 00 00               	call	0x10001593
1000056f: 6a 00                        	push	0
10000571: 6a 01                        	push	1
10000573: 68 38 19 00 10               	push	268441912
10000578: 53                           	push	ebx
10000579: e8 15 10 00 00               	call	0x10001593
1000057e: 83 c4 14                     	add	esp, 20
10000581: 6a 00                        	push	0
10000583: 6a 00                        	push	0
10000585: 6a 03                        	push	3
10000587: 68 40 19 00 10               	push	268441920
1000058c: 53                           	push	ebx
1000058d: e8 01 10 00 00               	call	0x10001593
10000592: 83 c4 14                     	add	esp, 20
10000595: 6a 00                        	push	0
10000597: 6a 01                        	push	1
10000599: 6a 04                        	push	4
1000059b: 68 40 19 00 10               	push	268441920
100005a0: 53                           	push	ebx
100005a1: e8 ed 0f 00 00               	call	0x10001593
100005a6: 83 c4 14                     	add	esp, 20
100005a9: 53                           	push	ebx
100005aa: e8 02 05 00 00               	call	0x10000ab1
100005af: 89 1c 24                     	mov	dword ptr [esp], ebx
100005b2: e8 93 05 00 00               	call	0x10000b4a
100005b7: c7 04 24 49 19 00 10         	mov	dword ptr [esp], 268441929
100005be: e8 e6 00 00 00               	call	0x100006a9
100005c3: 83 c4 0c                     	add	esp, 12
100005c6: 68 4e 19 00 10               	push	268441934
100005cb: 50                           	push	eax
100005cc: 68 49 19 00 10               	push	268441929
100005d1: e8 db 02 00 00               	call	0x100008b1
100005d6: 89 c3                        	mov	ebx, eax
100005d8: 83 c4 10                     	add	esp, 16
100005db: 83 ec 0c                     	sub	esp, 12
100005de: 53                           	push	ebx
100005df: e8 d0 06 00 00               	call	0x10000cb4
100005e4: 83 c4 10                     	add	esp, 16
100005e7: 83 f8 ff                     	cmp	eax, -1
100005ea: 74 0f                        	je	0x100005fb <.text.startup.main+0x3b9>
100005ec: 52                           	push	edx
100005ed: 52                           	push	edx
100005ee: 50                           	push	eax
100005ef: 68 50 19 00 10               	push	268441936
100005f4: e8 b1 0f 00 00               	call	0x100015aa
100005f9: eb dd                        	jmp	0x100005d8 <.text.startup.main+0x396>
100005fb: 83 ec 0c                     	sub	esp, 12
100005fe: 53                           	push	ebx
100005ff: 8d 5d c6                     	lea	ebx, [ebp - 58]
10000602: e8 43 05 00 00               	call	0x10000b4a
10000607: 58                           	pop	eax
10000608: 5a                           	pop	edx
10000609: 68 58 19 00 10               	push	268441944
1000060e: 53                           	push	ebx
1000060f: e8 aa 0f 00 00               	call	0x100015be
10000614: 59                           	pop	ecx
10000615: 58                           	pop	eax
10000616: ff 35 e0 1a 00 10            	push	dword ptr [268442336]
1000061c: 53                           	push	ebx
1000061d: e8 27 07 00 00               	call	0x10000d49
10000622: 8d 65 f8                     	lea	esp, [ebp - 8]
10000625: 31 c0                        	xor	eax, eax
10000627: 59                           	pop	ecx
10000628: 5b                           	pop	ebx
10000629: 5d                           	pop	ebp
1000062a: 8d 61 fc                     	lea	esp, [ecx - 4]
1000062d: c3                           	ret

Disassembly of section .text.memcpy:

1000062e <.text.memcpy>:
1000062e: 55                           	push	ebp
1000062f: 89 e5                        	mov	ebp, esp
10000631: 57                           	push	edi
10000632: 8b 45 08                     	mov	eax, dword ptr [ebp + 8]
10000635: 8b 4d 10                     	mov	ecx, dword ptr [ebp + 16]
10000638: 56                           	push	esi
10000639: 8b 75 0c                     	mov	esi, dword ptr [ebp + 12]
1000063c: 89 c7                        	mov	edi, eax
1000063e: f3 a4                        	rep		movsb	byte ptr es:[edi], byte ptr [esi]
10000640: 5e                           	pop	esi
10000641: 5f                           	pop	edi
10000642: 5d                           	pop	ebp
10000643: c3                           	ret

Disassembly of section .text.memmove:

10000644 <.text.memmove>:
10000644: 55                           	push	ebp
10000645: 89 e5                        	mov	ebp, esp
10000647: 57                           	push	edi
10000648: 8b 55 08                     	mov	edx, dword ptr [ebp + 8]
1000064b: 8b 45 10                     	mov	eax, dword ptr [ebp + 16]
1000064e: 56                           	push	esi
1000064f: 8b 75 0c                     	mov	esi, dword ptr [ebp + 12]
10000652: 39 d6                        	cmp	esi, edx
10000654: 72 0b                        	jb	0x10000661 <.text.memmove+0x1d>
10000656: 01 d0                        	add	eax, edx
10000658: 89 d7                        	mov	edi, edx
1000065a: 39 c7                        	cmp	edi, eax
1000065c: 74 10                        	je	0x1000066e <.text.memmove+0x2a>
1000065e: a4                           	movsb	byte ptr es:[edi], byte ptr [esi]
1000065f: eb f9                        	jmp	0x1000065a <.text.memmove+0x16>
10000661: 83 e8 01                     	sub	eax, 1
10000664: 72 08                        	jb	0x1000066e <.text.memmove+0x2a>
10000666: 8a 0c 06                     	mov	cl, byte ptr [esi + eax]
10000669: 88 0c 02                     	mov	byte ptr [edx + eax], cl
1000066c: eb f3                        	jmp	0x10000661 <.text.memmove+0x1d>
1000066e: 5e                           	pop	esi
1000066f: 89 d0                        	mov	eax, edx
10000671: 5f                           	pop	edi
10000672: 5d                           	pop	ebp
10000673: c3                           	ret

Disassembly of section .text.memset:

10000674 <.text.memset>:
10000674: 55                           	push	ebp
10000675: 89 e5                        	mov	ebp, esp
10000677: 57                           	push	edi
10000678: 8a 45 0c                     	mov	al, byte ptr [ebp + 12]
1000067b: 8b 4d 10                     	mov	ecx, dword ptr [ebp + 16]
1000067e: 8b 7d 08                     	mov	edi, dword ptr [ebp + 8]
10000681: f3 aa                        	rep		stosb	byte ptr es:[edi], al
10000683: 8b 45 08                     	mov	eax, dword ptr [ebp + 8]
10000686: 5f                           	pop	edi
10000687: 5d                           	pop	ebp
10000688: c3                           	ret

Disassembly of section .text.strcmp:

10000689 <.text.strcmp>:
10000689: 55                           	push	ebp
1000068a: 31 c9                        	xor	ecx, ecx
1000068c: 89 e5                        	mov	ebp, esp
1000068e: 8b 45 08                     	mov	eax, dword ptr [ebp + 8]
10000691: 8b 55 0c                     	mov	edx, dword ptr [ebp + 12]
10000694: 0f b6 04 08                  	movzx	eax, byte ptr [eax + ecx]
10000698: 0f b6 14 0a                  	movzx	edx, byte ptr [edx + ecx]
1000069c: 84 c0                        	test	al, al
1000069e: 74 05                        	je	0x100006a5 <.text.strcmp+0x1c>
100006a0: 41                           	inc	ecx
100006a1: 38 d0                        	cmp	al, dl
100006a3: 74 e9                        	je	0x1000068e <.text.strcmp+0x5>
100006a5: 29 d0                        	sub	eax, edx
100006a7: 5d                           	pop	ebp
100006a8: c3                           	ret

Disassembly of section .text.strlen:

100006a9 <.text.strlen>:
100006a9: 55                           	push	ebp
100006aa: 31 c0                        	xor	eax, eax
100006ac: 89 e5                        	mov	ebp, esp
100006ae: 8b 55 08                     	mov	edx, dword ptr [ebp + 8]
100006b1: 80 3c 02 00                  	cmp	byte ptr [edx + eax], 0
100006b5: 74 03                        	je	0x100006ba <.text.strlen+0x11>
100006b7: 40                           	inc	eax
100006b8: eb f7                        	jmp	0x100006b1 <.text.strlen+0x8>
100006ba: 5d                           	pop	ebp
100006bb: c3                           	ret

Disassembly of section .text._file_read:

100006bc <.text._file_read>:
100006bc: 55                           	push	ebp
100006bd: 89 e5                        	mov	ebp, esp
100006bf: 8b 45 08                     	mov	eax, dword ptr [ebp + 8]
100006c2: 8b 00                        	mov	eax, dword ptr [eax]
100006c4: 89 45 08                     	mov	dword ptr [ebp + 8], eax
100006c7: 5d                           	pop	ebp
100006c8: e9 34 10 00 00               	jmp	0x10001701

Disassembly of section .text._file_write:

100006cd <.text._file_write>:
100006cd: 55                           	push	ebp
100006ce: 89 e5                        	mov	ebp, esp
100006d0: 8b 45 08                     	mov	eax, dword ptr [ebp + 8]
100006d3: 8b 00                        	mov	eax, dword ptr [eax]
100006d5: 89 45 08                     	mov	dword ptr [ebp + 8], eax
100006d8: 5d                           	pop	ebp
100006d9: e9 53 10 00 00               	jmp	0x10001731

Disassembly of section .text._mem_read:

100006de <.text._mem_read>:
100006de: 55                           	push	ebp
100006df: 89 e5                        	mov	ebp, esp
100006e1: 56                           	push	esi
100006e2: 53                           	push	ebx
100006e3: 8b 5d 08                     	mov	ebx, dword ptr [ebp + 8]
100006e6: 8b 75 10                     	mov	esi, dword ptr [ebp + 16]
100006e9: 8b 43 28                     	mov	eax, dword ptr [ebx + 40]
100006ec: 83 e0 03                     	and	eax, 3
100006ef: 48                           	dec	eax
100006f0: 75 0f                        	jne	0x10000701 <.text._mem_read+0x23>
100006f2: c7 05 f0 1a 00 10 07 00 00 00	mov	dword ptr [268442352], 7
100006fc: 83 ca ff                     	or	edx, -1
100006ff: eb 2d                        	jmp	0x1000072e <.text._mem_read+0x50>
10000701: 8b 43 34                     	mov	eax, dword ptr [ebx + 52]
10000704: 8b 4b 30                     	mov	ecx, dword ptr [ebx + 48]
10000707: 31 d2                        	xor	edx, edx
10000709: 39 c8                        	cmp	eax, ecx
1000070b: 73 21                        	jae	0x1000072e <.text._mem_read+0x50>
1000070d: 8d 14 30                     	lea	edx, [eax + esi]
10000710: 39 ca                        	cmp	edx, ecx
10000712: 72 04                        	jb	0x10000718 <.text._mem_read+0x3a>
10000714: 29 c1                        	sub	ecx, eax
10000716: 89 ce                        	mov	esi, ecx
10000718: 52                           	push	edx
10000719: 56                           	push	esi
1000071a: 03 43 2c                     	add	eax, dword ptr [ebx + 44]
1000071d: 50                           	push	eax
1000071e: ff 75 0c                     	push	dword ptr [ebp + 12]
10000721: e8 08 ff ff ff               	call	0x1000062e <.text.memcpy>
10000726: 01 73 34                     	add	dword ptr [ebx + 52], esi
10000729: 89 f2                        	mov	edx, esi
1000072b: 83 c4 10                     	add	esp, 16
1000072e: 8d 65 f8                     	lea	esp, [ebp - 8]
10000731: 89 d0                        	mov	eax, edx
10000733: 5b                           	pop	ebx
10000734: 5e                           	pop	esi
10000735: 5d                           	pop	ebp
10000736: c3                           	ret

Disassembly of section .text._mem_write:

10000737 <.text._mem_write>:
10000737: 55                           	push	ebp
10000738: 89 e5                        	mov	ebp, esp
1000073a: 56                           	push	esi
1000073b: 53                           	push	ebx
1000073c: 8b 5d 08                     	mov	ebx, dword ptr [ebp + 8]
1000073f: 8b 75 10                     	mov	esi, dword ptr [ebp + 16]
10000742: 8b 43 28                     	mov	eax, dword ptr [ebx + 40]
10000745: a8 03                        	test	al, 3
10000747: 74 2c                        	je	0x10000775 <.text._mem_write+0x3e>
10000749: a8 40                        	test	al, 64
1000074b: 75 12                        	jne	0x1000075f <.text._mem_write+0x28>
1000074d: 8b 43 34                     	mov	eax, dword ptr [ebx + 52]
10000750: 8d 14 30                     	lea	edx, [eax + esi]
10000753: 3b 53 30                     	cmp	edx, dword ptr [ebx + 48]
10000756: 72 2c                        	jb	0x10000784 <.text._mem_write+0x4d>
10000758: b8 0c 00 00 00               	mov	eax, 12
1000075d: eb 1b                        	jmp	0x1000077a <.text._mem_write+0x43>
1000075f: 8b 53 2c                     	mov	edx, dword ptr [ebx + 44]
10000762: 8b 43 34                     	mov	eax, dword ptr [ebx + 52]
10000765: 80 3c 02 00                  	cmp	byte ptr [edx + eax], 0
10000769: 74 e2                        	je	0x1000074d <.text._mem_write+0x16>
1000076b: 39 f0                        	cmp	eax, esi
1000076d: 73 de                        	jae	0x1000074d <.text._mem_write+0x16>
1000076f: 40                           	inc	eax
10000770: 89 43 34                     	mov	dword ptr [ebx + 52], eax
10000773: eb ed                        	jmp	0x10000762 <.text._mem_write+0x2b>
10000775: b8 07 00 00 00               	mov	eax, 7
1000077a: a3 f0 1a 00 10               	mov	dword ptr [268442352], eax
1000077f: 83 c8 ff                     	or	eax, -1
10000782: eb 16                        	jmp	0x1000079a <.text._mem_write+0x63>
10000784: 52                           	push	edx
10000785: 56                           	push	esi
10000786: ff 75 0c                     	push	dword ptr [ebp + 12]
10000789: 03 43 2c                     	add	eax, dword ptr [ebx + 44]
1000078c: 50                           	push	eax
1000078d: e8 9c fe ff ff               	call	0x1000062e <.text.memcpy>
10000792: 01 73 34                     	add	dword ptr [ebx + 52], esi
10000795: 89 f0                        	mov	eax, esi
10000797: 83 c4 10                     	add	esp, 16
1000079a: 8d 65 f8                     	lea	esp, [ebp - 8]
1000079d: 5b                           	pop	ebx
1000079e: 5e                           	pop	esi
1000079f: 5d                           	pop	ebp
100007a0: c3                           	ret

Disassembly of section .text.fopen_existing_stream:

100007a1 <.text.fopen_existing_stream>:
100007a1: 55                           	push	ebp
100007a2: 89 e5                        	mov	ebp, esp
100007a4: 57                           	push	edi
100007a5: 89 c7                        	mov	edi, eax
100007a7: 56                           	push	esi
100007a8: 89 d6                        	mov	esi, edx
100007aa: 53                           	push	ebx
100007ab: 83 ec 1c                     	sub	esp, 28
100007ae: 85 d2                        	test	edx, edx
100007b0: 0f 94 c0                     	sete	al
100007b3: 85 c9                        	test	ecx, ecx
100007b5: 0f 94 c2                     	sete	dl
100007b8: 08 d0                        	or	al, dl
100007ba: 75 66                        	jne	0x10000822 <.text.fopen_existing_stream+0x81>
100007bc: 85 ff                        	test	edi, edi
100007be: 74 62                        	je	0x10000822 <.text.fopen_existing_stream+0x81>
100007c0: 83 ec 0c                     	sub	esp, 12
100007c3: c7 41 04 ff ff ff ff         	mov	dword ptr [ecx + 4], 4294967295
100007ca: 89 cb                        	mov	ebx, ecx
100007cc: 66 c7 41 08 00 00            	mov	word ptr [ecx + 8], 0
100007d2: 68 00 02 00 00               	push	512
100007d7: e8 20 0e 00 00               	call	0x100015fc
100007dc: 31 c9                        	xor	ecx, ecx
100007de: c7 43 18 00 02 00 00         	mov	dword ptr [ebx + 24], 512
100007e5: 89 43 10                     	mov	dword ptr [ebx + 16], eax
100007e8: 31 c0                        	xor	eax, eax
100007ea: 89 4b 14                     	mov	dword ptr [ebx + 20], ecx
100007ed: c6 43 1c 01                  	mov	byte ptr [ebx + 28], 1
100007f1: 89 43 3c                     	mov	dword ptr [ebx + 60], eax
100007f4: 89 34 24                     	mov	dword ptr [esp], esi
100007f7: e8 ad fe ff ff               	call	0x100006a9 <.text.strlen>
100007fc: 83 c4 10                     	add	esp, 16
100007ff: 85 c0                        	test	eax, eax
10000801: 74 1f                        	je	0x10000822 <.text.fopen_existing_stream+0x81>
10000803: 83 ec 0c                     	sub	esp, 12
10000806: 56                           	push	esi
10000807: e8 9d fe ff ff               	call	0x100006a9 <.text.strlen>
1000080c: 83 c4 10                     	add	esp, 16
1000080f: 83 f8 03                     	cmp	eax, 3
10000812: 77 0e                        	ja	0x10000822 <.text.fopen_existing_stream+0x81>
10000814: 8a 06                        	mov	al, byte ptr [esi]
10000816: 3c 72                        	cmp	al, 114
10000818: 74 16                        	je	0x10000830 <.text.fopen_existing_stream+0x8f>
1000081a: 3c 77                        	cmp	al, 119
1000081c: 74 16                        	je	0x10000834 <.text.fopen_existing_stream+0x93>
1000081e: 3c 61                        	cmp	al, 97
10000820: 74 19                        	je	0x1000083b <.text.fopen_existing_stream+0x9a>
10000822: c7 05 f0 1a 00 10 07 00 00 00	mov	dword ptr [268442352], 7
1000082c: 31 db                        	xor	ebx, ebx
1000082e: eb 77                        	jmp	0x100008a7 <.text.fopen_existing_stream+0x106>
10000830: 31 d2                        	xor	edx, edx
10000832: eb 0c                        	jmp	0x10000840 <.text.fopen_existing_stream+0x9f>
10000834: ba 25 00 00 00               	mov	edx, 37
10000839: eb 05                        	jmp	0x10000840 <.text.fopen_existing_stream+0x9f>
1000083b: ba 45 00 00 00               	mov	edx, 69
10000840: 8a 46 01                     	mov	al, byte ptr [esi + 1]
10000843: 46                           	inc	esi
10000844: 84 c0                        	test	al, al
10000846: 74 15                        	je	0x1000085d <.text.fopen_existing_stream+0xbc>
10000848: 3c 2b                        	cmp	al, 43
1000084a: 75 08                        	jne	0x10000854 <.text.fopen_existing_stream+0xb3>
1000084c: 83 e2 fc                     	and	edx, -4
1000084f: 83 ca 02                     	or	edx, 2
10000852: eb ec                        	jmp	0x10000840 <.text.fopen_existing_stream+0x9f>
10000854: 3c 78                        	cmp	al, 120
10000856: 75 e8                        	jne	0x10000840 <.text.fopen_existing_stream+0x9f>
10000858: 83 ca 08                     	or	edx, 8
1000085b: eb e3                        	jmp	0x10000840 <.text.fopen_existing_stream+0x9f>
1000085d: 80 7b 48 00                  	cmp	byte ptr [ebx + 72], 0
10000861: 89 53 28                     	mov	dword ptr [ebx + 40], edx
10000864: 74 07                        	je	0x1000086d <.text.fopen_existing_stream+0xcc>
10000866: 31 d2                        	xor	edx, edx
10000868: 89 53 0c                     	mov	dword ptr [ebx + 12], edx
1000086b: eb 3a                        	jmp	0x100008a7 <.text.fopen_existing_stream+0x106>
1000086d: 50                           	push	eax
1000086e: 68 b6 01 00 00               	push	438
10000873: 52                           	push	edx
10000874: 89 55 e4                     	mov	dword ptr [ebp - 28], edx
10000877: 57                           	push	edi
10000878: e8 00 0e 00 00               	call	0x1000167d
1000087d: 83 c4 10                     	add	esp, 16
10000880: 89 c6                        	mov	esi, eax
10000882: 83 f8 ff                     	cmp	eax, -1
10000885: 74 a5                        	je	0x1000082c <.text.fopen_existing_stream+0x8b>
10000887: 8b 55 e4                     	mov	edx, dword ptr [ebp - 28]
1000088a: 83 e2 03                     	and	edx, 3
1000088d: 74 13                        	je	0x100008a2 <.text.fopen_existing_stream+0x101>
1000088f: 83 ec 0c                     	sub	esp, 12
10000892: 50                           	push	eax
10000893: e8 15 0e 00 00               	call	0x100016ad
10000898: 31 d2                        	xor	edx, edx
1000089a: 83 c4 10                     	add	esp, 16
1000089d: 85 c0                        	test	eax, eax
1000089f: 0f 95 c2                     	setne	dl
100008a2: 89 53 0c                     	mov	dword ptr [ebx + 12], edx
100008a5: 89 33                        	mov	dword ptr [ebx], esi
100008a7: 8d 65 f4                     	lea	esp, [ebp - 12]
100008aa: 89 d8                        	mov	eax, ebx
100008ac: 5b                           	pop	ebx
100008ad: 5e                           	pop	esi
100008ae: 5f                           	pop	edi
100008af: 5d                           	pop	ebp
100008b0: c3                           	ret

Disassembly of section .text.fmemopen:

100008b1 <.text.fmemopen>:
100008b1: 55                           	push	ebp
100008b2: 89 e5                        	mov	ebp, esp
100008b4: 57                           	push	edi
100008b5: 56                           	push	esi
100008b6: 53                           	push	ebx
100008b7: 83 ec 0c                     	sub	esp, 12
100008ba: 8b 75 0c                     	mov	esi, dword ptr [ebp + 12]
100008bd: 85 f6                        	test	esi, esi
100008bf: 75 11                        	jne	0x100008d2 <.text.fmemopen+0x21>
100008c1: c7 05 f0 1a 00 10 02 00 00 00	mov	dword ptr [268442352], 2
100008cb: 31 db                        	xor	ebx, ebx
100008cd: e9 ad 00 00 00               	jmp	0x1000097f <.text.fmemopen+0xce>
100008d2: 83 ec 0c                     	sub	esp, 12
100008d5: 6a 4c                        	push	76
100008d7: e8 20 0d 00 00               	call	0x100015fc
100008dc: 31 d2                        	xor	edx, edx
100008de: 89 50 40                     	mov	dword ptr [eax + 64], edx
100008e1: 8b 55 10                     	mov	edx, dword ptr [ebp + 16]
100008e4: 89 c7                        	mov	edi, eax
100008e6: 89 c1                        	mov	ecx, eax
100008e8: c7 40 44 ff ff ff ff         	mov	dword ptr [eax + 68], 4294967295
100008ef: c6 40 48 01                  	mov	byte ptr [eax + 72], 1
100008f3: c7 40 20 de 06 00 10         	mov	dword ptr [eax + 32], 268437214
100008fa: c7 40 24 37 07 00 10         	mov	dword ptr [eax + 36], 268437303
10000901: b8 70 19 00 10               	mov	eax, 268441968
10000906: e8 96 fe ff ff               	call	0x100007a1 <.text.fopen_existing_stream>
1000090b: 31 c9                        	xor	ecx, ecx
1000090d: 83 c4 10                     	add	esp, 16
10000910: 83 7d 08 00                  	cmp	dword ptr [ebp + 8], 0
10000914: 89 77 30                     	mov	dword ptr [edi + 48], esi
10000917: 89 c3                        	mov	ebx, eax
10000919: 89 4f 34                     	mov	dword ptr [edi + 52], ecx
1000091c: 75 1c                        	jne	0x1000093a <.text.fmemopen+0x89>
1000091e: 83 ec 0c                     	sub	esp, 12
10000921: 56                           	push	esi
10000922: e8 d5 0c 00 00               	call	0x100015fc
10000927: 83 c4 10                     	add	esp, 16
1000092a: 89 47 2c                     	mov	dword ptr [edi + 44], eax
1000092d: c6 00 00                     	mov	byte ptr [eax], 0
10000930: 83 7f 2c 00                  	cmp	dword ptr [edi + 44], 0
10000934: b0 01                        	mov	al, 1
10000936: 75 0a                        	jne	0x10000942 <.text.fmemopen+0x91>
10000938: eb 87                        	jmp	0x100008c1 <.text.fmemopen+0x10>
1000093a: 8b 45 08                     	mov	eax, dword ptr [ebp + 8]
1000093d: 89 47 2c                     	mov	dword ptr [edi + 44], eax
10000940: 31 c0                        	xor	eax, eax
10000942: 88 47 38                     	mov	byte ptr [edi + 56], al
10000945: 8b 45 10                     	mov	eax, dword ptr [ebp + 16]
10000948: 80 38 61                     	cmp	byte ptr [eax], 97
1000094b: 75 16                        	jne	0x10000963 <.text.fmemopen+0xb2>
1000094d: 8b 57 2c                     	mov	edx, dword ptr [edi + 44]
10000950: 8b 47 34                     	mov	eax, dword ptr [edi + 52]
10000953: 80 3c 02 00                  	cmp	byte ptr [edx + eax], 0
10000957: 74 26                        	je	0x1000097f <.text.fmemopen+0xce>
10000959: 39 f0                        	cmp	eax, esi
1000095b: 73 22                        	jae	0x1000097f <.text.fmemopen+0xce>
1000095d: 40                           	inc	eax
1000095e: 89 47 34                     	mov	dword ptr [edi + 52], eax
10000961: eb ed                        	jmp	0x10000950 <.text.fmemopen+0x9f>
10000963: 50                           	push	eax
10000964: 50                           	push	eax
10000965: 68 6e 19 00 10               	push	268441966
1000096a: ff 75 10                     	push	dword ptr [ebp + 16]
1000096d: e8 17 fd ff ff               	call	0x10000689 <.text.strcmp>
10000972: 83 c4 10                     	add	esp, 16
10000975: 85 c0                        	test	eax, eax
10000977: 75 06                        	jne	0x1000097f <.text.fmemopen+0xce>
10000979: 8b 47 2c                     	mov	eax, dword ptr [edi + 44]
1000097c: c6 00 00                     	mov	byte ptr [eax], 0
1000097f: 8d 65 f4                     	lea	esp, [ebp - 12]
10000982: 89 d8                        	mov	eax, ebx
10000984: 5b                           	pop	ebx
10000985: 5e                           	pop	esi
10000986: 5f                           	pop	edi
10000987: 5d                           	pop	ebp
10000988: c3                           	ret

Disassembly of section .text.fopen:

10000989 <.text.fopen>:
10000989: 55                           	push	ebp
1000098a: 89 e5                        	mov	ebp, esp
1000098c: 56                           	push	esi
1000098d: 53                           	push	ebx
1000098e: 8b 5d 08                     	mov	ebx, dword ptr [ebp + 8]
10000991: 8b 75 0c                     	mov	esi, dword ptr [ebp + 12]
10000994: 83 ec 0c                     	sub	esp, 12
10000997: 6a 4c                        	push	76
10000999: e8 5e 0c 00 00               	call	0x100015fc
1000099e: 83 c4 10                     	add	esp, 16
100009a1: 89 f2                        	mov	edx, esi
100009a3: 89 c1                        	mov	ecx, eax
100009a5: 31 c0                        	xor	eax, eax
100009a7: 89 41 40                     	mov	dword ptr [ecx + 64], eax
100009aa: 89 d8                        	mov	eax, ebx
100009ac: c7 41 44 ff ff ff ff         	mov	dword ptr [ecx + 68], 4294967295
100009b3: c6 41 48 00                  	mov	byte ptr [ecx + 72], 0
100009b7: c7 41 20 bc 06 00 10         	mov	dword ptr [ecx + 32], 268437180
100009be: c7 41 24 cd 06 00 10         	mov	dword ptr [ecx + 36], 268437197
100009c5: 8d 65 f8                     	lea	esp, [ebp - 8]
100009c8: 5b                           	pop	ebx
100009c9: 5e                           	pop	esi
100009ca: 5d                           	pop	ebp
100009cb: e9 d1 fd ff ff               	jmp	0x100007a1 <.text.fopen_existing_stream>

Disassembly of section .text.ftrylockfile:

100009d0 <.text.ftrylockfile>:
100009d0: 55                           	push	ebp
100009d1: 89 e5                        	mov	ebp, esp
100009d3: 8b 45 08                     	mov	eax, dword ptr [ebp + 8]
100009d6: 8b 50 40                     	mov	edx, dword ptr [eax + 64]
100009d9: 85 d2                        	test	edx, edx
100009db: 74 0c                        	je	0x100009e9 <.text.ftrylockfile+0x19>
100009dd: 8b 48 44                     	mov	ecx, dword ptr [eax + 68]
100009e0: ba 01 00 00 00               	mov	edx, 1
100009e5: 85 c9                        	test	ecx, ecx
100009e7: 75 0e                        	jne	0x100009f7 <.text.ftrylockfile+0x27>
100009e9: 8b 50 40                     	mov	edx, dword ptr [eax + 64]
100009ec: 42                           	inc	edx
100009ed: 89 50 40                     	mov	dword ptr [eax + 64], edx
100009f0: 31 d2                        	xor	edx, edx
100009f2: 89 50 44                     	mov	dword ptr [eax + 68], edx
100009f5: 31 d2                        	xor	edx, edx
100009f7: 89 d0                        	mov	eax, edx
100009f9: 5d                           	pop	ebp
100009fa: c3                           	ret

Disassembly of section .text.flockfile:

100009fb <.text.flockfile>:
100009fb: 55                           	push	ebp
100009fc: 89 e5                        	mov	ebp, esp
100009fe: 83 ec 08                     	sub	esp, 8
10000a01: 83 ec 0c                     	sub	esp, 12
10000a04: ff 75 08                     	push	dword ptr [ebp + 8]
10000a07: e8 c4 ff ff ff               	call	0x100009d0 <.text.ftrylockfile>
10000a0c: 83 c4 10                     	add	esp, 16
10000a0f: 85 c0                        	test	eax, eax
10000a11: 75 ee                        	jne	0x10000a01 <.text.flockfile+0x6>
10000a13: c9                           	leave
10000a14: c3                           	ret

Disassembly of section .text.setvbuf:

10000a15 <.text.setvbuf>:
10000a15: 55                           	push	ebp
10000a16: 89 e5                        	mov	ebp, esp
10000a18: 57                           	push	edi
10000a19: 56                           	push	esi
10000a1a: 53                           	push	ebx
10000a1b: 83 ec 28                     	sub	esp, 40
10000a1e: 8b 7d 08                     	mov	edi, dword ptr [ebp + 8]
10000a21: 8b 5d 0c                     	mov	ebx, dword ptr [ebp + 12]
10000a24: 57                           	push	edi
10000a25: e8 d1 ff ff ff               	call	0x100009fb <.text.flockfile>
10000a2a: 83 c4 10                     	add	esp, 16
10000a2d: 85 ff                        	test	edi, edi
10000a2f: 74 07                        	je	0x10000a38 <.text.setvbuf+0x23>
10000a31: 8b 77 3c                     	mov	esi, dword ptr [edi + 60]
10000a34: 85 f6                        	test	esi, esi
10000a36: 74 16                        	je	0x10000a4e <.text.setvbuf+0x39>
10000a38: 8b 47 40                     	mov	eax, dword ptr [edi + 64]
10000a3b: 83 ce ff                     	or	esi, -1
10000a3e: c7 05 f0 1a 00 10 14 00 00 00	mov	dword ptr [268442352], 20
10000a48: 48                           	dec	eax
10000a49: 89 47 40                     	mov	dword ptr [edi + 64], eax
10000a4c: eb 59                        	jmp	0x10000aa7 <.text.setvbuf+0x92>
10000a4e: 80 7f 1c 00                  	cmp	byte ptr [edi + 28], 0
10000a52: 74 0e                        	je	0x10000a62 <.text.setvbuf+0x4d>
10000a54: 83 ec 0c                     	sub	esp, 12
10000a57: ff 77 10                     	push	dword ptr [edi + 16]
10000a5a: e8 1d 0c 00 00               	call	0x1000167c
10000a5f: 83 c4 10                     	add	esp, 16
10000a62: 85 db                        	test	ebx, ebx
10000a64: ba 20 00 00 00               	mov	edx, 32
10000a69: 0f 94 47 1c                  	sete	byte ptr [edi + 28]
10000a6d: 39 55 14                     	cmp	dword ptr [ebp + 20], edx
10000a70: 0f 43 55 14                  	cmovae	edx, dword ptr [ebp + 20]
10000a74: 85 db                        	test	ebx, ebx
10000a76: 75 17                        	jne	0x10000a8f <.text.setvbuf+0x7a>
10000a78: 83 ec 0c                     	sub	esp, 12
10000a7b: 8d 42 01                     	lea	eax, [edx + 1]
10000a7e: 89 55 e4                     	mov	dword ptr [ebp - 28], edx
10000a81: 50                           	push	eax
10000a82: e8 75 0b 00 00               	call	0x100015fc
10000a87: 8b 55 e4                     	mov	edx, dword ptr [ebp - 28]
10000a8a: 83 c4 10                     	add	esp, 16
10000a8d: 89 c3                        	mov	ebx, eax
10000a8f: 31 c0                        	xor	eax, eax
10000a91: 89 5f 10                     	mov	dword ptr [edi + 16], ebx
10000a94: 89 47 14                     	mov	dword ptr [edi + 20], eax
10000a97: 8b 45 10                     	mov	eax, dword ptr [ebp + 16]
10000a9a: 89 57 18                     	mov	dword ptr [edi + 24], edx
10000a9d: 89 47 0c                     	mov	dword ptr [edi + 12], eax
10000aa0: 8b 47 40                     	mov	eax, dword ptr [edi + 64]
10000aa3: 48                           	dec	eax
10000aa4: 89 47 40                     	mov	dword ptr [edi + 64], eax
10000aa7: 8d 65 f4                     	lea	esp, [ebp - 12]
10000aaa: 89 f0                        	mov	eax, esi
10000aac: 5b                           	pop	ebx
10000aad: 5e                           	pop	esi
10000aae: 5f                           	pop	edi
10000aaf: 5d                           	pop	ebp
10000ab0: c3                           	ret

Disassembly of section .text.fflush:

10000ab1 <.text.fflush>:
10000ab1: 55                           	push	ebp
10000ab2: 89 e5                        	mov	ebp, esp
10000ab4: 53                           	push	ebx
10000ab5: 53                           	push	ebx
10000ab6: 8b 5d 08                     	mov	ebx, dword ptr [ebp + 8]
10000ab9: 85 db                        	test	ebx, ebx
10000abb: 75 0c                        	jne	0x10000ac9 <.text.fflush+0x18>
10000abd: c7 05 f0 1a 00 10 01 00 00 00	mov	dword ptr [268442352], 1
10000ac7: eb 49                        	jmp	0x10000b12 <.text.fflush+0x61>
10000ac9: 83 ec 0c                     	sub	esp, 12
10000acc: 53                           	push	ebx
10000acd: e8 29 ff ff ff               	call	0x100009fb <.text.flockfile>
10000ad2: 8b 43 3c                     	mov	eax, dword ptr [ebx + 60]
10000ad5: 83 c4 10                     	add	esp, 16
10000ad8: 85 c0                        	test	eax, eax
10000ada: 74 0a                        	je	0x10000ae6 <.text.fflush+0x35>
10000adc: 83 f8 01                     	cmp	eax, 1
10000adf: 75 10                        	jne	0x10000af1 <.text.fflush+0x40>
10000ae1: 31 c9                        	xor	ecx, ecx
10000ae3: 89 4b 14                     	mov	dword ptr [ebx + 20], ecx
10000ae6: 8b 43 40                     	mov	eax, dword ptr [ebx + 64]
10000ae9: 48                           	dec	eax
10000aea: 89 43 40                     	mov	dword ptr [ebx + 64], eax
10000aed: 31 c0                        	xor	eax, eax
10000aef: eb 54                        	jmp	0x10000b45 <.text.fflush+0x94>
10000af1: 83 f8 02                     	cmp	eax, 2
10000af4: 75 43                        	jne	0x10000b39 <.text.fflush+0x88>
10000af6: 52                           	push	edx
10000af7: ff 73 14                     	push	dword ptr [ebx + 20]
10000afa: ff 73 10                     	push	dword ptr [ebx + 16]
10000afd: 53                           	push	ebx
10000afe: ff 53 24                     	call	dword ptr [ebx + 36]
10000b01: 83 c4 10                     	add	esp, 16
10000b04: 40                           	inc	eax
10000b05: 75 10                        	jne	0x10000b17 <.text.fflush+0x66>
10000b07: c6 43 09 01                  	mov	byte ptr [ebx + 9], 1
10000b0b: 8b 43 40                     	mov	eax, dword ptr [ebx + 64]
10000b0e: 48                           	dec	eax
10000b0f: 89 43 40                     	mov	dword ptr [ebx + 64], eax
10000b12: 83 c8 ff                     	or	eax, -1
10000b15: eb 2e                        	jmp	0x10000b45 <.text.fflush+0x94>
10000b17: 31 c0                        	xor	eax, eax
10000b19: 80 7b 48 00                  	cmp	byte ptr [ebx + 72], 0
10000b1d: 89 43 14                     	mov	dword ptr [ebx + 20], eax
10000b20: 74 c4                        	je	0x10000ae6 <.text.fflush+0x35>
10000b22: 8b 43 34                     	mov	eax, dword ptr [ebx + 52]
10000b25: 3b 43 30                     	cmp	eax, dword ptr [ebx + 48]
10000b28: 73 bc                        	jae	0x10000ae6 <.text.fflush+0x35>
10000b2a: 8b 53 2c                     	mov	edx, dword ptr [ebx + 44]
10000b2d: 8d 48 01                     	lea	ecx, [eax + 1]
10000b30: 89 4b 34                     	mov	dword ptr [ebx + 52], ecx
10000b33: c6 04 02 00                  	mov	byte ptr [edx + eax], 0
10000b37: eb ad                        	jmp	0x10000ae6 <.text.fflush+0x35>
10000b39: c7 05 f0 1a 00 10 14 00 00 00	mov	dword ptr [268442352], 20
10000b43: eb c6                        	jmp	0x10000b0b <.text.fflush+0x5a>
10000b45: 8b 5d fc                     	mov	ebx, dword ptr [ebp - 4]
10000b48: c9                           	leave
10000b49: c3                           	ret

Disassembly of section .text.fclose:

10000b4a <.text.fclose>:
10000b4a: 55                           	push	ebp
10000b4b: 89 e5                        	mov	ebp, esp
10000b4d: 53                           	push	ebx
10000b4e: 83 ec 10                     	sub	esp, 16
10000b51: 8b 5d 08                     	mov	ebx, dword ptr [ebp + 8]
10000b54: 53                           	push	ebx
10000b55: e8 a1 fe ff ff               	call	0x100009fb <.text.flockfile>
10000b5a: 89 1c 24                     	mov	dword ptr [esp], ebx
10000b5d: e8 4f ff ff ff               	call	0x10000ab1 <.text.fflush>
10000b62: 83 c4 10                     	add	esp, 16
10000b65: 80 7b 1c 00                  	cmp	byte ptr [ebx + 28], 0
10000b69: 74 0e                        	je	0x10000b79 <.text.fclose+0x2f>
10000b6b: 83 ec 0c                     	sub	esp, 12
10000b6e: ff 73 10                     	push	dword ptr [ebx + 16]
10000b71: e8 06 0b 00 00               	call	0x1000167c
10000b76: 83 c4 10                     	add	esp, 16
10000b79: 80 7b 48 00                  	cmp	byte ptr [ebx + 72], 0
10000b7d: 75 18                        	jne	0x10000b97 <.text.fclose+0x4d>
10000b7f: 83 ec 0c                     	sub	esp, 12
10000b82: ff 33                        	push	dword ptr [ebx]
10000b84: e8 51 0b 00 00               	call	0x100016da
10000b89: 83 c4 10                     	add	esp, 16
10000b8c: 89 c2                        	mov	edx, eax
10000b8e: 83 c8 ff                     	or	eax, -1
10000b91: 85 d2                        	test	edx, edx
10000b93: 74 16                        	je	0x10000bab <.text.fclose+0x61>
10000b95: eb 22                        	jmp	0x10000bb9 <.text.fclose+0x6f>
10000b97: 80 7b 38 00                  	cmp	byte ptr [ebx + 56], 0
10000b9b: 74 0e                        	je	0x10000bab <.text.fclose+0x61>
10000b9d: 83 ec 0c                     	sub	esp, 12
10000ba0: ff 73 2c                     	push	dword ptr [ebx + 44]
10000ba3: e8 d4 0a 00 00               	call	0x1000167c
10000ba8: 83 c4 10                     	add	esp, 16
10000bab: 83 ec 0c                     	sub	esp, 12
10000bae: 53                           	push	ebx
10000baf: e8 c8 0a 00 00               	call	0x1000167c
10000bb4: 83 c4 10                     	add	esp, 16
10000bb7: 31 c0                        	xor	eax, eax
10000bb9: 8b 5d fc                     	mov	ebx, dword ptr [ebp - 4]
10000bbc: c9                           	leave
10000bbd: c3                           	ret

Disassembly of section .text.fputc:

10000bbe <.text.fputc>:
10000bbe: 55                           	push	ebp
10000bbf: 89 e5                        	mov	ebp, esp
10000bc1: 56                           	push	esi
10000bc2: 53                           	push	ebx
10000bc3: 83 ec 1c                     	sub	esp, 28
10000bc6: 8b 5d 0c                     	mov	ebx, dword ptr [ebp + 12]
10000bc9: 8b 75 08                     	mov	esi, dword ptr [ebp + 8]
10000bcc: 53                           	push	ebx
10000bcd: e8 29 fe ff ff               	call	0x100009fb <.text.flockfile>
10000bd2: 89 f0                        	mov	eax, esi
10000bd4: c7 43 3c 02 00 00 00         	mov	dword ptr [ebx + 60], 2
10000bdb: 83 c4 10                     	add	esp, 16
10000bde: 88 45 f7                     	mov	byte ptr [ebp - 9], al
10000be1: 8b 43 0c                     	mov	eax, dword ptr [ebx + 12]
10000be4: 83 f8 02                     	cmp	eax, 2
10000be7: 75 17                        	jne	0x10000c00 <.text.fputc+0x42>
10000be9: 8d 45 f7                     	lea	eax, [ebp - 9]
10000bec: 51                           	push	ecx
10000bed: 6a 01                        	push	1
10000bef: 50                           	push	eax
10000bf0: 53                           	push	ebx
10000bf1: ff 53 24                     	call	dword ptr [ebx + 36]
10000bf4: 83 c4 10                     	add	esp, 16
10000bf7: 40                           	inc	eax
10000bf8: 0f 85 a6 00 00 00            	jne	0x10000ca4 <.text.fputc+0xe6>
10000bfe: eb 2c                        	jmp	0x10000c2c <.text.fputc+0x6e>
10000c00: 83 f8 01                     	cmp	eax, 1
10000c03: 75 5d                        	jne	0x10000c62 <.text.fputc+0xa4>
10000c05: 8b 43 14                     	mov	eax, dword ptr [ebx + 20]
10000c08: 3b 43 18                     	cmp	eax, dword ptr [ebx + 24]
10000c0b: 73 10                        	jae	0x10000c1d <.text.fputc+0x5f>
10000c0d: 8d 48 01                     	lea	ecx, [eax + 1]
10000c10: 8b 53 10                     	mov	edx, dword ptr [ebx + 16]
10000c13: 89 4b 14                     	mov	dword ptr [ebx + 20], ecx
10000c16: 89 f1                        	mov	ecx, esi
10000c18: 88 0c 02                     	mov	byte ptr [edx + eax], cl
10000c1b: eb 2e                        	jmp	0x10000c4b <.text.fputc+0x8d>
10000c1d: 83 ec 0c                     	sub	esp, 12
10000c20: 53                           	push	ebx
10000c21: e8 8b fe ff ff               	call	0x10000ab1 <.text.fflush>
10000c26: 83 c4 10                     	add	esp, 16
10000c29: 40                           	inc	eax
10000c2a: 75 10                        	jne	0x10000c3c <.text.fputc+0x7e>
10000c2c: c6 43 09 01                  	mov	byte ptr [ebx + 9], 1
10000c30: 8b 43 40                     	mov	eax, dword ptr [ebx + 64]
10000c33: 83 ce ff                     	or	esi, -1
10000c36: 48                           	dec	eax
10000c37: 89 43 40                     	mov	dword ptr [ebx + 64], eax
10000c3a: eb 6f                        	jmp	0x10000cab <.text.fputc+0xed>
10000c3c: 52                           	push	edx
10000c3d: 52                           	push	edx
10000c3e: 53                           	push	ebx
10000c3f: 56                           	push	esi
10000c40: e8 79 ff ff ff               	call	0x10000bbe <.text.fputc>
10000c45: 83 c4 10                     	add	esp, 16
10000c48: 40                           	inc	eax
10000c49: 74 e5                        	je	0x10000c30 <.text.fputc+0x72>
10000c4b: 80 7d f7 0a                  	cmp	byte ptr [ebp - 9], 10
10000c4f: 75 53                        	jne	0x10000ca4 <.text.fputc+0xe6>
10000c51: 83 ec 0c                     	sub	esp, 12
10000c54: 53                           	push	ebx
10000c55: e8 57 fe ff ff               	call	0x10000ab1 <.text.fflush>
10000c5a: 83 c4 10                     	add	esp, 16
10000c5d: 40                           	inc	eax
10000c5e: 75 44                        	jne	0x10000ca4 <.text.fputc+0xe6>
10000c60: eb ce                        	jmp	0x10000c30 <.text.fputc+0x72>
10000c62: 85 c0                        	test	eax, eax
10000c64: 75 3e                        	jne	0x10000ca4 <.text.fputc+0xe6>
10000c66: 8b 43 14                     	mov	eax, dword ptr [ebx + 20]
10000c69: 3b 43 18                     	cmp	eax, dword ptr [ebx + 24]
10000c6c: 73 10                        	jae	0x10000c7e <.text.fputc+0xc0>
10000c6e: 8d 48 01                     	lea	ecx, [eax + 1]
10000c71: 8b 53 10                     	mov	edx, dword ptr [ebx + 16]
10000c74: 89 4b 14                     	mov	dword ptr [ebx + 20], ecx
10000c77: 89 f1                        	mov	ecx, esi
10000c79: 88 0c 02                     	mov	byte ptr [edx + eax], cl
10000c7c: eb 26                        	jmp	0x10000ca4 <.text.fputc+0xe6>
10000c7e: 83 ec 0c                     	sub	esp, 12
10000c81: 53                           	push	ebx
10000c82: e8 2a fe ff ff               	call	0x10000ab1 <.text.fflush>
10000c87: 83 c4 10                     	add	esp, 16
10000c8a: 40                           	inc	eax
10000c8b: 74 a3                        	je	0x10000c30 <.text.fputc+0x72>
10000c8d: 8b 43 40                     	mov	eax, dword ptr [ebx + 64]
10000c90: 48                           	dec	eax
10000c91: 89 43 40                     	mov	dword ptr [ebx + 64], eax
10000c94: 50                           	push	eax
10000c95: 50                           	push	eax
10000c96: 53                           	push	ebx
10000c97: 56                           	push	esi
10000c98: e8 21 ff ff ff               	call	0x10000bbe <.text.fputc>
10000c9d: 83 c4 10                     	add	esp, 16
10000ca0: 89 c6                        	mov	esi, eax
10000ca2: eb 07                        	jmp	0x10000cab <.text.fputc+0xed>
10000ca4: 8b 43 40                     	mov	eax, dword ptr [ebx + 64]
10000ca7: 48                           	dec	eax
10000ca8: 89 43 40                     	mov	dword ptr [ebx + 64], eax
10000cab: 8d 65 f8                     	lea	esp, [ebp - 8]
10000cae: 89 f0                        	mov	eax, esi
10000cb0: 5b                           	pop	ebx
10000cb1: 5e                           	pop	esi
10000cb2: 5d                           	pop	ebp
10000cb3: c3                           	ret

Disassembly of section .text.fgetc:

10000cb4 <.text.fgetc>:
10000cb4: 55                           	push	ebp
10000cb5: 89 e5                        	mov	ebp, esp
10000cb7: 56                           	push	esi
10000cb8: 53                           	push	ebx
10000cb9: 8b 5d 08                     	mov	ebx, dword ptr [ebp + 8]
10000cbc: 83 ec 0c                     	sub	esp, 12
10000cbf: 53                           	push	ebx
10000cc0: e8 36 fd ff ff               	call	0x100009fb <.text.flockfile>
10000cc5: 8b 73 04                     	mov	esi, dword ptr [ebx + 4]
10000cc8: c7 43 3c 01 00 00 00         	mov	dword ptr [ebx + 60], 1
10000ccf: 83 c4 10                     	add	esp, 16
10000cd2: 83 fe ff                     	cmp	esi, -1
10000cd5: 74 09                        	je	0x10000ce0 <.text.fgetc+0x2c>
10000cd7: c7 43 04 ff ff ff ff         	mov	dword ptr [ebx + 4], 4294967295
10000cde: eb 34                        	jmp	0x10000d14 <.text.fgetc+0x60>
10000ce0: 83 7b 14 00                  	cmp	dword ptr [ebx + 20], 0
10000ce4: 75 37                        	jne	0x10000d1d <.text.fgetc+0x69>
10000ce6: 83 7b 0c 02                  	cmp	dword ptr [ebx + 12], 2
10000cea: 8b 53 20                     	mov	edx, dword ptr [ebx + 32]
10000ced: b8 01 00 00 00               	mov	eax, 1
10000cf2: 74 03                        	je	0x10000cf7 <.text.fgetc+0x43>
10000cf4: 8b 43 18                     	mov	eax, dword ptr [ebx + 24]
10000cf7: 51                           	push	ecx
10000cf8: 50                           	push	eax
10000cf9: ff 73 10                     	push	dword ptr [ebx + 16]
10000cfc: 53                           	push	ebx
10000cfd: ff d2                        	call	edx
10000cff: 83 c4 10                     	add	esp, 16
10000d02: 83 f8 ff                     	cmp	eax, -1
10000d05: 75 06                        	jne	0x10000d0d <.text.fgetc+0x59>
10000d07: c6 43 09 01                  	mov	byte ptr [ebx + 9], 1
10000d0b: eb 07                        	jmp	0x10000d14 <.text.fgetc+0x60>
10000d0d: 89 43 14                     	mov	dword ptr [ebx + 20], eax
10000d10: 85 c0                        	test	eax, eax
10000d12: 75 09                        	jne	0x10000d1d <.text.fgetc+0x69>
10000d14: 8b 43 40                     	mov	eax, dword ptr [ebx + 64]
10000d17: 48                           	dec	eax
10000d18: 89 43 40                     	mov	dword ptr [ebx + 64], eax
10000d1b: eb 23                        	jmp	0x10000d40 <.text.fgetc+0x8c>
10000d1d: 8b 43 14                     	mov	eax, dword ptr [ebx + 20]
10000d20: 8b 53 10                     	mov	edx, dword ptr [ebx + 16]
10000d23: 48                           	dec	eax
10000d24: 0f be 32                     	movsx	esi, byte ptr [edx]
10000d27: 89 43 14                     	mov	dword ptr [ebx + 20], eax
10000d2a: 51                           	push	ecx
10000d2b: 50                           	push	eax
10000d2c: 8d 42 01                     	lea	eax, [edx + 1]
10000d2f: 50                           	push	eax
10000d30: 52                           	push	edx
10000d31: e8 0e f9 ff ff               	call	0x10000644 <.text.memmove>
10000d36: 8b 43 40                     	mov	eax, dword ptr [ebx + 64]
10000d39: 83 c4 10                     	add	esp, 16
10000d3c: 48                           	dec	eax
10000d3d: 89 43 40                     	mov	dword ptr [ebx + 64], eax
10000d40: 8d 65 f8                     	lea	esp, [ebp - 8]
10000d43: 89 f0                        	mov	eax, esi
10000d45: 5b                           	pop	ebx
10000d46: 5e                           	pop	esi
10000d47: 5d                           	pop	ebp
10000d48: c3                           	ret

Disassembly of section .text.fputs:

10000d49 <.text.fputs>:
10000d49: 55                           	push	ebp
10000d4a: 89 e5                        	mov	ebp, esp
10000d4c: 56                           	push	esi
10000d4d: 53                           	push	ebx
10000d4e: 8b 5d 0c                     	mov	ebx, dword ptr [ebp + 12]
10000d51: 83 ec 0c                     	sub	esp, 12
10000d54: 53                           	push	ebx
10000d55: e8 a1 fc ff ff               	call	0x100009fb <.text.flockfile>
10000d5a: 8b 75 08                     	mov	esi, dword ptr [ebp + 8]
10000d5d: 83 c4 10                     	add	esp, 16
10000d60: 0f be 06                     	movsx	eax, byte ptr [esi]
10000d63: 84 c0                        	test	al, al
10000d65: 74 1b                        	je	0x10000d82 <.text.fputs+0x39>
10000d67: 52                           	push	edx
10000d68: 46                           	inc	esi
10000d69: 52                           	push	edx
10000d6a: 53                           	push	ebx
10000d6b: 50                           	push	eax
10000d6c: e8 4d fe ff ff               	call	0x10000bbe <.text.fputc>
10000d71: 83 c4 10                     	add	esp, 16
10000d74: 83 f8 ff                     	cmp	eax, -1
10000d77: 75 e7                        	jne	0x10000d60 <.text.fputs+0x17>
10000d79: 8b 53 40                     	mov	edx, dword ptr [ebx + 64]
10000d7c: 4a                           	dec	edx
10000d7d: 89 53 40                     	mov	dword ptr [ebx + 64], edx
10000d80: eb 09                        	jmp	0x10000d8b <.text.fputs+0x42>
10000d82: 8b 43 40                     	mov	eax, dword ptr [ebx + 64]
10000d85: 48                           	dec	eax
10000d86: 89 43 40                     	mov	dword ptr [ebx + 64], eax
10000d89: 31 c0                        	xor	eax, eax
10000d8b: 8d 65 f8                     	lea	esp, [ebp - 8]
10000d8e: 5b                           	pop	ebx
10000d8f: 5e                           	pop	esi
10000d90: 5d                           	pop	ebp
10000d91: c3                           	ret

Disassembly of section .text.vfprintf:

10000d92 <.text.vfprintf>:
10000d92: 55                           	push	ebp
10000d93: 89 e5                        	mov	ebp, esp
10000d95: 57                           	push	edi
10000d96: 56                           	push	esi
10000d97: 53                           	push	ebx
10000d98: 81 ec b8 00 00 00            	sub	esp, 184
10000d9e: 8b 5d 10                     	mov	ebx, dword ptr [ebp + 16]
10000da1: ff 75 08                     	push	dword ptr [ebp + 8]
10000da4: e8 52 fc ff ff               	call	0x100009fb <.text.flockfile>
10000da9: 31 c9                        	xor	ecx, ecx
10000dab: 83 c4 10                     	add	esp, 16
10000dae: 89 8d 74 ff ff ff            	mov	dword ptr [ebp - 140], ecx
10000db4: 89 8d 7c ff ff ff            	mov	dword ptr [ebp - 132], ecx
10000dba: 8b 45 0c                     	mov	eax, dword ptr [ebp + 12]
10000dbd: 8b b5 74 ff ff ff            	mov	esi, dword ptr [ebp - 140]
10000dc3: 0f be 04 30                  	movsx	eax, byte ptr [eax + esi]
10000dc7: 84 c0                        	test	al, al
10000dc9: 0f 84 09 07 00 00            	je	0x100014d8 <.text.vfprintf+0x746>
10000dcf: 3c 25                        	cmp	al, 37
10000dd1: 75 27                        	jne	0x10000dfa <.text.vfprintf+0x68>
10000dd3: 8b 8d 74 ff ff ff            	mov	ecx, dword ptr [ebp - 140]
10000dd9: c6 85 58 ff ff ff 00         	mov	byte ptr [ebp - 168], 0
10000de0: 31 f6                        	xor	esi, esi
10000de2: c6 85 64 ff ff ff 00         	mov	byte ptr [ebp - 156], 0
10000de9: c6 85 70 ff ff ff 00         	mov	byte ptr [ebp - 144], 0
10000df0: 41                           	inc	ecx
10000df1: c6 85 68 ff ff ff 00         	mov	byte ptr [ebp - 152], 0
10000df8: eb 44                        	jmp	0x10000e3e <.text.vfprintf+0xac>
10000dfa: 52                           	push	edx
10000dfb: 52                           	push	edx
10000dfc: ff 75 08                     	push	dword ptr [ebp + 8]
10000dff: 50                           	push	eax
10000e00: e9 2f 02 00 00               	jmp	0x10001034 <.text.vfprintf+0x2a2>
10000e05: bf 09 28 01 00               	mov	edi, 75785
10000e0a: 0f a3 d7                     	bt	edi, edx
10000e0d: 0f 92 c2                     	setb	dl
10000e10: 84 d2                        	test	dl, dl
10000e12: 74 59                        	je	0x10000e6d <.text.vfprintf+0xdb>
10000e14: 3c 23                        	cmp	al, 35
10000e16: 0f 84 85 04 00 00            	je	0x100012a1 <.text.vfprintf+0x50f>
10000e1c: 3c 30                        	cmp	al, 48
10000e1e: 0f 84 71 04 00 00            	je	0x10001295 <.text.vfprintf+0x503>
10000e24: 3c 2d                        	cmp	al, 45
10000e26: 74 39                        	je	0x10000e61 <.text.vfprintf+0xcf>
10000e28: 3c 20                        	cmp	al, 32
10000e2a: 74 3d                        	je	0x10000e69 <.text.vfprintf+0xd7>
10000e2c: 3c 2b                        	cmp	al, 43
10000e2e: 8a 85 58 ff ff ff            	mov	al, byte ptr [ebp - 168]
10000e34: 0f 44 c2                     	cmove	eax, edx
10000e37: 88 85 58 ff ff ff            	mov	byte ptr [ebp - 168], al
10000e3d: 41                           	inc	ecx
10000e3e: 8b 45 0c                     	mov	eax, dword ptr [ebp + 12]
10000e41: 0f be 04 08                  	movsx	eax, byte ptr [eax + ecx]
10000e45: 8d 50 e0                     	lea	edx, [eax - 32]
10000e48: 80 fa 10                     	cmp	dl, 16
10000e4b: 76 b8                        	jbe	0x10000e05 <.text.vfprintf+0x73>
10000e4d: 8d 50 cf                     	lea	edx, [eax - 49]
10000e50: 80 fa 08                     	cmp	dl, 8
10000e53: 76 47                        	jbe	0x10000e9c <.text.vfprintf+0x10a>
10000e55: c7 85 6c ff ff ff ff ff ff ff	mov	dword ptr [ebp - 148], 4294967295
10000e5f: eb 70                        	jmp	0x10000ed1 <.text.vfprintf+0x13f>
10000e61: 88 95 64 ff ff ff            	mov	byte ptr [ebp - 156], dl
10000e67: eb d4                        	jmp	0x10000e3d <.text.vfprintf+0xab>
10000e69: 89 d6                        	mov	esi, edx
10000e6b: eb d0                        	jmp	0x10000e3d <.text.vfprintf+0xab>
10000e6d: c7 85 6c ff ff ff ff ff ff ff	mov	dword ptr [ebp - 148], 4294967295
10000e77: 3c 2a                        	cmp	al, 42
10000e79: 75 56                        	jne	0x10000ed1 <.text.vfprintf+0x13f>
10000e7b: 8b 3b                        	mov	edi, dword ptr [ebx]
10000e7d: 8d 43 04                     	lea	eax, [ebx + 4]
10000e80: 89 bd 6c ff ff ff            	mov	dword ptr [ebp - 148], edi
10000e86: 85 ff                        	test	edi, edi
10000e88: 79 0d                        	jns	0x10000e97 <.text.vfprintf+0x105>
10000e8a: f7 9d 6c ff ff ff            	neg	dword ptr [ebp - 148]
10000e90: c6 85 64 ff ff ff 01         	mov	byte ptr [ebp - 156], 1
10000e97: 41                           	inc	ecx
10000e98: 89 c3                        	mov	ebx, eax
10000e9a: eb 35                        	jmp	0x10000ed1 <.text.vfprintf+0x13f>
10000e9c: 83 e8 30                     	sub	eax, 48
10000e9f: 41                           	inc	ecx
10000ea0: 89 85 6c ff ff ff            	mov	dword ptr [ebp - 148], eax
10000ea6: 8b 45 0c                     	mov	eax, dword ptr [ebp + 12]
10000ea9: 8d 79 01                     	lea	edi, [ecx + 1]
10000eac: 89 7d 8c                     	mov	dword ptr [ebp - 116], edi
10000eaf: 0f be 04 08                  	movsx	eax, byte ptr [eax + ecx]
10000eb3: 8d 50 d0                     	lea	edx, [eax - 48]
10000eb6: 80 fa 09                     	cmp	dl, 9
10000eb9: 77 16                        	ja	0x10000ed1 <.text.vfprintf+0x13f>
10000ebb: 6b 95 6c ff ff ff 0a         	imul	edx, dword ptr [ebp - 148], 10
10000ec2: 8b 4d 8c                     	mov	ecx, dword ptr [ebp - 116]
10000ec5: 8d 44 02 d0                  	lea	eax, [edx + eax - 48]
10000ec9: 89 85 6c ff ff ff            	mov	dword ptr [ebp - 148], eax
10000ecf: eb d5                        	jmp	0x10000ea6 <.text.vfprintf+0x114>
10000ed1: 8b 45 0c                     	mov	eax, dword ptr [ebp + 12]
10000ed4: c7 45 88 ff ff ff ff         	mov	dword ptr [ebp - 120], 4294967295
10000edb: 80 3c 08 2e                  	cmp	byte ptr [eax + ecx], 46
10000edf: 75 48                        	jne	0x10000f29 <.text.vfprintf+0x197>
10000ee1: 80 7c 08 01 2a               	cmp	byte ptr [eax + ecx + 1], 42
10000ee6: 8d 51 01                     	lea	edx, [ecx + 1]
10000ee9: 75 0a                        	jne	0x10000ef5 <.text.vfprintf+0x163>
10000eeb: 8b 03                        	mov	eax, dword ptr [ebx]
10000eed: 8d 51 02                     	lea	edx, [ecx + 2]
10000ef0: 83 c3 04                     	add	ebx, 4
10000ef3: eb 25                        	jmp	0x10000f1a <.text.vfprintf+0x188>
10000ef5: 31 c0                        	xor	eax, eax
10000ef7: 8b 7d 0c                     	mov	edi, dword ptr [ebp + 12]
10000efa: 8a 0c 17                     	mov	cl, byte ptr [edi + edx]
10000efd: 8d 7a 01                     	lea	edi, [edx + 1]
10000f00: 88 4d 8c                     	mov	byte ptr [ebp - 116], cl
10000f03: 83 e9 30                     	sub	ecx, 48
10000f06: 80 f9 09                     	cmp	cl, 9
10000f09: 77 0f                        	ja	0x10000f1a <.text.vfprintf+0x188>
10000f0b: 6b c0 0a                     	imul	eax, eax, 10
10000f0e: 0f be 4d 8c                  	movsx	ecx, byte ptr [ebp - 116]
10000f12: 89 fa                        	mov	edx, edi
10000f14: 8d 44 08 d0                  	lea	eax, [eax + ecx - 48]
10000f18: eb dd                        	jmp	0x10000ef7 <.text.vfprintf+0x165>
10000f1a: 85 c0                        	test	eax, eax
10000f1c: b9 ff ff ff ff               	mov	ecx, 4294967295
10000f21: 0f 49 c8                     	cmovns	ecx, eax
10000f24: 89 4d 88                     	mov	dword ptr [ebp - 120], ecx
10000f27: 89 d1                        	mov	ecx, edx
10000f29: 80 bd 70 ff ff ff 00         	cmp	byte ptr [ebp - 144], 0
10000f30: 74 18                        	je	0x10000f4a <.text.vfprintf+0x1b8>
10000f32: 8a 95 70 ff ff ff            	mov	dl, byte ptr [ebp - 144]
10000f38: 31 c0                        	xor	eax, eax
10000f3a: 80 bd 64 ff ff ff 00         	cmp	byte ptr [ebp - 156], 0
10000f41: 0f 45 d0                     	cmovne	edx, eax
10000f44: 88 95 70 ff ff ff            	mov	byte ptr [ebp - 144], dl
10000f4a: 89 f0                        	mov	eax, esi
10000f4c: 84 c0                        	test	al, al
10000f4e: 74 0d                        	je	0x10000f5d <.text.vfprintf+0x1cb>
10000f50: 8a 85 58 ff ff ff            	mov	al, byte ptr [ebp - 168]
10000f56: 84 c0                        	test	al, al
10000f58: b0 00                        	mov	al, 0
10000f5a: 0f 45 f0                     	cmovne	esi, eax
10000f5d: 8a 95 70 ff ff ff            	mov	dl, byte ptr [ebp - 144]
10000f63: 31 c0                        	xor	eax, eax
10000f65: 8d 79 01                     	lea	edi, [ecx + 1]
10000f68: 83 7d 88 ff                  	cmp	dword ptr [ebp - 120], -1
10000f6c: 89 bd 74 ff ff ff            	mov	dword ptr [ebp - 140], edi
10000f72: 0f 45 d0                     	cmovne	edx, eax
10000f75: 8b 45 0c                     	mov	eax, dword ptr [ebp + 12]
10000f78: 8a 04 08                     	mov	al, byte ptr [eax + ecx]
10000f7b: 88 95 70 ff ff ff            	mov	byte ptr [ebp - 144], dl
10000f81: 3c 74                        	cmp	al, 116
10000f83: 7f 2d                        	jg	0x10000fb2 <.text.vfprintf+0x220>
10000f85: 3c 67                        	cmp	al, 103
10000f87: 7f 0c                        	jg	0x10000f95 <.text.vfprintf+0x203>
10000f89: 3c 4c                        	cmp	al, 76
10000f8b: 74 57                        	je	0x10000fe4 <.text.vfprintf+0x252>
10000f8d: 3c 5a                        	cmp	al, 90
10000f8f: 75 4b                        	jne	0x10000fdc <.text.vfprintf+0x24a>
10000f91: b0 7a                        	mov	al, 122
10000f93: eb 4f                        	jmp	0x10000fe4 <.text.vfprintf+0x252>
10000f95: 8b 95 74 ff ff ff            	mov	edx, dword ptr [ebp - 140]
10000f9b: 03 55 0c                     	add	edx, dword ptr [ebp + 12]
10000f9e: 89 d7                        	mov	edi, edx
10000fa0: 8d 50 98                     	lea	edx, [eax - 104]
10000fa3: 80 fa 0c                     	cmp	dl, 12
10000fa6: 77 34                        	ja	0x10000fdc <.text.vfprintf+0x24a>
10000fa8: 0f b6 d2                     	movzx	edx, dl
10000fab: ff 24 95 b0 19 00 10         	jmp	dword ptr [4*edx + 268442032]
10000fb2: 3c 7a                        	cmp	al, 122
10000fb4: 75 26                        	jne	0x10000fdc <.text.vfprintf+0x24a>
10000fb6: eb 2c                        	jmp	0x10000fe4 <.text.vfprintf+0x252>
10000fb8: 80 3f 68                     	cmp	byte ptr [edi], 104
10000fbb: 75 27                        	jne	0x10000fe4 <.text.vfprintf+0x252>
10000fbd: 8d 41 02                     	lea	eax, [ecx + 2]
10000fc0: 89 85 74 ff ff ff            	mov	dword ptr [ebp - 140], eax
10000fc6: b0 48                        	mov	al, 72
10000fc8: eb 1a                        	jmp	0x10000fe4 <.text.vfprintf+0x252>
10000fca: 80 3f 6c                     	cmp	byte ptr [edi], 108
10000fcd: 75 15                        	jne	0x10000fe4 <.text.vfprintf+0x252>
10000fcf: 8d 41 02                     	lea	eax, [ecx + 2]
10000fd2: 89 85 74 ff ff ff            	mov	dword ptr [ebp - 140], eax
10000fd8: b0 71                        	mov	al, 113
10000fda: eb 08                        	jmp	0x10000fe4 <.text.vfprintf+0x252>
10000fdc: 89 8d 74 ff ff ff            	mov	dword ptr [ebp - 140], ecx
10000fe2: 31 c0                        	xor	eax, eax
10000fe4: 8b 7d 0c                     	mov	edi, dword ptr [ebp + 12]
10000fe7: 8b 8d 74 ff ff ff            	mov	ecx, dword ptr [ebp - 140]
10000fed: 8a 0c 0f                     	mov	cl, byte ptr [edi + ecx]
10000ff0: 88 4d 8c                     	mov	byte ptr [ebp - 116], cl
10000ff3: 80 f9 78                     	cmp	cl, 120
10000ff6: 0f 8f ba 02 00 00            	jg	0x100012b6 <.text.vfprintf+0x524>
10000ffc: 80 f9 62                     	cmp	cl, 98
10000fff: 7f 13                        	jg	0x10001014 <.text.vfprintf+0x282>
10001001: 80 f9 25                     	cmp	cl, 37
10001004: 74 27                        	je	0x1000102d <.text.vfprintf+0x29b>
10001006: 80 f9 58                     	cmp	cl, 88
10001009: 0f 84 be 02 00 00            	je	0x100012cd <.text.vfprintf+0x53b>
1000100f: e9 a2 02 00 00               	jmp	0x100012b6 <.text.vfprintf+0x524>
10001014: 8b 7d 8c                     	mov	edi, dword ptr [ebp - 116]
10001017: 8d 57 9d                     	lea	edx, [edi - 99]
1000101a: 80 fa 15                     	cmp	dl, 21
1000101d: 0f 87 9a 00 00 00            	ja	0x100010bd <.text.vfprintf+0x32b>
10001023: 0f b6 d2                     	movzx	edx, dl
10001026: ff 24 95 e4 19 00 10         	jmp	dword ptr [4*edx + 268442084]
1000102d: 50                           	push	eax
1000102e: 50                           	push	eax
1000102f: ff 75 08                     	push	dword ptr [ebp + 8]
10001032: 6a 25                        	push	37
10001034: e8 85 fb ff ff               	call	0x10000bbe <.text.fputc>
10001039: ff 85 7c ff ff ff            	inc	dword ptr [ebp - 132]
1000103f: 83 c4 10                     	add	esp, 16
10001042: e9 43 02 00 00               	jmp	0x1000128a <.text.vfprintf+0x4f8>
10001047: 8b 13                        	mov	edx, dword ptr [ebx]
10001049: 3c 74                        	cmp	al, 116
1000104b: 7f 44                        	jg	0x10001091 <.text.vfprintf+0x2ff>
1000104d: 3c 67                        	cmp	al, 103
1000104f: 7f 0e                        	jg	0x1000105f <.text.vfprintf+0x2cd>
10001051: 3c 48                        	cmp	al, 72
10001053: 75 3c                        	jne	0x10001091 <.text.vfprintf+0x2ff>
10001055: 8a 85 7c ff ff ff            	mov	al, byte ptr [ebp - 132]
1000105b: 88 02                        	mov	byte ptr [edx], al
1000105d: eb 1a                        	jmp	0x10001079 <.text.vfprintf+0x2e7>
1000105f: 83 e8 68                     	sub	eax, 104
10001062: 3c 0c                        	cmp	al, 12
10001064: 77 2b                        	ja	0x10001091 <.text.vfprintf+0x2ff>
10001066: 0f b6 c0                     	movzx	eax, al
10001069: ff 24 85 3c 1a 00 10         	jmp	dword ptr [4*eax + 268442172]
10001070: 8b 85 7c ff ff ff            	mov	eax, dword ptr [ebp - 132]
10001076: 66 89 02                     	mov	word ptr [edx], ax
10001079: 83 c3 04                     	add	ebx, 4
1000107c: e9 09 02 00 00               	jmp	0x1000128a <.text.vfprintf+0x4f8>
10001081: 8b 85 7c ff ff ff            	mov	eax, dword ptr [ebp - 132]
10001087: 89 02                        	mov	dword ptr [edx], eax
10001089: c1 f8 1f                     	sar	eax, 31
1000108c: 89 42 04                     	mov	dword ptr [edx + 4], eax
1000108f: eb e8                        	jmp	0x10001079 <.text.vfprintf+0x2e7>
10001091: 8b 85 7c ff ff ff            	mov	eax, dword ptr [ebp - 132]
10001097: 89 02                        	mov	dword ptr [edx], eax
10001099: eb de                        	jmp	0x10001079 <.text.vfprintf+0x2e7>
1000109b: 8b 03                        	mov	eax, dword ptr [ebx]
1000109d: c6 45 a8 00                  	mov	byte ptr [ebp - 88], 0
100010a1: 83 c3 04                     	add	ebx, 4
100010a4: 8d 75 a7                     	lea	esi, [ebp - 89]
100010a7: c6 45 8c 00                  	mov	byte ptr [ebp - 116], 0
100010ab: 88 45 a7                     	mov	byte ptr [ebp - 89], al
100010ae: eb 16                        	jmp	0x100010c6 <.text.vfprintf+0x334>
100010b0: 8b 33                        	mov	esi, dword ptr [ebx]
100010b2: 83 c3 04                     	add	ebx, 4
100010b5: 83 7d 88 ff                  	cmp	dword ptr [ebp - 120], -1
100010b9: 75 2c                        	jne	0x100010e7 <.text.vfprintf+0x355>
100010bb: eb 05                        	jmp	0x100010c2 <.text.vfprintf+0x330>
100010bd: be 71 19 00 10               	mov	esi, 268441969
100010c2: c6 45 8c 00                  	mov	byte ptr [ebp - 116], 0
100010c6: c6 85 7b ff ff ff 00         	mov	byte ptr [ebp - 133], 0
100010cd: 31 ff                        	xor	edi, edi
100010cf: 83 ec 0c                     	sub	esp, 12
100010d2: 56                           	push	esi
100010d3: e8 d1 f5 ff ff               	call	0x100006a9 <.text.strlen>
100010d8: c7 45 80 ff ff ff ff         	mov	dword ptr [ebp - 128], 4294967295
100010df: 83 c4 10                     	add	esp, 16
100010e2: 89 45 88                     	mov	dword ptr [ebp - 120], eax
100010e5: eb 13                        	jmp	0x100010fa <.text.vfprintf+0x368>
100010e7: 8b 45 88                     	mov	eax, dword ptr [ebp - 120]
100010ea: c6 45 8c 00                  	mov	byte ptr [ebp - 116], 0
100010ee: 31 ff                        	xor	edi, edi
100010f0: c6 85 7b ff ff ff 00         	mov	byte ptr [ebp - 133], 0
100010f7: 89 45 80                     	mov	dword ptr [ebp - 128], eax
100010fa: 8b 8d 6c ff ff ff            	mov	ecx, dword ptr [ebp - 148]
10001100: 8b 45 88                     	mov	eax, dword ptr [ebp - 120]
10001103: 29 c1                        	sub	ecx, eax
10001105: 80 bd 7b ff ff ff 01         	cmp	byte ptr [ebp - 133], 1
1000110c: 83 d1 ff                     	adc	ecx, -1
1000110f: 80 7d 8c 00                  	cmp	byte ptr [ebp - 116], 0
10001113: 0f 95 c0                     	setne	al
10001116: 31 d2                        	xor	edx, edx
10001118: 22 85 68 ff ff ff            	and	al, byte ptr [ebp - 152]
1000111e: 88 85 6c ff ff ff            	mov	byte ptr [ebp - 148], al
10001124: 74 0a                        	je	0x10001130 <.text.vfprintf+0x39e>
10001126: 31 d2                        	xor	edx, edx
10001128: 80 7d 8c 6f                  	cmp	byte ptr [ebp - 116], 111
1000112c: 0f 95 c2                     	setne	dl
1000112f: 42                           	inc	edx
10001130: 29 d1                        	sub	ecx, edx
10001132: 80 bd 64 ff ff ff 01         	cmp	byte ptr [ebp - 156], 1
10001139: 89 4d 88                     	mov	dword ptr [ebp - 120], ecx
1000113c: 74 2a                        	je	0x10001168 <.text.vfprintf+0x3d6>
1000113e: 80 bd 70 ff ff ff 00         	cmp	byte ptr [ebp - 144], 0
10001145: 74 13                        	je	0x1000115a <.text.vfprintf+0x3c8>
10001147: 89 f8                        	mov	eax, edi
10001149: ba 89 19 00 10               	mov	edx, 268441993
1000114e: 84 c0                        	test	al, al
10001150: b8 81 19 00 10               	mov	eax, 268441985
10001155: 0f 44 c2                     	cmove	eax, edx
10001158: eb 13                        	jmp	0x1000116d <.text.vfprintf+0x3db>
1000115a: 80 bd 64 ff ff ff 00         	cmp	byte ptr [ebp - 156], 0
10001161: b8 89 19 00 10               	mov	eax, 268441993
10001166: 74 05                        	je	0x1000116d <.text.vfprintf+0x3db>
10001168: b8 85 19 00 10               	mov	eax, 268441989
1000116d: 89 85 70 ff ff ff            	mov	dword ptr [ebp - 144], eax
10001173: 0f be 45 8c                  	movsx	eax, byte ptr [ebp - 116]
10001177: 89 85 68 ff ff ff            	mov	dword ptr [ebp - 152], eax
1000117d: 8b 85 70 ff ff ff            	mov	eax, dword ptr [ebp - 144]
10001183: 8a 00                        	mov	al, byte ptr [eax]
10001185: 84 c0                        	test	al, al
10001187: 0f 84 fd 00 00 00            	je	0x1000128a <.text.vfprintf+0x4f8>
1000118d: 3c 73                        	cmp	al, 115
1000118f: 75 61                        	jne	0x100011f2 <.text.vfprintf+0x460>
10001191: 80 bd 7b ff ff ff 00         	cmp	byte ptr [ebp - 133], 0
10001198: 8b bd 7c ff ff ff            	mov	edi, dword ptr [ebp - 132]
1000119e: 74 16                        	je	0x100011b6 <.text.vfprintf+0x424>
100011a0: 50                           	push	eax
100011a1: 47                           	inc	edi
100011a2: 50                           	push	eax
100011a3: ff 75 08                     	push	dword ptr [ebp + 8]
100011a6: 0f be 85 7b ff ff ff         	movsx	eax, byte ptr [ebp - 133]
100011ad: 50                           	push	eax
100011ae: e8 0b fa ff ff               	call	0x10000bbe <.text.fputc>
100011b3: 83 c4 10                     	add	esp, 16
100011b6: 80 bd 6c ff ff ff 00         	cmp	byte ptr [ebp - 148], 0
100011bd: 0f 84 b6 00 00 00            	je	0x10001279 <.text.vfprintf+0x4e7>
100011c3: 80 7d 8c 6f                  	cmp	byte ptr [ebp - 116], 111
100011c7: 74 10                        	je	0x100011d9 <.text.vfprintf+0x447>
100011c9: 50                           	push	eax
100011ca: 47                           	inc	edi
100011cb: 50                           	push	eax
100011cc: ff 75 08                     	push	dword ptr [ebp + 8]
100011cf: 6a 30                        	push	48
100011d1: e8 e8 f9 ff ff               	call	0x10000bbe <.text.fputc>
100011d6: 83 c4 10                     	add	esp, 16
100011d9: 51                           	push	ecx
100011da: 47                           	inc	edi
100011db: 51                           	push	ecx
100011dc: ff 75 08                     	push	dword ptr [ebp + 8]
100011df: ff b5 68 ff ff ff            	push	dword ptr [ebp - 152]
100011e5: e8 d4 f9 ff ff               	call	0x10000bbe <.text.fputc>
100011ea: 83 c4 10                     	add	esp, 16
100011ed: e9 87 00 00 00               	jmp	0x10001279 <.text.vfprintf+0x4e7>
100011f2: 3c 64                        	cmp	al, 100
100011f4: 74 08                        	je	0x100011fe <.text.vfprintf+0x46c>
100011f6: 8b 55 88                     	mov	edx, dword ptr [ebp - 120]
100011f9: 0f be f8                     	movsx	edi, al
100011fc: eb 3d                        	jmp	0x1000123b <.text.vfprintf+0x4a9>
100011fe: 31 d2                        	xor	edx, edx
10001200: 8b 85 7c ff ff ff            	mov	eax, dword ptr [ebp - 132]
10001206: 8d 3c 10                     	lea	edi, [eax + edx]
10001209: 0f be 04 16                  	movsx	eax, byte ptr [esi + edx]
1000120d: 84 c0                        	test	al, al
1000120f: 74 68                        	je	0x10001279 <.text.vfprintf+0x4e7>
10001211: 83 7d 80 ff                  	cmp	dword ptr [ebp - 128], -1
10001215: 75 1d                        	jne	0x10001234 <.text.vfprintf+0x4a2>
10001217: 89 95 64 ff ff ff            	mov	dword ptr [ebp - 156], edx
1000121d: 52                           	push	edx
1000121e: 52                           	push	edx
1000121f: ff 75 08                     	push	dword ptr [ebp + 8]
10001222: 50                           	push	eax
10001223: e8 96 f9 ff ff               	call	0x10000bbe <.text.fputc>
10001228: 8b 95 64 ff ff ff            	mov	edx, dword ptr [ebp - 156]
1000122e: 83 c4 10                     	add	esp, 16
10001231: 42                           	inc	edx
10001232: eb cc                        	jmp	0x10001200 <.text.vfprintf+0x46e>
10001234: 39 55 80                     	cmp	dword ptr [ebp - 128], edx
10001237: 7f de                        	jg	0x10001217 <.text.vfprintf+0x485>
10001239: eb 3e                        	jmp	0x10001279 <.text.vfprintf+0x4e7>
1000123b: 85 d2                        	test	edx, edx
1000123d: 7e 1d                        	jle	0x1000125c <.text.vfprintf+0x4ca>
1000123f: 89 95 64 ff ff ff            	mov	dword ptr [ebp - 156], edx
10001245: 50                           	push	eax
10001246: 50                           	push	eax
10001247: ff 75 08                     	push	dword ptr [ebp + 8]
1000124a: 57                           	push	edi
1000124b: e8 6e f9 ff ff               	call	0x10000bbe <.text.fputc>
10001250: 8b 95 64 ff ff ff            	mov	edx, dword ptr [ebp - 156]
10001256: 83 c4 10                     	add	esp, 16
10001259: 4a                           	dec	edx
1000125a: eb df                        	jmp	0x1000123b <.text.vfprintf+0x4a9>
1000125c: 8b 4d 88                     	mov	ecx, dword ptr [ebp - 120]
1000125f: 31 c0                        	xor	eax, eax
10001261: 83 7d 88 00                  	cmp	dword ptr [ebp - 120], 0
10001265: 0f 49 45 88                  	cmovns	eax, dword ptr [ebp - 120]
10001269: 8b bd 7c ff ff ff            	mov	edi, dword ptr [ebp - 132]
1000126f: 8d 51 ff                     	lea	edx, [ecx - 1]
10001272: 29 c2                        	sub	edx, eax
10001274: 01 c7                        	add	edi, eax
10001276: 89 55 88                     	mov	dword ptr [ebp - 120], edx
10001279: ff 85 70 ff ff ff            	inc	dword ptr [ebp - 144]
1000127f: 89 bd 7c ff ff ff            	mov	dword ptr [ebp - 132], edi
10001285: e9 f3 fe ff ff               	jmp	0x1000117d <.text.vfprintf+0x3eb>
1000128a: ff 85 74 ff ff ff            	inc	dword ptr [ebp - 140]
10001290: e9 25 fb ff ff               	jmp	0x10000dba <.text.vfprintf+0x28>
10001295: 88 95 70 ff ff ff            	mov	byte ptr [ebp - 144], dl
1000129b: 8a 95 68 ff ff ff            	mov	dl, byte ptr [ebp - 152]
100012a1: 88 95 68 ff ff ff            	mov	byte ptr [ebp - 152], dl
100012a7: e9 91 fb ff ff               	jmp	0x10000e3d <.text.vfprintf+0xab>
100012ac: c6 45 8c 00                  	mov	byte ptr [ebp - 116], 0
100012b0: 83 7d 88 ff                  	cmp	dword ptr [ebp - 120], -1
100012b4: eb 1b                        	jmp	0x100012d1 <.text.vfprintf+0x53f>
100012b6: c6 45 8c 00                  	mov	byte ptr [ebp - 116], 0
100012ba: 31 ff                        	xor	edi, edi
100012bc: be 71 19 00 10               	mov	esi, 268441969
100012c1: c6 85 7b ff ff ff 00         	mov	byte ptr [ebp - 133], 0
100012c8: e9 02 fe ff ff               	jmp	0x100010cf <.text.vfprintf+0x33d>
100012cd: 83 7d 88 ff                  	cmp	dword ptr [ebp - 120], -1
100012d1: 0f 85 70 01 00 00            	jne	0x10001447 <.text.vfprintf+0x6b5>
100012d7: c7 45 88 01 00 00 00         	mov	dword ptr [ebp - 120], 1
100012de: 3c 74                        	cmp	al, 116
100012e0: 7f 64                        	jg	0x10001346 <.text.vfprintf+0x5b4>
100012e2: 3c 67                        	cmp	al, 103
100012e4: 7f 09                        	jg	0x100012ef <.text.vfprintf+0x55d>
100012e6: 3c 48                        	cmp	al, 72
100012e8: 75 5c                        	jne	0x10001346 <.text.vfprintf+0x5b4>
100012ea: 0f b6 03                     	movzx	eax, byte ptr [ebx]
100012ed: eb 14                        	jmp	0x10001303 <.text.vfprintf+0x571>
100012ef: 83 e8 68                     	sub	eax, 104
100012f2: 3c 0c                        	cmp	al, 12
100012f4: 77 50                        	ja	0x10001346 <.text.vfprintf+0x5b4>
100012f6: 0f b6 c0                     	movzx	eax, al
100012f9: ff 24 85 70 1a 00 10         	jmp	dword ptr [4*eax + 268442224]
10001300: 0f b7 03                     	movzx	eax, word ptr [ebx]
10001303: 31 ff                        	xor	edi, edi
10001305: 89 45 80                     	mov	dword ptr [ebp - 128], eax
10001308: 89 7d 84                     	mov	dword ptr [ebp - 124], edi
1000130b: eb 43                        	jmp	0x10001350 <.text.vfprintf+0x5be>
1000130d: 8b 03                        	mov	eax, dword ptr [ebx]
1000130f: 8b 53 04                     	mov	edx, dword ptr [ebx + 4]
10001312: 83 c3 08                     	add	ebx, 8
10001315: 89 45 80                     	mov	dword ptr [ebp - 128], eax
10001318: 89 55 84                     	mov	dword ptr [ebp - 124], edx
1000131b: eb 36                        	jmp	0x10001353 <.text.vfprintf+0x5c1>
1000131d: 8b 03                        	mov	eax, dword ptr [ebx]
1000131f: 89 45 80                     	mov	dword ptr [ebp - 128], eax
10001322: c1 f8 1f                     	sar	eax, 31
10001325: 89 45 84                     	mov	dword ptr [ebp - 124], eax
10001328: eb 26                        	jmp	0x10001350 <.text.vfprintf+0x5be>
1000132a: 83 7d 88 ff                  	cmp	dword ptr [ebp - 120], -1
1000132e: c6 85 68 ff ff ff 01         	mov	byte ptr [ebp - 152], 1
10001335: c6 45 8c 78                  	mov	byte ptr [ebp - 116], 120
10001339: 0f 85 8d 01 00 00            	jne	0x100014cc <.text.vfprintf+0x73a>
1000133f: c7 45 88 01 00 00 00         	mov	dword ptr [ebp - 120], 1
10001346: 8b 03                        	mov	eax, dword ptr [ebx]
10001348: 31 d2                        	xor	edx, edx
1000134a: 89 55 84                     	mov	dword ptr [ebp - 124], edx
1000134d: 89 45 80                     	mov	dword ptr [ebp - 128], eax
10001350: 83 c3 04                     	add	ebx, 4
10001353: 8a 85 58 ff ff ff            	mov	al, byte ptr [ebp - 168]
10001359: c6 85 7b ff ff ff 2b         	mov	byte ptr [ebp - 133], 43
10001360: 84 c0                        	test	al, al
10001362: 75 0b                        	jne	0x1000136f <.text.vfprintf+0x5dd>
10001364: 89 f0                        	mov	eax, esi
10001366: c1 e0 05                     	shl	eax, 5
10001369: 88 85 7b ff ff ff            	mov	byte ptr [ebp - 133], al
1000136f: 8d 45 a7                     	lea	eax, [ebp - 89]
10001372: 51                           	push	ecx
10001373: 8d 7d c7                     	lea	edi, [ebp - 57]
10001376: be 8d 19 00 10               	mov	esi, 268441997
1000137b: 6a 20                        	push	32
1000137d: 6a 00                        	push	0
1000137f: 50                           	push	eax
10001380: e8 ef f2 ff ff               	call	0x10000674 <.text.memset>
10001385: 83 c4 10                     	add	esp, 16
10001388: 80 7d 8c 00                  	cmp	byte ptr [ebp - 116], 0
1000138c: b9 21 00 00 00               	mov	ecx, 33
10001391: f3 a4                        	rep		movsb	byte ptr es:[edi], byte ptr [esi]
10001393: b8 0a 00 00 00               	mov	eax, 10
10001398: 74 10                        	je	0x100013aa <.text.vfprintf+0x618>
1000139a: 31 c0                        	xor	eax, eax
1000139c: 80 7d 8c 6f                  	cmp	byte ptr [ebp - 116], 111
100013a0: 0f 95 c0                     	setne	al
100013a3: 8d 04 c5 08 00 00 00         	lea	eax, [8*eax + 8]
100013aa: 31 c9                        	xor	ecx, ecx
100013ac: 80 7d 8c 78                  	cmp	byte ptr [ebp - 116], 120
100013b0: 89 85 50 ff ff ff            	mov	dword ptr [ebp - 176], eax
100013b6: 0f 94 c1                     	sete	cl
100013b9: 31 ff                        	xor	edi, edi
100013bb: c1 f8 1f                     	sar	eax, 31
100013be: 89 ce                        	mov	esi, ecx
100013c0: 89 85 54 ff ff ff            	mov	dword ptr [ebp - 172], eax
100013c6: 0f a4 f7 04                  	shld	edi, esi, 4
100013ca: c1 e6 04                     	shl	esi, 4
100013cd: 89 bd 5c ff ff ff            	mov	dword ptr [ebp - 164], edi
100013d3: 89 b5 58 ff ff ff            	mov	dword ptr [ebp - 168], esi
100013d9: be 1f 00 00 00               	mov	esi, 31
100013de: 8b 45 88                     	mov	eax, dword ptr [ebp - 120]
100013e1: 8b 55 84                     	mov	edx, dword ptr [ebp - 124]
100013e4: 8d 4c 06 e1                  	lea	ecx, [esi + eax - 31]
100013e8: 8b 45 80                     	mov	eax, dword ptr [ebp - 128]
100013eb: 09 d0                        	or	eax, edx
100013ed: 74 46                        	je	0x10001435 <.text.vfprintf+0x6a3>
100013ef: 83 ec 0c                     	sub	esp, 12
100013f2: 8d 45 90                     	lea	eax, [ebp - 112]
100013f5: 4e                           	dec	esi
100013f6: 50                           	push	eax
100013f7: ff b5 54 ff ff ff            	push	dword ptr [ebp - 172]
100013fd: ff b5 50 ff ff ff            	push	dword ptr [ebp - 176]
10001403: ff 75 84                     	push	dword ptr [ebp - 124]
10001406: ff 75 80                     	push	dword ptr [ebp - 128]
10001409: e8 12 ec ff ff               	call	0x10000020 <.text+0x20>
1000140e: 83 c4 20                     	add	esp, 32
10001411: 89 45 80                     	mov	dword ptr [ebp - 128], eax
10001414: 8b 85 58 ff ff ff            	mov	eax, dword ptr [ebp - 168]
1000141a: 03 45 90                     	add	eax, dword ptr [ebp - 112]
1000141d: 89 55 84                     	mov	dword ptr [ebp - 124], edx
10001420: 89 c2                        	mov	edx, eax
10001422: b8 e8 ff ff ff               	mov	eax, 4294967272
10001427: 01 d0                        	add	eax, edx
10001429: 8d 0c 28                     	lea	ecx, [eax + ebp]
1000142c: 8a 49 df                     	mov	cl, byte ptr [ecx - 33]
1000142f: 88 4c 35 a7                  	mov	byte ptr [ebp + esi - 89], cl
10001433: eb a9                        	jmp	0x100013de <.text.vfprintf+0x64c>
10001435: 85 c9                        	test	ecx, ecx
10001437: 7f b6                        	jg	0x100013ef <.text.vfprintf+0x65d>
10001439: 8d 74 35 a7                  	lea	esi, [ebp + esi - 89]
1000143d: bf 01 00 00 00               	mov	edi, 1
10001442: e9 88 fc ff ff               	jmp	0x100010cf <.text.vfprintf+0x33d>
10001447: c6 85 70 ff ff ff 00         	mov	byte ptr [ebp - 144], 0
1000144e: e9 8b fe ff ff               	jmp	0x100012de <.text.vfprintf+0x54c>
10001453: 83 7d 88 ff                  	cmp	dword ptr [ebp - 120], -1
10001457: c6 45 8c 00                  	mov	byte ptr [ebp - 116], 0
1000145b: 75 66                        	jne	0x100014c3 <.text.vfprintf+0x731>
1000145d: c7 45 88 01 00 00 00         	mov	dword ptr [ebp - 120], 1
10001464: 3c 74                        	cmp	al, 116
10001466: 7f 2d                        	jg	0x10001495 <.text.vfprintf+0x703>
10001468: 3c 67                        	cmp	al, 103
1000146a: 7f 09                        	jg	0x10001475 <.text.vfprintf+0x6e3>
1000146c: 3c 48                        	cmp	al, 72
1000146e: 75 25                        	jne	0x10001495 <.text.vfprintf+0x703>
10001470: 0f be 03                     	movsx	eax, byte ptr [ebx]
10001473: eb 22                        	jmp	0x10001497 <.text.vfprintf+0x705>
10001475: 83 e8 68                     	sub	eax, 104
10001478: 3c 0c                        	cmp	al, 12
1000147a: 77 19                        	ja	0x10001495 <.text.vfprintf+0x703>
1000147c: 0f b6 c0                     	movzx	eax, al
1000147f: ff 24 85 a4 1a 00 10         	jmp	dword ptr [4*eax + 268442276]
10001486: 0f bf 03                     	movsx	eax, word ptr [ebx]
10001489: eb 0c                        	jmp	0x10001497 <.text.vfprintf+0x705>
1000148b: 8b 03                        	mov	eax, dword ptr [ebx]
1000148d: 8b 53 04                     	mov	edx, dword ptr [ebx + 4]
10001490: 83 c3 08                     	add	ebx, 8
10001493: eb 06                        	jmp	0x1000149b <.text.vfprintf+0x709>
10001495: 8b 03                        	mov	eax, dword ptr [ebx]
10001497: 99                           	cdq
10001498: 83 c3 04                     	add	ebx, 4
1000149b: 85 d2                        	test	edx, edx
1000149d: 78 0b                        	js	0x100014aa <.text.vfprintf+0x718>
1000149f: 89 45 80                     	mov	dword ptr [ebp - 128], eax
100014a2: 89 55 84                     	mov	dword ptr [ebp - 124], edx
100014a5: e9 a9 fe ff ff               	jmp	0x10001353 <.text.vfprintf+0x5c1>
100014aa: f7 d8                        	neg	eax
100014ac: c6 85 7b ff ff ff 2d         	mov	byte ptr [ebp - 133], 45
100014b3: 83 d2 00                     	adc	edx, 0
100014b6: 89 45 80                     	mov	dword ptr [ebp - 128], eax
100014b9: f7 da                        	neg	edx
100014bb: 89 55 84                     	mov	dword ptr [ebp - 124], edx
100014be: e9 ac fe ff ff               	jmp	0x1000136f <.text.vfprintf+0x5dd>
100014c3: c6 85 70 ff ff ff 00         	mov	byte ptr [ebp - 144], 0
100014ca: eb 98                        	jmp	0x10001464 <.text.vfprintf+0x6d2>
100014cc: c6 85 70 ff ff ff 00         	mov	byte ptr [ebp - 144], 0
100014d3: e9 6e fe ff ff               	jmp	0x10001346 <.text.vfprintf+0x5b4>
100014d8: 8b 45 08                     	mov	eax, dword ptr [ebp + 8]
100014db: 8b 75 08                     	mov	esi, dword ptr [ebp + 8]
100014de: 8b 40 40                     	mov	eax, dword ptr [eax + 64]
100014e1: 48                           	dec	eax
100014e2: 89 46 40                     	mov	dword ptr [esi + 64], eax
100014e5: 8b 85 7c ff ff ff            	mov	eax, dword ptr [ebp - 132]
100014eb: 8d 65 f4                     	lea	esp, [ebp - 12]
100014ee: 5b                           	pop	ebx
100014ef: 5e                           	pop	esi
100014f0: 5f                           	pop	edi
100014f1: 5d                           	pop	ebp
100014f2: c3                           	ret

Disassembly of section .text.vsnprintf:

100014f3 <.text.vsnprintf>:
100014f3: 55                           	push	ebp
100014f4: 89 e5                        	mov	ebp, esp
100014f6: 57                           	push	edi
100014f7: 56                           	push	esi
100014f8: 53                           	push	ebx
100014f9: 83 ec 10                     	sub	esp, 16
100014fc: 8b 45 0c                     	mov	eax, dword ptr [ebp + 12]
100014ff: 68 d8 1a 00 10               	push	268442328
10001504: 8d 78 ff                     	lea	edi, [eax - 1]
10001507: 57                           	push	edi
10001508: ff 75 08                     	push	dword ptr [ebp + 8]
1000150b: e8 a1 f3 ff ff               	call	0x100008b1 <.text.fmemopen>
10001510: 83 c4 10                     	add	esp, 16
10001513: 85 c0                        	test	eax, eax
10001515: 74 2a                        	je	0x10001541 <.text.vsnprintf+0x4e>
10001517: 89 c6                        	mov	esi, eax
10001519: 50                           	push	eax
1000151a: ff 75 14                     	push	dword ptr [ebp + 20]
1000151d: ff 75 10                     	push	dword ptr [ebp + 16]
10001520: 56                           	push	esi
10001521: e8 6c f8 ff ff               	call	0x10000d92 <.text.vfprintf>
10001526: 89 34 24                     	mov	dword ptr [esp], esi
10001529: 89 c3                        	mov	ebx, eax
1000152b: e8 1a f6 ff ff               	call	0x10000b4a <.text.fclose>
10001530: 83 c4 10                     	add	esp, 16
10001533: 83 fb ff                     	cmp	ebx, -1
10001536: 74 09                        	je	0x10001541 <.text.vsnprintf+0x4e>
10001538: 85 c0                        	test	eax, eax
1000153a: 74 0a                        	je	0x10001546 <.text.vsnprintf+0x53>
1000153c: a3 f0 1a 00 10               	mov	dword ptr [268442352], eax
10001541: 83 cb ff                     	or	ebx, -1
10001544: eb 0f                        	jmp	0x10001555 <.text.vsnprintf+0x62>
10001546: 39 df                        	cmp	edi, ebx
10001548: 7f 0b                        	jg	0x10001555 <.text.vsnprintf+0x62>
1000154a: 8b 45 08                     	mov	eax, dword ptr [ebp + 8]
1000154d: 8b 55 0c                     	mov	edx, dword ptr [ebp + 12]
10001550: c6 44 10 ff 00               	mov	byte ptr [eax + edx - 1], 0
10001555: 8d 65 f4                     	lea	esp, [ebp - 12]
10001558: 89 d8                        	mov	eax, ebx
1000155a: 5b                           	pop	ebx
1000155b: 5e                           	pop	esi
1000155c: 5f                           	pop	edi
1000155d: 5d                           	pop	ebp
1000155e: c3                           	ret

Disassembly of section .text.vsprintf:

1000155f <.text.vsprintf>:
1000155f: 55                           	push	ebp
10001560: 89 e5                        	mov	ebp, esp
10001562: 83 ec 08                     	sub	esp, 8
10001565: ff 75 10                     	push	dword ptr [ebp + 16]
10001568: ff 75 0c                     	push	dword ptr [ebp + 12]
1000156b: 68 ff ff ff 7f               	push	2147483647
10001570: ff 75 08                     	push	dword ptr [ebp + 8]
10001573: e8 7b ff ff ff               	call	0x100014f3 <.text.vsnprintf>
10001578: c9                           	leave
10001579: c3                           	ret

Disassembly of section .text.vprintf:

1000157a <.text.vprintf>:
1000157a: 55                           	push	ebp
1000157b: 89 e5                        	mov	ebp, esp
1000157d: 83 ec 0c                     	sub	esp, 12
10001580: ff 75 0c                     	push	dword ptr [ebp + 12]
10001583: ff 75 08                     	push	dword ptr [ebp + 8]
10001586: ff 35 e0 1a 00 10            	push	dword ptr [268442336]
1000158c: e8 01 f8 ff ff               	call	0x10000d92 <.text.vfprintf>
10001591: c9                           	leave
10001592: c3                           	ret

Disassembly of section .text.fprintf:

10001593 <.text.fprintf>:
10001593: 55                           	push	ebp
10001594: 89 e5                        	mov	ebp, esp
10001596: 83 ec 0c                     	sub	esp, 12
10001599: 8d 45 10                     	lea	eax, [ebp + 16]
1000159c: 50                           	push	eax
1000159d: ff 75 0c                     	push	dword ptr [ebp + 12]
100015a0: ff 75 08                     	push	dword ptr [ebp + 8]
100015a3: e8 ea f7 ff ff               	call	0x10000d92 <.text.vfprintf>
100015a8: c9                           	leave
100015a9: c3                           	ret

Disassembly of section .text.printf:

100015aa <.text.printf>:
100015aa: 55                           	push	ebp
100015ab: 89 e5                        	mov	ebp, esp
100015ad: 83 ec 10                     	sub	esp, 16
100015b0: 8d 45 0c                     	lea	eax, [ebp + 12]
100015b3: 50                           	push	eax
100015b4: ff 75 08                     	push	dword ptr [ebp + 8]
100015b7: e8 be ff ff ff               	call	0x1000157a <.text.vprintf>
100015bc: c9                           	leave
100015bd: c3                           	ret

Disassembly of section .text.sprintf:

100015be <.text.sprintf>:
100015be: 55                           	push	ebp
100015bf: 89 e5                        	mov	ebp, esp
100015c1: 83 ec 0c                     	sub	esp, 12
100015c4: 8d 45 10                     	lea	eax, [ebp + 16]
100015c7: 50                           	push	eax
100015c8: ff 75 0c                     	push	dword ptr [ebp + 12]
100015cb: ff 75 08                     	push	dword ptr [ebp + 8]
100015ce: e8 8c ff ff ff               	call	0x1000155f <.text.vsprintf>
100015d3: c9                           	leave
100015d4: c3                           	ret

Disassembly of section .text.exit:

100015d5 <.text.exit>:
100015d5: 55                           	push	ebp
100015d6: 89 e5                        	mov	ebp, esp
100015d8: 83 ec 14                     	sub	esp, 20
100015db: 6a 00                        	push	0
100015dd: e8 cf f4 ff ff               	call	0x10000ab1 <.text.fflush>
100015e2: 83 c4 10                     	add	esp, 16
100015e5: 83 ec 0c                     	sub	esp, 12
100015e8: 6a 00                        	push	0
100015ea: 6a 00                        	push	0
100015ec: 6a 00                        	push	0
100015ee: 6a 00                        	push	0
100015f0: 6a 00                        	push	0
100015f2: e8 09 ea ff ff               	call	0x10000000 <.text>
100015f7: 83 c4 20                     	add	esp, 32
100015fa: eb e9                        	jmp	0x100015e5 <.text.exit+0x10>

Disassembly of section .text.malloc:

100015fc <.text.malloc>:
100015fc: 55                           	push	ebp
100015fd: 89 e5                        	mov	ebp, esp
100015ff: 53                           	push	ebx
10001600: 83 ec 14                     	sub	esp, 20
10001603: 8b 45 08                     	mov	eax, dword ptr [ebp + 8]
10001606: 85 c0                        	test	eax, eax
10001608: 75 0c                        	jne	0x10001616 <.text.malloc+0x1a>
1000160a: c7 05 f0 1a 00 10 02 00 00 00	mov	dword ptr [268442352], 2
10001614: eb 40                        	jmp	0x10001656 <.text.malloc+0x5a>
10001616: 89 c3                        	mov	ebx, eax
10001618: f7 db                        	neg	ebx
1000161a: 83 e3 0f                     	and	ebx, 15
1000161d: 01 c3                        	add	ebx, eax
1000161f: a1 ec 1a 00 10               	mov	eax, dword ptr [268442348]
10001624: 85 c0                        	test	eax, eax
10001626: 74 0a                        	je	0x10001632 <.text.malloc+0x36>
10001628: 01 d8                        	add	eax, ebx
1000162a: 3b 05 e8 1a 00 10            	cmp	eax, dword ptr [268442344]
10001630: 72 38                        	jb	0x1000166a <.text.malloc+0x6e>
10001632: 83 ec 0c                     	sub	esp, 12
10001635: 8d 45 f4                     	lea	eax, [ebp - 12]
10001638: 50                           	push	eax
10001639: 8d 45 f0                     	lea	eax, [ebp - 16]
1000163c: 50                           	push	eax
1000163d: 8d 04 1b                     	lea	eax, [ebx + ebx]
10001640: 6a 00                        	push	0
10001642: 50                           	push	eax
10001643: 6a 07                        	push	7
10001645: e8 b6 e9 ff ff               	call	0x10000000 <.text>
1000164a: 83 c4 20                     	add	esp, 32
1000164d: 85 c0                        	test	eax, eax
1000164f: 74 09                        	je	0x1000165a <.text.malloc+0x5e>
10001651: a3 f0 1a 00 10               	mov	dword ptr [268442352], eax
10001656: 31 c0                        	xor	eax, eax
10001658: eb 1d                        	jmp	0x10001677 <.text.malloc+0x7b>
1000165a: 8b 45 f0                     	mov	eax, dword ptr [ebp - 16]
1000165d: a3 ec 1a 00 10               	mov	dword ptr [268442348], eax
10001662: 8b 45 f4                     	mov	eax, dword ptr [ebp - 12]
10001665: a3 e8 1a 00 10               	mov	dword ptr [268442344], eax
1000166a: a1 ec 1a 00 10               	mov	eax, dword ptr [268442348]
1000166f: 01 c3                        	add	ebx, eax
10001671: 89 1d ec 1a 00 10            	mov	dword ptr [268442348], ebx
10001677: 8b 5d fc                     	mov	ebx, dword ptr [ebp - 4]
1000167a: c9                           	leave
1000167b: c3                           	ret

Disassembly of section .text.free:

1000167c <.text.free>:
1000167c: c3                           	ret

Disassembly of section .text.open:

1000167d <.text.open>:
1000167d: 55                           	push	ebp
1000167e: 89 e5                        	mov	ebp, esp
10001680: 83 ec 24                     	sub	esp, 36
10001683: 8d 45 f4                     	lea	eax, [ebp - 12]
10001686: 50                           	push	eax
10001687: ff 75 10                     	push	dword ptr [ebp + 16]
1000168a: ff 75 0c                     	push	dword ptr [ebp + 12]
1000168d: ff 75 08                     	push	dword ptr [ebp + 8]
10001690: 6a 02                        	push	2
10001692: e8 69 e9 ff ff               	call	0x10000000 <.text>
10001697: 8b 55 f4                     	mov	edx, dword ptr [ebp - 12]
1000169a: 83 c4 20                     	add	esp, 32
1000169d: 85 c0                        	test	eax, eax
1000169f: 74 08                        	je	0x100016a9 <.text.open+0x2c>
100016a1: a3 f0 1a 00 10               	mov	dword ptr [268442352], eax
100016a6: 83 ca ff                     	or	edx, -1
100016a9: c9                           	leave
100016aa: 89 d0                        	mov	eax, edx
100016ac: c3                           	ret

Disassembly of section .text.isatty:

100016ad <.text.isatty>:
100016ad: 55                           	push	ebp
100016ae: 89 e5                        	mov	ebp, esp
100016b0: 83 ec 14                     	sub	esp, 20
100016b3: 6a 00                        	push	0
100016b5: 6a 00                        	push	0
100016b7: 6a 00                        	push	0
100016b9: ff 75 08                     	push	dword ptr [ebp + 8]
100016bc: 6a 08                        	push	8
100016be: e8 3d e9 ff ff               	call	0x10000000 <.text>
100016c3: 83 c4 20                     	add	esp, 32
100016c6: ba 01 00 00 00               	mov	edx, 1
100016cb: 85 c0                        	test	eax, eax
100016cd: 74 07                        	je	0x100016d6 <.text.isatty+0x29>
100016cf: a3 f0 1a 00 10               	mov	dword ptr [268442352], eax
100016d4: 31 d2                        	xor	edx, edx
100016d6: c9                           	leave
100016d7: 89 d0                        	mov	eax, edx
100016d9: c3                           	ret

Disassembly of section .text.close:

100016da <.text.close>:
100016da: 55                           	push	ebp
100016db: 89 e5                        	mov	ebp, esp
100016dd: 83 ec 14                     	sub	esp, 20
100016e0: 6a 00                        	push	0
100016e2: 6a 00                        	push	0
100016e4: 6a 00                        	push	0
100016e6: ff 75 08                     	push	dword ptr [ebp + 8]
100016e9: 6a 05                        	push	5
100016eb: e8 10 e9 ff ff               	call	0x10000000 <.text>
100016f0: 83 c4 20                     	add	esp, 32
100016f3: 85 c0                        	test	eax, eax
100016f5: 74 08                        	je	0x100016ff <.text.close+0x25>
100016f7: a3 f0 1a 00 10               	mov	dword ptr [268442352], eax
100016fc: 83 c8 ff                     	or	eax, -1
100016ff: c9                           	leave
10001700: c3                           	ret

Disassembly of section .text.read:

10001701 <.text.read>:
10001701: 55                           	push	ebp
10001702: 89 e5                        	mov	ebp, esp
10001704: 83 ec 24                     	sub	esp, 36
10001707: 8d 45 f4                     	lea	eax, [ebp - 12]
1000170a: 50                           	push	eax
1000170b: ff 75 08                     	push	dword ptr [ebp + 8]
1000170e: ff 75 10                     	push	dword ptr [ebp + 16]
10001711: ff 75 0c                     	push	dword ptr [ebp + 12]
10001714: 6a 03                        	push	3
10001716: e8 e5 e8 ff ff               	call	0x10000000 <.text>
1000171b: 8b 55 f4                     	mov	edx, dword ptr [ebp - 12]
1000171e: 83 c4 20                     	add	esp, 32
10001721: 85 c0                        	test	eax, eax
10001723: 74 08                        	je	0x1000172d <.text.read+0x2c>
10001725: a3 f0 1a 00 10               	mov	dword ptr [268442352], eax
1000172a: 83 ca ff                     	or	edx, -1
1000172d: c9                           	leave
1000172e: 89 d0                        	mov	eax, edx
10001730: c3                           	ret

Disassembly of section .text.write:

10001731 <.text.write>:
10001731: 55                           	push	ebp
10001732: 89 e5                        	mov	ebp, esp
10001734: 83 ec 24                     	sub	esp, 36
10001737: 8d 45 f4                     	lea	eax, [ebp - 12]
1000173a: 50                           	push	eax
1000173b: ff 75 08                     	push	dword ptr [ebp + 8]
1000173e: ff 75 10                     	push	dword ptr [ebp + 16]
10001741: ff 75 0c                     	push	dword ptr [ebp + 12]
10001744: 6a 04                        	push	4
10001746: e8 b5 e8 ff ff               	call	0x10000000 <.text>
1000174b: 8b 55 f4                     	mov	edx, dword ptr [ebp - 12]
1000174e: 83 c4 20                     	add	esp, 32
10001751: 85 c0                        	test	eax, eax
10001753: 74 08                        	je	0x1000175d <.text.write+0x2c>
10001755: a3 f0 1a 00 10               	mov	dword ptr [268442352], eax
1000175a: 83 ca ff                     	or	edx, -1
1000175d: c9                           	leave
1000175e: 89 d0                        	mov	eax, edx
10001760: c3                           	ret
