
usertest.exe:     file format elf32-i386


Disassembly of section .text:

10000000 <.text>:
10000000:	55                   	push   ebp
10000001:	89 e5                	mov    ebp,esp
10000003:	53                   	push   ebx
10000004:	51                   	push   ecx
10000005:	56                   	push   esi
10000006:	57                   	push   edi
10000007:	8b 45 08             	mov    eax,DWORD PTR [ebp+0x8]
1000000a:	8b 5d 0c             	mov    ebx,DWORD PTR [ebp+0xc]
1000000d:	8b 4d 10             	mov    ecx,DWORD PTR [ebp+0x10]
10000010:	8b 75 14             	mov    esi,DWORD PTR [ebp+0x14]
10000013:	8b 7d 18             	mov    edi,DWORD PTR [ebp+0x18]
10000016:	cd 60                	int    0x60
10000018:	5f                   	pop    edi
10000019:	5e                   	pop    esi
1000001a:	59                   	pop    ecx
1000001b:	5b                   	pop    ebx
1000001c:	5d                   	pop    ebp
1000001d:	c3                   	ret    
1000001e:	66 90                	xchg   ax,ax
10000020:	55                   	push   ebp
10000021:	57                   	push   edi
10000022:	56                   	push   esi
10000023:	53                   	push   ebx
10000024:	83 ec 2c             	sub    esp,0x2c
10000027:	8b 7c 24 40          	mov    edi,DWORD PTR [esp+0x40]
1000002b:	8b 5c 24 44          	mov    ebx,DWORD PTR [esp+0x44]
1000002f:	8b 74 24 48          	mov    esi,DWORD PTR [esp+0x48]
10000033:	8b 6c 24 4c          	mov    ebp,DWORD PTR [esp+0x4c]
10000037:	89 74 24 0c          	mov    DWORD PTR [esp+0xc],esi
1000003b:	89 f9                	mov    ecx,edi
1000003d:	89 da                	mov    edx,ebx
1000003f:	85 ed                	test   ebp,ebp
10000041:	75 65                	jne    0x100000a8
10000043:	39 de                	cmp    esi,ebx
10000045:	76 31                	jbe    0x10000078
10000047:	89 f8                	mov    eax,edi
10000049:	f7 f6                	div    esi
1000004b:	89 c1                	mov    ecx,eax
1000004d:	c7 44 24 0c 00 00 00 00 	mov    DWORD PTR [esp+0xc],0x0
10000055:	89 c8                	mov    eax,ecx
10000057:	8b 7c 24 50          	mov    edi,DWORD PTR [esp+0x50]
1000005b:	85 ff                	test   edi,edi
1000005d:	74 0d                	je     0x1000006c
1000005f:	8b 7c 24 50          	mov    edi,DWORD PTR [esp+0x50]
10000063:	89 17                	mov    DWORD PTR [edi],edx
10000065:	c7 47 04 00 00 00 00 	mov    DWORD PTR [edi+0x4],0x0
1000006c:	8b 54 24 0c          	mov    edx,DWORD PTR [esp+0xc]
10000070:	83 c4 2c             	add    esp,0x2c
10000073:	5b                   	pop    ebx
10000074:	5e                   	pop    esi
10000075:	5f                   	pop    edi
10000076:	5d                   	pop    ebp
10000077:	c3                   	ret    
10000078:	8b 74 24 0c          	mov    esi,DWORD PTR [esp+0xc]
1000007c:	85 f6                	test   esi,esi
1000007e:	75 0d                	jne    0x1000008d
10000080:	b8 01 00 00 00       	mov    eax,0x1
10000085:	31 d2                	xor    edx,edx
10000087:	f7 f6                	div    esi
10000089:	89 44 24 0c          	mov    DWORD PTR [esp+0xc],eax
1000008d:	31 d2                	xor    edx,edx
1000008f:	89 d8                	mov    eax,ebx
10000091:	8b 74 24 0c          	mov    esi,DWORD PTR [esp+0xc]
10000095:	f7 f6                	div    esi
10000097:	89 c3                	mov    ebx,eax
10000099:	89 f8                	mov    eax,edi
1000009b:	f7 f6                	div    esi
1000009d:	89 c1                	mov    ecx,eax
1000009f:	89 5c 24 0c          	mov    DWORD PTR [esp+0xc],ebx
100000a3:	eb b0                	jmp    0x10000055
100000a5:	8d 76 00             	lea    esi,[esi+0x0]
100000a8:	39 dd                	cmp    ebp,ebx
100000aa:	76 2c                	jbe    0x100000d8
100000ac:	8b 74 24 50          	mov    esi,DWORD PTR [esp+0x50]
100000b0:	85 f6                	test   esi,esi
100000b2:	0f 84 04 01 00 00    	je     0x100001bc
100000b8:	8b 44 24 50          	mov    eax,DWORD PTR [esp+0x50]
100000bc:	89 38                	mov    DWORD PTR [eax],edi
100000be:	89 58 04             	mov    DWORD PTR [eax+0x4],ebx
100000c1:	c7 44 24 0c 00 00 00 00 	mov    DWORD PTR [esp+0xc],0x0
100000c9:	31 c0                	xor    eax,eax
100000cb:	8b 54 24 0c          	mov    edx,DWORD PTR [esp+0xc]
100000cf:	83 c4 2c             	add    esp,0x2c
100000d2:	5b                   	pop    ebx
100000d3:	5e                   	pop    esi
100000d4:	5f                   	pop    edi
100000d5:	5d                   	pop    ebp
100000d6:	c3                   	ret    
100000d7:	90                   	nop
100000d8:	0f bd c5             	bsr    eax,ebp
100000db:	83 f0 1f             	xor    eax,0x1f
100000de:	89 44 24 0c          	mov    DWORD PTR [esp+0xc],eax
100000e2:	75 34                	jne    0x10000118
100000e4:	39 dd                	cmp    ebp,ebx
100000e6:	72 08                	jb     0x100000f0
100000e8:	39 fe                	cmp    esi,edi
100000ea:	0f 87 f4 00 00 00    	ja     0x100001e4
100000f0:	89 da                	mov    edx,ebx
100000f2:	29 f7                	sub    edi,esi
100000f4:	19 ea                	sbb    edx,ebp
100000f6:	89 f9                	mov    ecx,edi
100000f8:	b8 01 00 00 00       	mov    eax,0x1
100000fd:	8b 5c 24 50          	mov    ebx,DWORD PTR [esp+0x50]
10000101:	85 db                	test   ebx,ebx
10000103:	0f 84 63 ff ff ff    	je     0x1000006c
10000109:	8b 7c 24 50          	mov    edi,DWORD PTR [esp+0x50]
1000010d:	89 0f                	mov    DWORD PTR [edi],ecx
1000010f:	89 57 04             	mov    DWORD PTR [edi+0x4],edx
10000112:	e9 55 ff ff ff       	jmp    0x1000006c
10000117:	90                   	nop
10000118:	b8 20 00 00 00       	mov    eax,0x20
1000011d:	89 c2                	mov    edx,eax
1000011f:	8b 44 24 0c          	mov    eax,DWORD PTR [esp+0xc]
10000123:	29 c2                	sub    edx,eax
10000125:	89 54 24 1c          	mov    DWORD PTR [esp+0x1c],edx
10000129:	88 c1                	mov    cl,al
1000012b:	d3 e5                	shl    ebp,cl
1000012d:	89 f0                	mov    eax,esi
1000012f:	88 d1                	mov    cl,dl
10000131:	d3 e8                	shr    eax,cl
10000133:	09 c5                	or     ebp,eax
10000135:	8b 44 24 0c          	mov    eax,DWORD PTR [esp+0xc]
10000139:	88 c1                	mov    cl,al
1000013b:	d3 e6                	shl    esi,cl
1000013d:	89 74 24 14          	mov    DWORD PTR [esp+0x14],esi
10000141:	89 de                	mov    esi,ebx
10000143:	88 d1                	mov    cl,dl
10000145:	d3 ee                	shr    esi,cl
10000147:	88 c1                	mov    cl,al
10000149:	d3 e3                	shl    ebx,cl
1000014b:	89 d8                	mov    eax,ebx
1000014d:	89 fb                	mov    ebx,edi
1000014f:	88 d1                	mov    cl,dl
10000151:	d3 eb                	shr    ebx,cl
10000153:	09 c3                	or     ebx,eax
10000155:	8a 4c 24 0c          	mov    cl,BYTE PTR [esp+0xc]
10000159:	d3 e7                	shl    edi,cl
1000015b:	89 f2                	mov    edx,esi
1000015d:	89 d8                	mov    eax,ebx
1000015f:	f7 f5                	div    ebp
10000161:	89 54 24 10          	mov    DWORD PTR [esp+0x10],edx
10000165:	89 c1                	mov    ecx,eax
10000167:	89 c3                	mov    ebx,eax
10000169:	f7 64 24 14          	mul    DWORD PTR [esp+0x14]
1000016d:	89 c6                	mov    esi,eax
1000016f:	89 54 24 18          	mov    DWORD PTR [esp+0x18],edx
10000173:	39 54 24 10          	cmp    DWORD PTR [esp+0x10],edx
10000177:	72 57                	jb     0x100001d0
10000179:	74 51                	je     0x100001cc
1000017b:	89 d8                	mov    eax,ebx
1000017d:	8b 54 24 50          	mov    edx,DWORD PTR [esp+0x50]
10000181:	85 d2                	test   edx,edx
10000183:	74 67                	je     0x100001ec
10000185:	8b 54 24 10          	mov    edx,DWORD PTR [esp+0x10]
10000189:	29 f7                	sub    edi,esi
1000018b:	1b 54 24 18          	sbb    edx,DWORD PTR [esp+0x18]
1000018f:	89 d3                	mov    ebx,edx
10000191:	8a 4c 24 1c          	mov    cl,BYTE PTR [esp+0x1c]
10000195:	d3 e3                	shl    ebx,cl
10000197:	8b 74 24 0c          	mov    esi,DWORD PTR [esp+0xc]
1000019b:	89 f1                	mov    ecx,esi
1000019d:	d3 ef                	shr    edi,cl
1000019f:	09 df                	or     edi,ebx
100001a1:	d3 ea                	shr    edx,cl
100001a3:	8b 5c 24 50          	mov    ebx,DWORD PTR [esp+0x50]
100001a7:	89 3b                	mov    DWORD PTR [ebx],edi
100001a9:	89 df                	mov    edi,ebx
100001ab:	89 57 04             	mov    DWORD PTR [edi+0x4],edx
100001ae:	c7 44 24 0c 00 00 00 00 	mov    DWORD PTR [esp+0xc],0x0
100001b6:	e9 b1 fe ff ff       	jmp    0x1000006c
100001bb:	90                   	nop
100001bc:	c7 44 24 0c 00 00 00 00 	mov    DWORD PTR [esp+0xc],0x0
100001c4:	31 c0                	xor    eax,eax
100001c6:	e9 a1 fe ff ff       	jmp    0x1000006c
100001cb:	90                   	nop
100001cc:	39 c7                	cmp    edi,eax
100001ce:	73 ab                	jae    0x1000017b
100001d0:	8d 59 ff             	lea    ebx,[ecx-0x1]
100001d3:	2b 44 24 14          	sub    eax,DWORD PTR [esp+0x14]
100001d7:	19 ea                	sbb    edx,ebp
100001d9:	89 54 24 18          	mov    DWORD PTR [esp+0x18],edx
100001dd:	89 c6                	mov    esi,eax
100001df:	eb 9a                	jmp    0x1000017b
100001e1:	8d 76 00             	lea    esi,[esi+0x0]
100001e4:	31 c0                	xor    eax,eax
100001e6:	e9 12 ff ff ff       	jmp    0x100000fd
100001eb:	90                   	nop
100001ec:	c7 44 24 0c 00 00 00 00 	mov    DWORD PTR [esp+0xc],0x0
100001f4:	e9 73 fe ff ff       	jmp    0x1000006c

Disassembly of section .text._start:

100001f9 <.text._start>:
100001f9:	55                   	push   ebp
100001fa:	89 e5                	mov    ebp,esp
100001fc:	83 ec 10             	sub    esp,0x10
100001ff:	68 e8 18 00 10       	push   0x100018e8
10000204:	68 ea 18 00 10       	push   0x100018ea
10000209:	e8 b2 07 00 00       	call   0x100009c0
1000020e:	a3 08 20 00 10       	mov    ds:0x10002008,eax
10000213:	58                   	pop    eax
10000214:	5a                   	pop    edx
10000215:	68 ef 18 00 10       	push   0x100018ef
1000021a:	68 ea 18 00 10       	push   0x100018ea
1000021f:	e8 9c 07 00 00       	call   0x100009c0
10000224:	a3 04 20 00 10       	mov    ds:0x10002004,eax
10000229:	59                   	pop    ecx
1000022a:	58                   	pop    eax
1000022b:	68 ef 18 00 10       	push   0x100018ef
10000230:	68 ea 18 00 10       	push   0x100018ea
10000235:	e8 86 07 00 00       	call   0x100009c0
1000023a:	a3 0c 20 00 10       	mov    ds:0x1000200c,eax
1000023f:	6a 01                	push   0x1
10000241:	6a 02                	push   0x2
10000243:	6a 00                	push   0x0
10000245:	50                   	push   eax
10000246:	e8 03 08 00 00       	call   0x10000a4e
1000024b:	c7 05 00 20 00 10 00 00 00 00 	mov    DWORD PTR ds:0x10002000,0x0
10000255:	83 c4 18             	add    esp,0x18
10000258:	6a 00                	push   0x0
1000025a:	6a 00                	push   0x0
1000025c:	e8 08 00 00 00       	call   0x10000269
10000261:	89 04 24             	mov    DWORD PTR [esp],eax
10000264:	e8 f3 14 00 00       	call   0x1000175c

Disassembly of section .text.startup.main:

10000269 <.text.startup.main>:
10000269:	8d 4c 24 04          	lea    ecx,[esp+0x4]
1000026d:	83 e4 f0             	and    esp,0xfffffff0
10000270:	ff 71 fc             	push   DWORD PTR [ecx-0x4]
10000273:	55                   	push   ebp
10000274:	89 e5                	mov    ebp,esp
10000276:	53                   	push   ebx
10000277:	51                   	push   ecx
10000278:	83 ec 48             	sub    esp,0x48
1000027b:	68 f1 18 00 10       	push   0x100018f1
10000280:	68 f3 18 00 10       	push   0x100018f3
10000285:	e8 36 07 00 00       	call   0x100009c0
1000028a:	89 c3                	mov    ebx,eax
1000028c:	59                   	pop    ecx
1000028d:	5a                   	pop    edx
1000028e:	50                   	push   eax
1000028f:	68 f8 18 00 10       	push   0x100018f8
10000294:	e8 13 0b 00 00       	call   0x10000dac
10000299:	59                   	pop    ecx
1000029a:	58                   	pop    eax
1000029b:	68 14 19 00 10       	push   0x10001914
100002a0:	53                   	push   ebx
100002a1:	e8 74 14 00 00       	call   0x1000171a
100002a6:	83 c4 0c             	add    esp,0xc
100002a9:	6a 7b                	push   0x7b
100002ab:	68 2e 19 00 10       	push   0x1000192e
100002b0:	53                   	push   ebx
100002b1:	e8 64 14 00 00       	call   0x1000171a
100002b6:	83 c4 0c             	add    esp,0xc
100002b9:	68 44 19 00 10       	push   0x10001944
100002be:	68 4b 19 00 10       	push   0x1000194b
100002c3:	53                   	push   ebx
100002c4:	e8 51 14 00 00       	call   0x1000171a
100002c9:	83 c4 0c             	add    esp,0xc
100002cc:	68 61 19 00 10       	push   0x10001961
100002d1:	68 6f 19 00 10       	push   0x1000196f
100002d6:	53                   	push   ebx
100002d7:	e8 3e 14 00 00       	call   0x1000171a
100002dc:	83 c4 0c             	add    esp,0xc
100002df:	68 61 19 00 10       	push   0x10001961
100002e4:	68 75 19 00 10       	push   0x10001975
100002e9:	53                   	push   ebx
100002ea:	e8 2b 14 00 00       	call   0x1000171a
100002ef:	83 c4 0c             	add    esp,0xc
100002f2:	68 61 19 00 10       	push   0x10001961
100002f7:	68 7d 19 00 10       	push   0x1000197d
100002fc:	53                   	push   ebx
100002fd:	e8 18 14 00 00       	call   0x1000171a
10000302:	83 c4 0c             	add    esp,0xc
10000305:	68 61 19 00 10       	push   0x10001961
1000030a:	68 86 19 00 10       	push   0x10001986
1000030f:	53                   	push   ebx
10000310:	e8 05 14 00 00       	call   0x1000171a
10000315:	83 c4 0c             	add    esp,0xc
10000318:	68 61 19 00 10       	push   0x10001961
1000031d:	68 8f 19 00 10       	push   0x1000198f
10000322:	53                   	push   ebx
10000323:	e8 f2 13 00 00       	call   0x1000171a
10000328:	83 c4 0c             	add    esp,0xc
1000032b:	68 61 19 00 10       	push   0x10001961
10000330:	68 98 19 00 10       	push   0x10001998
10000335:	53                   	push   ebx
10000336:	e8 df 13 00 00       	call   0x1000171a
1000033b:	83 c4 0c             	add    esp,0xc
1000033e:	68 61 19 00 10       	push   0x10001961
10000343:	68 a1 19 00 10       	push   0x100019a1
10000348:	53                   	push   ebx
10000349:	e8 cc 13 00 00       	call   0x1000171a
1000034e:	83 c4 0c             	add    esp,0xc
10000351:	68 61 19 00 10       	push   0x10001961
10000356:	68 ac 19 00 10       	push   0x100019ac
1000035b:	53                   	push   ebx
1000035c:	e8 b9 13 00 00       	call   0x1000171a
10000361:	83 c4 0c             	add    esp,0xc
10000364:	68 b9 19 00 10       	push   0x100019b9
10000369:	68 be 19 00 10       	push   0x100019be
1000036e:	53                   	push   ebx
1000036f:	e8 a6 13 00 00       	call   0x1000171a
10000374:	83 c4 0c             	add    esp,0xc
10000377:	68 39 30 00 00       	push   0x3039
1000037c:	68 cd 19 00 10       	push   0x100019cd
10000381:	53                   	push   ebx
10000382:	e8 93 13 00 00       	call   0x1000171a
10000387:	83 c4 0c             	add    esp,0xc
1000038a:	6a 19                	push   0x19
1000038c:	68 df 19 00 10       	push   0x100019df
10000391:	53                   	push   ebx
10000392:	e8 83 13 00 00       	call   0x1000171a
10000397:	83 c4 0c             	add    esp,0xc
1000039a:	68 d2 04 00 00       	push   0x4d2
1000039f:	68 f4 19 00 10       	push   0x100019f4
100003a4:	53                   	push   ebx
100003a5:	e8 70 13 00 00       	call   0x1000171a
100003aa:	83 c4 0c             	add    esp,0xc
100003ad:	68 ff 00 00 00       	push   0xff
100003b2:	68 06 1a 00 10       	push   0x10001a06
100003b7:	53                   	push   ebx
100003b8:	e8 5d 13 00 00       	call   0x1000171a
100003bd:	83 c4 0c             	add    esp,0xc
100003c0:	68 ff 00 00 00       	push   0xff
100003c5:	68 17 1a 00 10       	push   0x10001a17
100003ca:	53                   	push   ebx
100003cb:	e8 4a 13 00 00       	call   0x1000171a
100003d0:	83 c4 0c             	add    esp,0xc
100003d3:	68 96 00 00 00       	push   0x96
100003d8:	68 22 1a 00 10       	push   0x10001a22
100003dd:	53                   	push   ebx
100003de:	e8 37 13 00 00       	call   0x1000171a
100003e3:	83 c4 0c             	add    esp,0xc
100003e6:	6a 0a                	push   0xa
100003e8:	68 36 1a 00 10       	push   0x10001a36
100003ed:	53                   	push   ebx
100003ee:	e8 27 13 00 00       	call   0x1000171a
100003f3:	83 c4 0c             	add    esp,0xc
100003f6:	6a 0d                	push   0xd
100003f8:	68 5a 1a 00 10       	push   0x10001a5a
100003fd:	53                   	push   ebx
100003fe:	e8 17 13 00 00       	call   0x1000171a
10000403:	83 c4 0c             	add    esp,0xc
10000406:	6a 0d                	push   0xd
10000408:	68 61 1a 00 10       	push   0x10001a61
1000040d:	53                   	push   ebx
1000040e:	e8 07 13 00 00       	call   0x1000171a
10000413:	83 c4 0c             	add    esp,0xc
10000416:	6a 0d                	push   0xd
10000418:	68 69 1a 00 10       	push   0x10001a69
1000041d:	53                   	push   ebx
1000041e:	e8 f7 12 00 00       	call   0x1000171a
10000423:	83 c4 0c             	add    esp,0xc
10000426:	6a 0d                	push   0xd
10000428:	68 71 1a 00 10       	push   0x10001a71
1000042d:	53                   	push   ebx
1000042e:	e8 e7 12 00 00       	call   0x1000171a
10000433:	83 c4 0c             	add    esp,0xc
10000436:	6a 0d                	push   0xd
10000438:	68 79 1a 00 10       	push   0x10001a79
1000043d:	53                   	push   ebx
1000043e:	e8 d7 12 00 00       	call   0x1000171a
10000443:	83 c4 0c             	add    esp,0xc
10000446:	6a 0d                	push   0xd
10000448:	68 81 1a 00 10       	push   0x10001a81
1000044d:	53                   	push   ebx
1000044e:	e8 c7 12 00 00       	call   0x1000171a
10000453:	83 c4 0c             	add    esp,0xc
10000456:	6a 0d                	push   0xd
10000458:	68 8a 1a 00 10       	push   0x10001a8a
1000045d:	53                   	push   ebx
1000045e:	e8 b7 12 00 00       	call   0x1000171a
10000463:	83 c4 0c             	add    esp,0xc
10000466:	6a f3                	push   0xfffffff3
10000468:	68 5a 1a 00 10       	push   0x10001a5a
1000046d:	53                   	push   ebx
1000046e:	e8 a7 12 00 00       	call   0x1000171a
10000473:	83 c4 0c             	add    esp,0xc
10000476:	6a f3                	push   0xfffffff3
10000478:	68 61 1a 00 10       	push   0x10001a61
1000047d:	53                   	push   ebx
1000047e:	e8 97 12 00 00       	call   0x1000171a
10000483:	83 c4 0c             	add    esp,0xc
10000486:	6a f3                	push   0xfffffff3
10000488:	68 69 1a 00 10       	push   0x10001a69
1000048d:	53                   	push   ebx
1000048e:	e8 87 12 00 00       	call   0x1000171a
10000493:	83 c4 0c             	add    esp,0xc
10000496:	6a f3                	push   0xfffffff3
10000498:	68 71 1a 00 10       	push   0x10001a71
1000049d:	53                   	push   ebx
1000049e:	e8 77 12 00 00       	call   0x1000171a
100004a3:	83 c4 0c             	add    esp,0xc
100004a6:	6a f3                	push   0xfffffff3
100004a8:	68 79 1a 00 10       	push   0x10001a79
100004ad:	53                   	push   ebx
100004ae:	e8 67 12 00 00       	call   0x1000171a
100004b3:	83 c4 0c             	add    esp,0xc
100004b6:	6a f3                	push   0xfffffff3
100004b8:	68 81 1a 00 10       	push   0x10001a81
100004bd:	53                   	push   ebx
100004be:	e8 57 12 00 00       	call   0x1000171a
100004c3:	83 c4 0c             	add    esp,0xc
100004c6:	6a f3                	push   0xfffffff3
100004c8:	68 8a 1a 00 10       	push   0x10001a8a
100004cd:	53                   	push   ebx
100004ce:	e8 47 12 00 00       	call   0x1000171a
100004d3:	83 c4 0c             	add    esp,0xc
100004d6:	6a 0d                	push   0xd
100004d8:	68 93 1a 00 10       	push   0x10001a93
100004dd:	53                   	push   ebx
100004de:	e8 37 12 00 00       	call   0x1000171a
100004e3:	83 c4 0c             	add    esp,0xc
100004e6:	6a 0d                	push   0xd
100004e8:	68 9c 1a 00 10       	push   0x10001a9c
100004ed:	53                   	push   ebx
100004ee:	e8 27 12 00 00       	call   0x1000171a
100004f3:	83 c4 0c             	add    esp,0xc
100004f6:	6a 0d                	push   0xd
100004f8:	68 a5 1a 00 10       	push   0x10001aa5
100004fd:	53                   	push   ebx
100004fe:	e8 17 12 00 00       	call   0x1000171a
10000503:	83 c4 0c             	add    esp,0xc
10000506:	6a 00                	push   0x0
10000508:	68 93 1a 00 10       	push   0x10001a93
1000050d:	53                   	push   ebx
1000050e:	e8 07 12 00 00       	call   0x1000171a
10000513:	83 c4 0c             	add    esp,0xc
10000516:	6a 00                	push   0x0
10000518:	68 9c 1a 00 10       	push   0x10001a9c
1000051d:	53                   	push   ebx
1000051e:	e8 f7 11 00 00       	call   0x1000171a
10000523:	83 c4 0c             	add    esp,0xc
10000526:	6a 00                	push   0x0
10000528:	68 ae 1a 00 10       	push   0x10001aae
1000052d:	53                   	push   ebx
1000052e:	e8 e7 11 00 00       	call   0x1000171a
10000533:	6a 7b                	push   0x7b
10000535:	6a 02                	push   0x2
10000537:	68 b8 1a 00 10       	push   0x10001ab8
1000053c:	53                   	push   ebx
1000053d:	e8 d8 11 00 00       	call   0x1000171a
10000542:	83 c4 20             	add    esp,0x20
10000545:	6a 7b                	push   0x7b
10000547:	6a 03                	push   0x3
10000549:	68 b8 1a 00 10       	push   0x10001ab8
1000054e:	53                   	push   ebx
1000054f:	e8 c6 11 00 00       	call   0x1000171a
10000554:	6a 7b                	push   0x7b
10000556:	6a 04                	push   0x4
10000558:	68 b8 1a 00 10       	push   0x10001ab8
1000055d:	53                   	push   ebx
1000055e:	e8 b7 11 00 00       	call   0x1000171a
10000563:	83 c4 20             	add    esp,0x20
10000566:	6a 7b                	push   0x7b
10000568:	6a 05                	push   0x5
1000056a:	68 b8 1a 00 10       	push   0x10001ab8
1000056f:	53                   	push   ebx
10000570:	e8 a5 11 00 00       	call   0x1000171a
10000575:	6a 7b                	push   0x7b
10000577:	6a 06                	push   0x6
10000579:	68 b8 1a 00 10       	push   0x10001ab8
1000057e:	53                   	push   ebx
1000057f:	e8 96 11 00 00       	call   0x1000171a
10000584:	83 c4 20             	add    esp,0x20
10000587:	6a 00                	push   0x0
10000589:	6a 00                	push   0x0
1000058b:	68 bf 1a 00 10       	push   0x10001abf
10000590:	53                   	push   ebx
10000591:	e8 84 11 00 00       	call   0x1000171a
10000596:	6a 00                	push   0x0
10000598:	6a 01                	push   0x1
1000059a:	68 bf 1a 00 10       	push   0x10001abf
1000059f:	53                   	push   ebx
100005a0:	e8 75 11 00 00       	call   0x1000171a
100005a5:	83 c4 14             	add    esp,0x14
100005a8:	6a 00                	push   0x0
100005aa:	6a 00                	push   0x0
100005ac:	6a 03                	push   0x3
100005ae:	68 c7 1a 00 10       	push   0x10001ac7
100005b3:	53                   	push   ebx
100005b4:	e8 61 11 00 00       	call   0x1000171a
100005b9:	83 c4 14             	add    esp,0x14
100005bc:	6a 00                	push   0x0
100005be:	6a 01                	push   0x1
100005c0:	6a 04                	push   0x4
100005c2:	68 c7 1a 00 10       	push   0x10001ac7
100005c7:	53                   	push   ebx
100005c8:	e8 4d 11 00 00       	call   0x1000171a
100005cd:	83 c4 14             	add    esp,0x14
100005d0:	53                   	push   ebx
100005d1:	e8 1a 05 00 00       	call   0x10000af0
100005d6:	89 1c 24             	mov    DWORD PTR [esp],ebx
100005d9:	e8 b9 05 00 00       	call   0x10000b97
100005de:	c7 04 24 d0 1a 00 10 	mov    DWORD PTR [esp],0x10001ad0
100005e5:	e8 e5 00 00 00       	call   0x100006cf
100005ea:	83 c4 0c             	add    esp,0xc
100005ed:	68 d5 1a 00 10       	push   0x10001ad5
100005f2:	50                   	push   eax
100005f3:	68 d0 1a 00 10       	push   0x10001ad0
100005f8:	e8 e6 02 00 00       	call   0x100008e3
100005fd:	89 c3                	mov    ebx,eax
100005ff:	83 c4 10             	add    esp,0x10
10000602:	83 ec 0c             	sub    esp,0xc
10000605:	53                   	push   ebx
10000606:	e8 0c 07 00 00       	call   0x10000d17
1000060b:	83 c4 10             	add    esp,0x10
1000060e:	83 f8 ff             	cmp    eax,0xffffffff
10000611:	74 0f                	je     0x10000622
10000613:	52                   	push   edx
10000614:	52                   	push   edx
10000615:	50                   	push   eax
10000616:	68 d7 1a 00 10       	push   0x10001ad7
1000061b:	e8 11 11 00 00       	call   0x10001731
10000620:	eb dd                	jmp    0x100005ff
10000622:	83 ec 0c             	sub    esp,0xc
10000625:	53                   	push   ebx
10000626:	e8 6c 05 00 00       	call   0x10000b97
1000062b:	58                   	pop    eax
1000062c:	5a                   	pop    edx
1000062d:	68 df 1a 00 10       	push   0x10001adf
10000632:	8d 5d c6             	lea    ebx,[ebp-0x3a]
10000635:	53                   	push   ebx
10000636:	e8 0a 11 00 00       	call   0x10001745
1000063b:	59                   	pop    ecx
1000063c:	58                   	pop    eax
1000063d:	ff 35 04 20 00 10    	push   DWORD PTR ds:0x10002004
10000643:	53                   	push   ebx
10000644:	e8 63 07 00 00       	call   0x10000dac
10000649:	31 c0                	xor    eax,eax
1000064b:	8d 65 f8             	lea    esp,[ebp-0x8]
1000064e:	59                   	pop    ecx
1000064f:	5b                   	pop    ebx
10000650:	5d                   	pop    ebp
10000651:	8d 61 fc             	lea    esp,[ecx-0x4]
10000654:	c3                   	ret    

Disassembly of section .text.memcpy:

10000655 <.text.memcpy>:
10000655:	55                   	push   ebp
10000656:	89 e5                	mov    ebp,esp
10000658:	57                   	push   edi
10000659:	56                   	push   esi
1000065a:	8b 45 08             	mov    eax,DWORD PTR [ebp+0x8]
1000065d:	8b 75 0c             	mov    esi,DWORD PTR [ebp+0xc]
10000660:	8b 4d 10             	mov    ecx,DWORD PTR [ebp+0x10]
10000663:	89 c7                	mov    edi,eax
10000665:	f3 a4                	rep movs BYTE PTR es:[edi],BYTE PTR ds:[esi]
10000667:	5e                   	pop    esi
10000668:	5f                   	pop    edi
10000669:	5d                   	pop    ebp
1000066a:	c3                   	ret    

Disassembly of section .text.memmove:

1000066b <.text.memmove>:
1000066b:	55                   	push   ebp
1000066c:	89 e5                	mov    ebp,esp
1000066e:	57                   	push   edi
1000066f:	56                   	push   esi
10000670:	8b 45 08             	mov    eax,DWORD PTR [ebp+0x8]
10000673:	8b 75 0c             	mov    esi,DWORD PTR [ebp+0xc]
10000676:	8b 55 10             	mov    edx,DWORD PTR [ebp+0x10]
10000679:	39 f0                	cmp    eax,esi
1000067b:	77 0b                	ja     0x10000688
1000067d:	01 c2                	add    edx,eax
1000067f:	89 c7                	mov    edi,eax
10000681:	39 d7                	cmp    edi,edx
10000683:	74 11                	je     0x10000696
10000685:	a4                   	movs   BYTE PTR es:[edi],BYTE PTR ds:[esi]
10000686:	eb f9                	jmp    0x10000681
10000688:	4a                   	dec    edx
10000689:	83 fa ff             	cmp    edx,0xffffffff
1000068c:	74 08                	je     0x10000696
1000068e:	8a 0c 16             	mov    cl,BYTE PTR [esi+edx*1]
10000691:	88 0c 10             	mov    BYTE PTR [eax+edx*1],cl
10000694:	eb f2                	jmp    0x10000688
10000696:	5e                   	pop    esi
10000697:	5f                   	pop    edi
10000698:	5d                   	pop    ebp
10000699:	c3                   	ret    

Disassembly of section .text.memset:

1000069a <.text.memset>:
1000069a:	55                   	push   ebp
1000069b:	89 e5                	mov    ebp,esp
1000069d:	57                   	push   edi
1000069e:	8b 4d 10             	mov    ecx,DWORD PTR [ebp+0x10]
100006a1:	8a 45 0c             	mov    al,BYTE PTR [ebp+0xc]
100006a4:	8b 7d 08             	mov    edi,DWORD PTR [ebp+0x8]
100006a7:	f3 aa                	rep stos BYTE PTR es:[edi],al
100006a9:	8b 45 08             	mov    eax,DWORD PTR [ebp+0x8]
100006ac:	5f                   	pop    edi
100006ad:	5d                   	pop    ebp
100006ae:	c3                   	ret    

Disassembly of section .text.strcmp:

100006af <.text.strcmp>:
100006af:	55                   	push   ebp
100006b0:	89 e5                	mov    ebp,esp
100006b2:	31 c9                	xor    ecx,ecx
100006b4:	8b 45 08             	mov    eax,DWORD PTR [ebp+0x8]
100006b7:	0f b6 04 08          	movzx  eax,BYTE PTR [eax+ecx*1]
100006bb:	8b 55 0c             	mov    edx,DWORD PTR [ebp+0xc]
100006be:	0f b6 14 0a          	movzx  edx,BYTE PTR [edx+ecx*1]
100006c2:	84 c0                	test   al,al
100006c4:	74 05                	je     0x100006cb
100006c6:	41                   	inc    ecx
100006c7:	38 d0                	cmp    al,dl
100006c9:	74 e9                	je     0x100006b4
100006cb:	29 d0                	sub    eax,edx
100006cd:	5d                   	pop    ebp
100006ce:	c3                   	ret    

Disassembly of section .text.strlen:

100006cf <.text.strlen>:
100006cf:	55                   	push   ebp
100006d0:	89 e5                	mov    ebp,esp
100006d2:	8b 55 08             	mov    edx,DWORD PTR [ebp+0x8]
100006d5:	31 c0                	xor    eax,eax
100006d7:	80 3c 02 00          	cmp    BYTE PTR [edx+eax*1],0x0
100006db:	74 03                	je     0x100006e0
100006dd:	40                   	inc    eax
100006de:	eb f7                	jmp    0x100006d7
100006e0:	5d                   	pop    ebp
100006e1:	c3                   	ret    

Disassembly of section .text._file_read:

100006e2 <.text._file_read>:
100006e2:	55                   	push   ebp
100006e3:	89 e5                	mov    ebp,esp
100006e5:	8b 45 08             	mov    eax,DWORD PTR [ebp+0x8]
100006e8:	8b 00                	mov    eax,DWORD PTR [eax]
100006ea:	89 45 08             	mov    DWORD PTR [ebp+0x8],eax
100006ed:	5d                   	pop    ebp
100006ee:	e9 95 11 00 00       	jmp    0x10001888

Disassembly of section .text._file_write:

100006f3 <.text._file_write>:
100006f3:	55                   	push   ebp
100006f4:	89 e5                	mov    ebp,esp
100006f6:	8b 45 08             	mov    eax,DWORD PTR [ebp+0x8]
100006f9:	8b 00                	mov    eax,DWORD PTR [eax]
100006fb:	89 45 08             	mov    DWORD PTR [ebp+0x8],eax
100006fe:	5d                   	pop    ebp
100006ff:	e9 b4 11 00 00       	jmp    0x100018b8

Disassembly of section .text._mem_read:

10000704 <.text._mem_read>:
10000704:	55                   	push   ebp
10000705:	89 e5                	mov    ebp,esp
10000707:	56                   	push   esi
10000708:	53                   	push   ebx
10000709:	8b 5d 08             	mov    ebx,DWORD PTR [ebp+0x8]
1000070c:	8b 75 10             	mov    esi,DWORD PTR [ebp+0x10]
1000070f:	f6 43 28 20          	test   BYTE PTR [ebx+0x28],0x20
10000713:	75 0f                	jne    0x10000724
10000715:	c7 05 00 20 00 10 07 00 00 00 	mov    DWORD PTR ds:0x10002000,0x7
1000071f:	83 c8 ff             	or     eax,0xffffffff
10000722:	eb 2d                	jmp    0x10000751
10000724:	8b 53 34             	mov    edx,DWORD PTR [ebx+0x34]
10000727:	8b 4b 30             	mov    ecx,DWORD PTR [ebx+0x30]
1000072a:	31 c0                	xor    eax,eax
1000072c:	39 ca                	cmp    edx,ecx
1000072e:	73 21                	jae    0x10000751
10000730:	8d 04 32             	lea    eax,[edx+esi*1]
10000733:	39 c1                	cmp    ecx,eax
10000735:	77 04                	ja     0x1000073b
10000737:	29 d1                	sub    ecx,edx
10000739:	89 ce                	mov    esi,ecx
1000073b:	50                   	push   eax
1000073c:	56                   	push   esi
1000073d:	03 53 2c             	add    edx,DWORD PTR [ebx+0x2c]
10000740:	52                   	push   edx
10000741:	ff 75 0c             	push   DWORD PTR [ebp+0xc]
10000744:	e8 0c ff ff ff       	call   0x10000655
10000749:	01 73 34             	add    DWORD PTR [ebx+0x34],esi
1000074c:	89 f0                	mov    eax,esi
1000074e:	83 c4 10             	add    esp,0x10
10000751:	8d 65 f8             	lea    esp,[ebp-0x8]
10000754:	5b                   	pop    ebx
10000755:	5e                   	pop    esi
10000756:	5d                   	pop    ebp
10000757:	c3                   	ret    

Disassembly of section .text._mem_write:

10000758 <.text._mem_write>:
10000758:	55                   	push   ebp
10000759:	89 e5                	mov    ebp,esp
1000075b:	56                   	push   esi
1000075c:	53                   	push   ebx
1000075d:	8b 75 08             	mov    esi,DWORD PTR [ebp+0x8]
10000760:	8b 5d 10             	mov    ebx,DWORD PTR [ebp+0x10]
10000763:	8b 46 28             	mov    eax,DWORD PTR [esi+0x28]
10000766:	a8 40                	test   al,0x40
10000768:	75 0c                	jne    0x10000776
1000076a:	c7 05 00 20 00 10 07 00 00 00 	mov    DWORD PTR ds:0x10002000,0x7
10000774:	eb 31                	jmp    0x100007a7
10000776:	a8 10                	test   al,0x10
10000778:	75 17                	jne    0x10000791
1000077a:	8b 46 34             	mov    eax,DWORD PTR [esi+0x34]
1000077d:	8d 14 18             	lea    edx,[eax+ebx*1]
10000780:	3b 56 30             	cmp    edx,DWORD PTR [esi+0x30]
10000783:	72 27                	jb     0x100007ac
10000785:	c7 05 00 20 00 10 0c 00 00 00 	mov    DWORD PTR ds:0x10002000,0xc
1000078f:	eb 16                	jmp    0x100007a7
10000791:	8b 56 2c             	mov    edx,DWORD PTR [esi+0x2c]
10000794:	8b 46 34             	mov    eax,DWORD PTR [esi+0x34]
10000797:	80 3c 02 00          	cmp    BYTE PTR [edx+eax*1],0x0
1000079b:	74 dd                	je     0x1000077a
1000079d:	39 d8                	cmp    eax,ebx
1000079f:	73 d9                	jae    0x1000077a
100007a1:	40                   	inc    eax
100007a2:	89 46 34             	mov    DWORD PTR [esi+0x34],eax
100007a5:	eb ed                	jmp    0x10000794
100007a7:	83 c8 ff             	or     eax,0xffffffff
100007aa:	eb 16                	jmp    0x100007c2
100007ac:	52                   	push   edx
100007ad:	53                   	push   ebx
100007ae:	ff 75 0c             	push   DWORD PTR [ebp+0xc]
100007b1:	03 46 2c             	add    eax,DWORD PTR [esi+0x2c]
100007b4:	50                   	push   eax
100007b5:	e8 9b fe ff ff       	call   0x10000655
100007ba:	01 5e 34             	add    DWORD PTR [esi+0x34],ebx
100007bd:	89 d8                	mov    eax,ebx
100007bf:	83 c4 10             	add    esp,0x10
100007c2:	8d 65 f8             	lea    esp,[ebp-0x8]
100007c5:	5b                   	pop    ebx
100007c6:	5e                   	pop    esi
100007c7:	5d                   	pop    ebp
100007c8:	c3                   	ret    

Disassembly of section .text.fopen_existing_stream:

100007c9 <.text.fopen_existing_stream>:
100007c9:	55                   	push   ebp
100007ca:	89 e5                	mov    ebp,esp
100007cc:	57                   	push   edi
100007cd:	56                   	push   esi
100007ce:	53                   	push   ebx
100007cf:	83 ec 1c             	sub    esp,0x1c
100007d2:	89 c6                	mov    esi,eax
100007d4:	89 d3                	mov    ebx,edx
100007d6:	85 c9                	test   ecx,ecx
100007d8:	0f 94 c2             	sete   dl
100007db:	85 db                	test   ebx,ebx
100007dd:	0f 94 c0             	sete   al
100007e0:	08 c2                	or     dl,al
100007e2:	75 04                	jne    0x100007e8
100007e4:	85 f6                	test   esi,esi
100007e6:	75 0f                	jne    0x100007f7
100007e8:	c7 05 00 20 00 10 07 00 00 00 	mov    DWORD PTR ds:0x10002000,0x7
100007f2:	e9 e0 00 00 00       	jmp    0x100008d7
100007f7:	89 cf                	mov    edi,ecx
100007f9:	c7 41 04 ff ff ff ff 	mov    DWORD PTR [ecx+0x4],0xffffffff
10000800:	66 c7 41 08 00 00    	mov    WORD PTR [ecx+0x8],0x0
10000806:	83 ec 0c             	sub    esp,0xc
10000809:	68 00 02 00 00       	push   0x200
1000080e:	e8 70 0f 00 00       	call   0x10001783
10000813:	89 47 10             	mov    DWORD PTR [edi+0x10],eax
10000816:	c7 47 18 00 02 00 00 	mov    DWORD PTR [edi+0x18],0x200
1000081d:	c7 47 14 00 00 00 00 	mov    DWORD PTR [edi+0x14],0x0
10000824:	c6 47 1c 01          	mov    BYTE PTR [edi+0x1c],0x1
10000828:	c7 47 3c 00 00 00 00 	mov    DWORD PTR [edi+0x3c],0x0
1000082f:	89 1c 24             	mov    DWORD PTR [esp],ebx
10000832:	e8 98 fe ff ff       	call   0x100006cf
10000837:	83 c4 10             	add    esp,0x10
1000083a:	85 c0                	test   eax,eax
1000083c:	74 aa                	je     0x100007e8
1000083e:	83 ec 0c             	sub    esp,0xc
10000841:	53                   	push   ebx
10000842:	e8 88 fe ff ff       	call   0x100006cf
10000847:	83 c4 10             	add    esp,0x10
1000084a:	83 f8 03             	cmp    eax,0x3
1000084d:	77 99                	ja     0x100007e8
1000084f:	8a 03                	mov    al,BYTE PTR [ebx]
10000851:	3c 72                	cmp    al,0x72
10000853:	74 0f                	je     0x10000864
10000855:	3c 77                	cmp    al,0x77
10000857:	74 12                	je     0x1000086b
10000859:	b9 51 00 00 00       	mov    ecx,0x51
1000085e:	3c 61                	cmp    al,0x61
10000860:	74 0e                	je     0x10000870
10000862:	eb 84                	jmp    0x100007e8
10000864:	b9 20 00 00 00       	mov    ecx,0x20
10000869:	eb 05                	jmp    0x10000870
1000086b:	b9 49 00 00 00       	mov    ecx,0x49
10000870:	43                   	inc    ebx
10000871:	8a 03                	mov    al,BYTE PTR [ebx]
10000873:	84 c0                	test   al,al
10000875:	74 12                	je     0x10000889
10000877:	3c 2b                	cmp    al,0x2b
10000879:	75 05                	jne    0x10000880
1000087b:	83 c9 60             	or     ecx,0x60
1000087e:	eb f0                	jmp    0x10000870
10000880:	3c 78                	cmp    al,0x78
10000882:	75 ec                	jne    0x10000870
10000884:	83 c9 02             	or     ecx,0x2
10000887:	eb e7                	jmp    0x10000870
10000889:	89 4f 28             	mov    DWORD PTR [edi+0x28],ecx
1000088c:	80 7f 48 00          	cmp    BYTE PTR [edi+0x48],0x0
10000890:	74 09                	je     0x1000089b
10000892:	c7 47 0c 00 00 00 00 	mov    DWORD PTR [edi+0xc],0x0
10000899:	eb 3e                	jmp    0x100008d9
1000089b:	50                   	push   eax
1000089c:	68 b6 01 00 00       	push   0x1b6
100008a1:	51                   	push   ecx
100008a2:	89 4d e4             	mov    DWORD PTR [ebp-0x1c],ecx
100008a5:	56                   	push   esi
100008a6:	e8 59 0f 00 00       	call   0x10001804
100008ab:	89 c3                	mov    ebx,eax
100008ad:	83 c4 10             	add    esp,0x10
100008b0:	83 f8 ff             	cmp    eax,0xffffffff
100008b3:	74 22                	je     0x100008d7
100008b5:	8b 4d e4             	mov    ecx,DWORD PTR [ebp-0x1c]
100008b8:	83 e1 40             	and    ecx,0x40
100008bb:	74 13                	je     0x100008d0
100008bd:	83 ec 0c             	sub    esp,0xc
100008c0:	50                   	push   eax
100008c1:	e8 6e 0f 00 00       	call   0x10001834
100008c6:	83 c4 10             	add    esp,0x10
100008c9:	31 c9                	xor    ecx,ecx
100008cb:	85 c0                	test   eax,eax
100008cd:	0f 95 c1             	setne  cl
100008d0:	89 4f 0c             	mov    DWORD PTR [edi+0xc],ecx
100008d3:	89 1f                	mov    DWORD PTR [edi],ebx
100008d5:	eb 02                	jmp    0x100008d9
100008d7:	31 ff                	xor    edi,edi
100008d9:	89 f8                	mov    eax,edi
100008db:	8d 65 f4             	lea    esp,[ebp-0xc]
100008de:	5b                   	pop    ebx
100008df:	5e                   	pop    esi
100008e0:	5f                   	pop    edi
100008e1:	5d                   	pop    ebp
100008e2:	c3                   	ret    

Disassembly of section .text.fmemopen:

100008e3 <.text.fmemopen>:
100008e3:	55                   	push   ebp
100008e4:	89 e5                	mov    ebp,esp
100008e6:	57                   	push   edi
100008e7:	56                   	push   esi
100008e8:	53                   	push   ebx
100008e9:	83 ec 0c             	sub    esp,0xc
100008ec:	8b 75 0c             	mov    esi,DWORD PTR [ebp+0xc]
100008ef:	85 f6                	test   esi,esi
100008f1:	75 11                	jne    0x10000904
100008f3:	c7 05 00 20 00 10 02 00 00 00 	mov    DWORD PTR ds:0x10002000,0x2
100008fd:	31 ff                	xor    edi,edi
100008ff:	e9 b2 00 00 00       	jmp    0x100009b6
10000904:	83 ec 0c             	sub    esp,0xc
10000907:	6a 4c                	push   0x4c
10000909:	e8 75 0e 00 00       	call   0x10001783
1000090e:	89 c3                	mov    ebx,eax
10000910:	c7 40 40 00 00 00 00 	mov    DWORD PTR [eax+0x40],0x0
10000917:	c7 40 44 ff ff ff ff 	mov    DWORD PTR [eax+0x44],0xffffffff
1000091e:	c6 40 48 01          	mov    BYTE PTR [eax+0x48],0x1
10000922:	c7 40 20 04 07 00 10 	mov    DWORD PTR [eax+0x20],0x10000704
10000929:	c7 40 24 58 07 00 10 	mov    DWORD PTR [eax+0x24],0x10000758
10000930:	89 c1                	mov    ecx,eax
10000932:	8b 55 10             	mov    edx,DWORD PTR [ebp+0x10]
10000935:	b8 f7 1a 00 10       	mov    eax,0x10001af7
1000093a:	e8 8a fe ff ff       	call   0x100007c9
1000093f:	89 c7                	mov    edi,eax
10000941:	89 73 30             	mov    DWORD PTR [ebx+0x30],esi
10000944:	c7 43 34 00 00 00 00 	mov    DWORD PTR [ebx+0x34],0x0
1000094b:	83 c4 10             	add    esp,0x10
1000094e:	83 7d 08 00          	cmp    DWORD PTR [ebp+0x8],0x0
10000952:	75 1e                	jne    0x10000972
10000954:	83 ec 0c             	sub    esp,0xc
10000957:	56                   	push   esi
10000958:	e8 26 0e 00 00       	call   0x10001783
1000095d:	89 43 2c             	mov    DWORD PTR [ebx+0x2c],eax
10000960:	c6 00 00             	mov    BYTE PTR [eax],0x0
10000963:	83 c4 10             	add    esp,0x10
10000966:	83 7b 2c 00          	cmp    DWORD PTR [ebx+0x2c],0x0
1000096a:	74 87                	je     0x100008f3
1000096c:	c6 43 38 01          	mov    BYTE PTR [ebx+0x38],0x1
10000970:	eb 0a                	jmp    0x1000097c
10000972:	8b 45 08             	mov    eax,DWORD PTR [ebp+0x8]
10000975:	89 43 2c             	mov    DWORD PTR [ebx+0x2c],eax
10000978:	c6 43 38 00          	mov    BYTE PTR [ebx+0x38],0x0
1000097c:	8b 45 10             	mov    eax,DWORD PTR [ebp+0x10]
1000097f:	80 38 61             	cmp    BYTE PTR [eax],0x61
10000982:	75 16                	jne    0x1000099a
10000984:	8b 53 2c             	mov    edx,DWORD PTR [ebx+0x2c]
10000987:	8b 43 34             	mov    eax,DWORD PTR [ebx+0x34]
1000098a:	80 3c 02 00          	cmp    BYTE PTR [edx+eax*1],0x0
1000098e:	74 26                	je     0x100009b6
10000990:	39 f0                	cmp    eax,esi
10000992:	73 22                	jae    0x100009b6
10000994:	40                   	inc    eax
10000995:	89 43 34             	mov    DWORD PTR [ebx+0x34],eax
10000998:	eb ed                	jmp    0x10000987
1000099a:	50                   	push   eax
1000099b:	50                   	push   eax
1000099c:	68 f5 1a 00 10       	push   0x10001af5
100009a1:	ff 75 10             	push   DWORD PTR [ebp+0x10]
100009a4:	e8 06 fd ff ff       	call   0x100006af
100009a9:	83 c4 10             	add    esp,0x10
100009ac:	85 c0                	test   eax,eax
100009ae:	75 06                	jne    0x100009b6
100009b0:	8b 43 2c             	mov    eax,DWORD PTR [ebx+0x2c]
100009b3:	c6 00 00             	mov    BYTE PTR [eax],0x0
100009b6:	89 f8                	mov    eax,edi
100009b8:	8d 65 f4             	lea    esp,[ebp-0xc]
100009bb:	5b                   	pop    ebx
100009bc:	5e                   	pop    esi
100009bd:	5f                   	pop    edi
100009be:	5d                   	pop    ebp
100009bf:	c3                   	ret    

Disassembly of section .text.fopen:

100009c0 <.text.fopen>:
100009c0:	55                   	push   ebp
100009c1:	89 e5                	mov    ebp,esp
100009c3:	56                   	push   esi
100009c4:	53                   	push   ebx
100009c5:	8b 5d 08             	mov    ebx,DWORD PTR [ebp+0x8]
100009c8:	8b 75 0c             	mov    esi,DWORD PTR [ebp+0xc]
100009cb:	83 ec 0c             	sub    esp,0xc
100009ce:	6a 4c                	push   0x4c
100009d0:	e8 ae 0d 00 00       	call   0x10001783
100009d5:	c7 40 40 00 00 00 00 	mov    DWORD PTR [eax+0x40],0x0
100009dc:	c7 40 44 ff ff ff ff 	mov    DWORD PTR [eax+0x44],0xffffffff
100009e3:	c6 40 48 00          	mov    BYTE PTR [eax+0x48],0x0
100009e7:	c7 40 20 e2 06 00 10 	mov    DWORD PTR [eax+0x20],0x100006e2
100009ee:	c7 40 24 f3 06 00 10 	mov    DWORD PTR [eax+0x24],0x100006f3
100009f5:	83 c4 10             	add    esp,0x10
100009f8:	89 c1                	mov    ecx,eax
100009fa:	89 f2                	mov    edx,esi
100009fc:	89 d8                	mov    eax,ebx
100009fe:	8d 65 f8             	lea    esp,[ebp-0x8]
10000a01:	5b                   	pop    ebx
10000a02:	5e                   	pop    esi
10000a03:	5d                   	pop    ebp
10000a04:	e9 c0 fd ff ff       	jmp    0x100007c9

Disassembly of section .text.ftrylockfile:

10000a09 <.text.ftrylockfile>:
10000a09:	55                   	push   ebp
10000a0a:	89 e5                	mov    ebp,esp
10000a0c:	8b 55 08             	mov    edx,DWORD PTR [ebp+0x8]
10000a0f:	8b 42 40             	mov    eax,DWORD PTR [edx+0x40]
10000a12:	85 c0                	test   eax,eax
10000a14:	74 0c                	je     0x10000a22
10000a16:	8b 4a 44             	mov    ecx,DWORD PTR [edx+0x44]
10000a19:	b8 01 00 00 00       	mov    eax,0x1
10000a1e:	85 c9                	test   ecx,ecx
10000a20:	75 10                	jne    0x10000a32
10000a22:	8b 42 40             	mov    eax,DWORD PTR [edx+0x40]
10000a25:	40                   	inc    eax
10000a26:	89 42 40             	mov    DWORD PTR [edx+0x40],eax
10000a29:	c7 42 44 00 00 00 00 	mov    DWORD PTR [edx+0x44],0x0
10000a30:	31 c0                	xor    eax,eax
10000a32:	5d                   	pop    ebp
10000a33:	c3                   	ret    

Disassembly of section .text.flockfile:

10000a34 <.text.flockfile>:
10000a34:	55                   	push   ebp
10000a35:	89 e5                	mov    ebp,esp
10000a37:	83 ec 08             	sub    esp,0x8
10000a3a:	83 ec 0c             	sub    esp,0xc
10000a3d:	ff 75 08             	push   DWORD PTR [ebp+0x8]
10000a40:	e8 c4 ff ff ff       	call   0x10000a09
10000a45:	83 c4 10             	add    esp,0x10
10000a48:	85 c0                	test   eax,eax
10000a4a:	75 ee                	jne    0x10000a3a
10000a4c:	c9                   	leave  
10000a4d:	c3                   	ret    

Disassembly of section .text.setvbuf:

10000a4e <.text.setvbuf>:
10000a4e:	55                   	push   ebp
10000a4f:	89 e5                	mov    ebp,esp
10000a51:	57                   	push   edi
10000a52:	56                   	push   esi
10000a53:	53                   	push   ebx
10000a54:	83 ec 28             	sub    esp,0x28
10000a57:	8b 5d 08             	mov    ebx,DWORD PTR [ebp+0x8]
10000a5a:	8b 7d 0c             	mov    edi,DWORD PTR [ebp+0xc]
10000a5d:	53                   	push   ebx
10000a5e:	e8 d1 ff ff ff       	call   0x10000a34
10000a63:	83 c4 10             	add    esp,0x10
10000a66:	85 db                	test   ebx,ebx
10000a68:	74 07                	je     0x10000a71
10000a6a:	8b 73 3c             	mov    esi,DWORD PTR [ebx+0x3c]
10000a6d:	85 f6                	test   esi,esi
10000a6f:	74 16                	je     0x10000a87
10000a71:	c7 05 00 20 00 10 14 00 00 00 	mov    DWORD PTR ds:0x10002000,0x14
10000a7b:	8b 43 40             	mov    eax,DWORD PTR [ebx+0x40]
10000a7e:	48                   	dec    eax
10000a7f:	89 43 40             	mov    DWORD PTR [ebx+0x40],eax
10000a82:	83 ce ff             	or     esi,0xffffffff
10000a85:	eb 5f                	jmp    0x10000ae6
10000a87:	80 7b 1c 00          	cmp    BYTE PTR [ebx+0x1c],0x0
10000a8b:	74 0e                	je     0x10000a9b
10000a8d:	83 ec 0c             	sub    esp,0xc
10000a90:	ff 73 10             	push   DWORD PTR [ebx+0x10]
10000a93:	e8 6b 0d 00 00       	call   0x10001803
10000a98:	83 c4 10             	add    esp,0x10
10000a9b:	85 ff                	test   edi,edi
10000a9d:	0f 94 43 1c          	sete   BYTE PTR [ebx+0x1c]
10000aa1:	8b 55 14             	mov    edx,DWORD PTR [ebp+0x14]
10000aa4:	83 fa 20             	cmp    edx,0x20
10000aa7:	73 05                	jae    0x10000aae
10000aa9:	ba 20 00 00 00       	mov    edx,0x20
10000aae:	85 ff                	test   edi,edi
10000ab0:	75 1a                	jne    0x10000acc
10000ab2:	83 ec 0c             	sub    esp,0xc
10000ab5:	8d 42 01             	lea    eax,[edx+0x1]
10000ab8:	89 55 e4             	mov    DWORD PTR [ebp-0x1c],edx
10000abb:	50                   	push   eax
10000abc:	e8 c2 0c 00 00       	call   0x10001783
10000ac1:	89 43 10             	mov    DWORD PTR [ebx+0x10],eax
10000ac4:	83 c4 10             	add    esp,0x10
10000ac7:	8b 55 e4             	mov    edx,DWORD PTR [ebp-0x1c]
10000aca:	eb 03                	jmp    0x10000acf
10000acc:	89 7b 10             	mov    DWORD PTR [ebx+0x10],edi
10000acf:	89 53 18             	mov    DWORD PTR [ebx+0x18],edx
10000ad2:	c7 43 14 00 00 00 00 	mov    DWORD PTR [ebx+0x14],0x0
10000ad9:	8b 45 10             	mov    eax,DWORD PTR [ebp+0x10]
10000adc:	89 43 0c             	mov    DWORD PTR [ebx+0xc],eax
10000adf:	8b 43 40             	mov    eax,DWORD PTR [ebx+0x40]
10000ae2:	48                   	dec    eax
10000ae3:	89 43 40             	mov    DWORD PTR [ebx+0x40],eax
10000ae6:	89 f0                	mov    eax,esi
10000ae8:	8d 65 f4             	lea    esp,[ebp-0xc]
10000aeb:	5b                   	pop    ebx
10000aec:	5e                   	pop    esi
10000aed:	5f                   	pop    edi
10000aee:	5d                   	pop    ebp
10000aef:	c3                   	ret    

Disassembly of section .text.fflush:

10000af0 <.text.fflush>:
10000af0:	55                   	push   ebp
10000af1:	89 e5                	mov    ebp,esp
10000af3:	53                   	push   ebx
10000af4:	52                   	push   edx
10000af5:	8b 5d 08             	mov    ebx,DWORD PTR [ebp+0x8]
10000af8:	85 db                	test   ebx,ebx
10000afa:	75 0f                	jne    0x10000b0b
10000afc:	c7 05 00 20 00 10 01 00 00 00 	mov    DWORD PTR ds:0x10002000,0x1
10000b06:	e9 84 00 00 00       	jmp    0x10000b8f
10000b0b:	83 ec 0c             	sub    esp,0xc
10000b0e:	53                   	push   ebx
10000b0f:	e8 20 ff ff ff       	call   0x10000a34
10000b14:	8b 43 3c             	mov    eax,DWORD PTR [ebx+0x3c]
10000b17:	83 c4 10             	add    esp,0x10
10000b1a:	85 c0                	test   eax,eax
10000b1c:	75 09                	jne    0x10000b27
10000b1e:	8b 53 40             	mov    edx,DWORD PTR [ebx+0x40]
10000b21:	4a                   	dec    edx
10000b22:	89 53 40             	mov    DWORD PTR [ebx+0x40],edx
10000b25:	eb 6b                	jmp    0x10000b92
10000b27:	83 f8 01             	cmp    eax,0x1
10000b2a:	75 09                	jne    0x10000b35
10000b2c:	c7 43 14 00 00 00 00 	mov    DWORD PTR [ebx+0x14],0x0
10000b33:	eb 3e                	jmp    0x10000b73
10000b35:	83 f8 02             	cmp    eax,0x2
10000b38:	75 44                	jne    0x10000b7e
10000b3a:	50                   	push   eax
10000b3b:	ff 73 14             	push   DWORD PTR [ebx+0x14]
10000b3e:	ff 73 10             	push   DWORD PTR [ebx+0x10]
10000b41:	53                   	push   ebx
10000b42:	ff 53 24             	call   DWORD PTR [ebx+0x24]
10000b45:	83 c4 10             	add    esp,0x10
10000b48:	40                   	inc    eax
10000b49:	75 06                	jne    0x10000b51
10000b4b:	c6 43 09 01          	mov    BYTE PTR [ebx+0x9],0x1
10000b4f:	eb 37                	jmp    0x10000b88
10000b51:	c7 43 14 00 00 00 00 	mov    DWORD PTR [ebx+0x14],0x0
10000b58:	80 7b 48 00          	cmp    BYTE PTR [ebx+0x48],0x0
10000b5c:	74 15                	je     0x10000b73
10000b5e:	8b 43 34             	mov    eax,DWORD PTR [ebx+0x34]
10000b61:	3b 43 30             	cmp    eax,DWORD PTR [ebx+0x30]
10000b64:	73 0d                	jae    0x10000b73
10000b66:	8b 53 2c             	mov    edx,DWORD PTR [ebx+0x2c]
10000b69:	8d 48 01             	lea    ecx,[eax+0x1]
10000b6c:	89 4b 34             	mov    DWORD PTR [ebx+0x34],ecx
10000b6f:	c6 04 02 00          	mov    BYTE PTR [edx+eax*1],0x0
10000b73:	8b 43 40             	mov    eax,DWORD PTR [ebx+0x40]
10000b76:	48                   	dec    eax
10000b77:	89 43 40             	mov    DWORD PTR [ebx+0x40],eax
10000b7a:	31 c0                	xor    eax,eax
10000b7c:	eb 14                	jmp    0x10000b92
10000b7e:	c7 05 00 20 00 10 14 00 00 00 	mov    DWORD PTR ds:0x10002000,0x14
10000b88:	8b 43 40             	mov    eax,DWORD PTR [ebx+0x40]
10000b8b:	48                   	dec    eax
10000b8c:	89 43 40             	mov    DWORD PTR [ebx+0x40],eax
10000b8f:	83 c8 ff             	or     eax,0xffffffff
10000b92:	8b 5d fc             	mov    ebx,DWORD PTR [ebp-0x4]
10000b95:	c9                   	leave  
10000b96:	c3                   	ret    

Disassembly of section .text.fclose:

10000b97 <.text.fclose>:
10000b97:	55                   	push   ebp
10000b98:	89 e5                	mov    ebp,esp
10000b9a:	53                   	push   ebx
10000b9b:	83 ec 10             	sub    esp,0x10
10000b9e:	8b 5d 08             	mov    ebx,DWORD PTR [ebp+0x8]
10000ba1:	53                   	push   ebx
10000ba2:	e8 8d fe ff ff       	call   0x10000a34
10000ba7:	89 1c 24             	mov    DWORD PTR [esp],ebx
10000baa:	e8 41 ff ff ff       	call   0x10000af0
10000baf:	83 c4 10             	add    esp,0x10
10000bb2:	80 7b 1c 00          	cmp    BYTE PTR [ebx+0x1c],0x0
10000bb6:	74 0e                	je     0x10000bc6
10000bb8:	83 ec 0c             	sub    esp,0xc
10000bbb:	ff 73 10             	push   DWORD PTR [ebx+0x10]
10000bbe:	e8 40 0c 00 00       	call   0x10001803
10000bc3:	83 c4 10             	add    esp,0x10
10000bc6:	80 7b 48 00          	cmp    BYTE PTR [ebx+0x48],0x0
10000bca:	75 16                	jne    0x10000be2
10000bcc:	83 ec 0c             	sub    esp,0xc
10000bcf:	ff 33                	push   DWORD PTR [ebx]
10000bd1:	e8 8b 0c 00 00       	call   0x10001861
10000bd6:	83 c4 10             	add    esp,0x10
10000bd9:	83 ca ff             	or     edx,0xffffffff
10000bdc:	85 c0                	test   eax,eax
10000bde:	74 16                	je     0x10000bf6
10000be0:	eb 22                	jmp    0x10000c04
10000be2:	80 7b 38 00          	cmp    BYTE PTR [ebx+0x38],0x0
10000be6:	74 0e                	je     0x10000bf6
10000be8:	83 ec 0c             	sub    esp,0xc
10000beb:	ff 73 2c             	push   DWORD PTR [ebx+0x2c]
10000bee:	e8 10 0c 00 00       	call   0x10001803
10000bf3:	83 c4 10             	add    esp,0x10
10000bf6:	83 ec 0c             	sub    esp,0xc
10000bf9:	53                   	push   ebx
10000bfa:	e8 04 0c 00 00       	call   0x10001803
10000bff:	83 c4 10             	add    esp,0x10
10000c02:	31 d2                	xor    edx,edx
10000c04:	89 d0                	mov    eax,edx
10000c06:	8b 5d fc             	mov    ebx,DWORD PTR [ebp-0x4]
10000c09:	c9                   	leave  
10000c0a:	c3                   	ret    

Disassembly of section .text.fputc:

10000c0b <.text.fputc>:
10000c0b:	55                   	push   ebp
10000c0c:	89 e5                	mov    ebp,esp
10000c0e:	56                   	push   esi
10000c0f:	53                   	push   ebx
10000c10:	83 ec 1c             	sub    esp,0x1c
10000c13:	8b 75 08             	mov    esi,DWORD PTR [ebp+0x8]
10000c16:	8b 5d 0c             	mov    ebx,DWORD PTR [ebp+0xc]
10000c19:	53                   	push   ebx
10000c1a:	e8 15 fe ff ff       	call   0x10000a34
10000c1f:	c7 43 3c 02 00 00 00 	mov    DWORD PTR [ebx+0x3c],0x2
10000c26:	89 f0                	mov    eax,esi
10000c28:	88 45 f7             	mov    BYTE PTR [ebp-0x9],al
10000c2b:	8b 43 0c             	mov    eax,DWORD PTR [ebx+0xc]
10000c2e:	83 c4 10             	add    esp,0x10
10000c31:	83 f8 02             	cmp    eax,0x2
10000c34:	75 28                	jne    0x10000c5e
10000c36:	51                   	push   ecx
10000c37:	6a 01                	push   0x1
10000c39:	8d 45 f7             	lea    eax,[ebp-0x9]
10000c3c:	50                   	push   eax
10000c3d:	53                   	push   ebx
10000c3e:	ff 53 24             	call   DWORD PTR [ebx+0x24]
10000c41:	83 c4 10             	add    esp,0x10
10000c44:	40                   	inc    eax
10000c45:	0f 85 bc 00 00 00    	jne    0x10000d07
10000c4b:	c6 43 09 01          	mov    BYTE PTR [ebx+0x9],0x1
10000c4f:	8b 43 40             	mov    eax,DWORD PTR [ebx+0x40]
10000c52:	48                   	dec    eax
10000c53:	89 43 40             	mov    DWORD PTR [ebx+0x40],eax
10000c56:	83 c8 ff             	or     eax,0xffffffff
10000c59:	e9 b2 00 00 00       	jmp    0x10000d10
10000c5e:	83 f8 01             	cmp    eax,0x1
10000c61:	75 59                	jne    0x10000cbc
10000c63:	8b 43 14             	mov    eax,DWORD PTR [ebx+0x14]
10000c66:	3b 43 18             	cmp    eax,DWORD PTR [ebx+0x18]
10000c69:	73 10                	jae    0x10000c7b
10000c6b:	8b 53 10             	mov    edx,DWORD PTR [ebx+0x10]
10000c6e:	8d 48 01             	lea    ecx,[eax+0x1]
10000c71:	89 4b 14             	mov    DWORD PTR [ebx+0x14],ecx
10000c74:	89 f1                	mov    ecx,esi
10000c76:	88 0c 02             	mov    BYTE PTR [edx+eax*1],cl
10000c79:	eb 28                	jmp    0x10000ca3
10000c7b:	83 ec 0c             	sub    esp,0xc
10000c7e:	53                   	push   ebx
10000c7f:	e8 6c fe ff ff       	call   0x10000af0
10000c84:	83 c4 10             	add    esp,0x10
10000c87:	83 f8 ff             	cmp    eax,0xffffffff
10000c8a:	75 06                	jne    0x10000c92
10000c8c:	c6 43 09 01          	mov    BYTE PTR [ebx+0x9],0x1
10000c90:	eb 57                	jmp    0x10000ce9
10000c92:	52                   	push   edx
10000c93:	52                   	push   edx
10000c94:	53                   	push   ebx
10000c95:	56                   	push   esi
10000c96:	e8 70 ff ff ff       	call   0x10000c0b
10000c9b:	83 c4 10             	add    esp,0x10
10000c9e:	83 f8 ff             	cmp    eax,0xffffffff
10000ca1:	74 46                	je     0x10000ce9
10000ca3:	80 7d f7 0a          	cmp    BYTE PTR [ebp-0x9],0xa
10000ca7:	75 5e                	jne    0x10000d07
10000ca9:	83 ec 0c             	sub    esp,0xc
10000cac:	53                   	push   ebx
10000cad:	e8 3e fe ff ff       	call   0x10000af0
10000cb2:	83 c4 10             	add    esp,0x10
10000cb5:	83 f8 ff             	cmp    eax,0xffffffff
10000cb8:	75 4d                	jne    0x10000d07
10000cba:	eb 2d                	jmp    0x10000ce9
10000cbc:	85 c0                	test   eax,eax
10000cbe:	75 47                	jne    0x10000d07
10000cc0:	8b 43 14             	mov    eax,DWORD PTR [ebx+0x14]
10000cc3:	3b 43 18             	cmp    eax,DWORD PTR [ebx+0x18]
10000cc6:	73 10                	jae    0x10000cd8
10000cc8:	8b 53 10             	mov    edx,DWORD PTR [ebx+0x10]
10000ccb:	8d 48 01             	lea    ecx,[eax+0x1]
10000cce:	89 4b 14             	mov    DWORD PTR [ebx+0x14],ecx
10000cd1:	89 f1                	mov    ecx,esi
10000cd3:	88 0c 02             	mov    BYTE PTR [edx+eax*1],cl
10000cd6:	eb 2f                	jmp    0x10000d07
10000cd8:	83 ec 0c             	sub    esp,0xc
10000cdb:	53                   	push   ebx
10000cdc:	e8 0f fe ff ff       	call   0x10000af0
10000ce1:	83 c4 10             	add    esp,0x10
10000ce4:	83 f8 ff             	cmp    eax,0xffffffff
10000ce7:	75 09                	jne    0x10000cf2
10000ce9:	8b 53 40             	mov    edx,DWORD PTR [ebx+0x40]
10000cec:	4a                   	dec    edx
10000ced:	89 53 40             	mov    DWORD PTR [ebx+0x40],edx
10000cf0:	eb 1e                	jmp    0x10000d10
10000cf2:	8b 43 40             	mov    eax,DWORD PTR [ebx+0x40]
10000cf5:	48                   	dec    eax
10000cf6:	89 43 40             	mov    DWORD PTR [ebx+0x40],eax
10000cf9:	50                   	push   eax
10000cfa:	50                   	push   eax
10000cfb:	53                   	push   ebx
10000cfc:	56                   	push   esi
10000cfd:	e8 09 ff ff ff       	call   0x10000c0b
10000d02:	83 c4 10             	add    esp,0x10
10000d05:	eb 09                	jmp    0x10000d10
10000d07:	8b 43 40             	mov    eax,DWORD PTR [ebx+0x40]
10000d0a:	48                   	dec    eax
10000d0b:	89 43 40             	mov    DWORD PTR [ebx+0x40],eax
10000d0e:	89 f0                	mov    eax,esi
10000d10:	8d 65 f8             	lea    esp,[ebp-0x8]
10000d13:	5b                   	pop    ebx
10000d14:	5e                   	pop    esi
10000d15:	5d                   	pop    ebp
10000d16:	c3                   	ret    

Disassembly of section .text.fgetc:

10000d17 <.text.fgetc>:
10000d17:	55                   	push   ebp
10000d18:	89 e5                	mov    ebp,esp
10000d1a:	56                   	push   esi
10000d1b:	53                   	push   ebx
10000d1c:	8b 5d 08             	mov    ebx,DWORD PTR [ebp+0x8]
10000d1f:	83 ec 0c             	sub    esp,0xc
10000d22:	53                   	push   ebx
10000d23:	e8 0c fd ff ff       	call   0x10000a34
10000d28:	c7 43 3c 01 00 00 00 	mov    DWORD PTR [ebx+0x3c],0x1
10000d2f:	8b 73 04             	mov    esi,DWORD PTR [ebx+0x4]
10000d32:	83 c4 10             	add    esp,0x10
10000d35:	83 fe ff             	cmp    esi,0xffffffff
10000d38:	74 09                	je     0x10000d43
10000d3a:	c7 43 04 ff ff ff ff 	mov    DWORD PTR [ebx+0x4],0xffffffff
10000d41:	eb 34                	jmp    0x10000d77
10000d43:	83 7b 14 00          	cmp    DWORD PTR [ebx+0x14],0x0
10000d47:	75 37                	jne    0x10000d80
10000d49:	8b 53 20             	mov    edx,DWORD PTR [ebx+0x20]
10000d4c:	b8 01 00 00 00       	mov    eax,0x1
10000d51:	83 7b 0c 02          	cmp    DWORD PTR [ebx+0xc],0x2
10000d55:	74 03                	je     0x10000d5a
10000d57:	8b 43 18             	mov    eax,DWORD PTR [ebx+0x18]
10000d5a:	51                   	push   ecx
10000d5b:	50                   	push   eax
10000d5c:	ff 73 10             	push   DWORD PTR [ebx+0x10]
10000d5f:	53                   	push   ebx
10000d60:	ff d2                	call   edx
10000d62:	83 c4 10             	add    esp,0x10
10000d65:	83 f8 ff             	cmp    eax,0xffffffff
10000d68:	75 06                	jne    0x10000d70
10000d6a:	c6 43 09 01          	mov    BYTE PTR [ebx+0x9],0x1
10000d6e:	eb 07                	jmp    0x10000d77
10000d70:	89 43 14             	mov    DWORD PTR [ebx+0x14],eax
10000d73:	85 c0                	test   eax,eax
10000d75:	75 09                	jne    0x10000d80
10000d77:	8b 43 40             	mov    eax,DWORD PTR [ebx+0x40]
10000d7a:	48                   	dec    eax
10000d7b:	89 43 40             	mov    DWORD PTR [ebx+0x40],eax
10000d7e:	eb 23                	jmp    0x10000da3
10000d80:	8b 53 10             	mov    edx,DWORD PTR [ebx+0x10]
10000d83:	0f be 32             	movsx  esi,BYTE PTR [edx]
10000d86:	8b 43 14             	mov    eax,DWORD PTR [ebx+0x14]
10000d89:	48                   	dec    eax
10000d8a:	89 43 14             	mov    DWORD PTR [ebx+0x14],eax
10000d8d:	51                   	push   ecx
10000d8e:	50                   	push   eax
10000d8f:	8d 42 01             	lea    eax,[edx+0x1]
10000d92:	50                   	push   eax
10000d93:	52                   	push   edx
10000d94:	e8 d2 f8 ff ff       	call   0x1000066b
10000d99:	8b 43 40             	mov    eax,DWORD PTR [ebx+0x40]
10000d9c:	48                   	dec    eax
10000d9d:	89 43 40             	mov    DWORD PTR [ebx+0x40],eax
10000da0:	83 c4 10             	add    esp,0x10
10000da3:	89 f0                	mov    eax,esi
10000da5:	8d 65 f8             	lea    esp,[ebp-0x8]
10000da8:	5b                   	pop    ebx
10000da9:	5e                   	pop    esi
10000daa:	5d                   	pop    ebp
10000dab:	c3                   	ret    

Disassembly of section .text.fputs:

10000dac <.text.fputs>:
10000dac:	55                   	push   ebp
10000dad:	89 e5                	mov    ebp,esp
10000daf:	56                   	push   esi
10000db0:	53                   	push   ebx
10000db1:	8b 5d 0c             	mov    ebx,DWORD PTR [ebp+0xc]
10000db4:	83 ec 0c             	sub    esp,0xc
10000db7:	53                   	push   ebx
10000db8:	e8 77 fc ff ff       	call   0x10000a34
10000dbd:	8b 75 08             	mov    esi,DWORD PTR [ebp+0x8]
10000dc0:	83 c4 10             	add    esp,0x10
10000dc3:	0f be 06             	movsx  eax,BYTE PTR [esi]
10000dc6:	84 c0                	test   al,al
10000dc8:	74 1b                	je     0x10000de5
10000dca:	52                   	push   edx
10000dcb:	52                   	push   edx
10000dcc:	53                   	push   ebx
10000dcd:	50                   	push   eax
10000dce:	e8 38 fe ff ff       	call   0x10000c0b
10000dd3:	46                   	inc    esi
10000dd4:	83 c4 10             	add    esp,0x10
10000dd7:	83 f8 ff             	cmp    eax,0xffffffff
10000dda:	75 e7                	jne    0x10000dc3
10000ddc:	8b 53 40             	mov    edx,DWORD PTR [ebx+0x40]
10000ddf:	4a                   	dec    edx
10000de0:	89 53 40             	mov    DWORD PTR [ebx+0x40],edx
10000de3:	eb 09                	jmp    0x10000dee
10000de5:	8b 43 40             	mov    eax,DWORD PTR [ebx+0x40]
10000de8:	48                   	dec    eax
10000de9:	89 43 40             	mov    DWORD PTR [ebx+0x40],eax
10000dec:	31 c0                	xor    eax,eax
10000dee:	8d 65 f8             	lea    esp,[ebp-0x8]
10000df1:	5b                   	pop    ebx
10000df2:	5e                   	pop    esi
10000df3:	5d                   	pop    ebp
10000df4:	c3                   	ret    

Disassembly of section .text.vfprintf:

10000df5 <.text.vfprintf>:
10000df5:	55                   	push   ebp
10000df6:	89 e5                	mov    ebp,esp
10000df8:	57                   	push   edi
10000df9:	56                   	push   esi
10000dfa:	53                   	push   ebx
10000dfb:	81 ec a8 00 00 00    	sub    esp,0xa8
10000e01:	8b 75 10             	mov    esi,DWORD PTR [ebp+0x10]
10000e04:	ff 75 08             	push   DWORD PTR [ebp+0x8]
10000e07:	e8 28 fc ff ff       	call   0x10000a34
10000e0c:	83 c4 10             	add    esp,0x10
10000e0f:	c7 85 70 ff ff ff 00 00 00 00 	mov    DWORD PTR [ebp-0x90],0x0
10000e19:	c7 85 7c ff ff ff 00 00 00 00 	mov    DWORD PTR [ebp-0x84],0x0
10000e23:	8b 45 0c             	mov    eax,DWORD PTR [ebp+0xc]
10000e26:	8b bd 70 ff ff ff    	mov    edi,DWORD PTR [ebp-0x90]
10000e2c:	0f be 04 38          	movsx  eax,BYTE PTR [eax+edi*1]
10000e30:	84 c0                	test   al,al
10000e32:	0f 84 27 08 00 00    	je     0x1000165f
10000e38:	3c 25                	cmp    al,0x25
10000e3a:	75 26                	jne    0x10000e62
10000e3c:	8b 85 70 ff ff ff    	mov    eax,DWORD PTR [ebp-0x90]
10000e42:	40                   	inc    eax
10000e43:	c6 85 58 ff ff ff 00 	mov    BYTE PTR [ebp-0xa8],0x0
10000e4a:	c6 85 64 ff ff ff 00 	mov    BYTE PTR [ebp-0x9c],0x0
10000e51:	c6 85 60 ff ff ff 00 	mov    BYTE PTR [ebp-0xa0],0x0
10000e58:	c6 45 8f 00          	mov    BYTE PTR [ebp-0x71],0x0
10000e5c:	c6 45 8e 00          	mov    BYTE PTR [ebp-0x72],0x0
10000e60:	eb 4c                	jmp    0x10000eae
10000e62:	52                   	push   edx
10000e63:	52                   	push   edx
10000e64:	ff 75 08             	push   DWORD PTR [ebp+0x8]
10000e67:	50                   	push   eax
10000e68:	e8 9e fd ff ff       	call   0x10000c0b
10000e6d:	ff 85 7c ff ff ff    	inc    DWORD PTR [ebp-0x84]
10000e73:	83 c4 10             	add    esp,0x10
10000e76:	e9 dd 04 00 00       	jmp    0x10001358
10000e7b:	8d 4a d5             	lea    ecx,[edx-0x2b]
10000e7e:	80 e1 fd             	and    cl,0xfd
10000e81:	0f 94 c3             	sete   bl
10000e84:	88 d1                	mov    cl,dl
10000e86:	83 e1 ef             	and    ecx,0xffffffef
10000e89:	80 f9 20             	cmp    cl,0x20
10000e8c:	0f 94 c1             	sete   cl
10000e8f:	08 d9                	or     cl,bl
10000e91:	74 42                	je     0x10000ed5
10000e93:	80 fa 30             	cmp    dl,0x30
10000e96:	74 28                	je     0x10000ec0
10000e98:	80 fa 2d             	cmp    dl,0x2d
10000e9b:	74 28                	je     0x10000ec5
10000e9d:	80 fa 20             	cmp    dl,0x20
10000ea0:	74 2b                	je     0x10000ecd
10000ea2:	80 fa 2b             	cmp    dl,0x2b
10000ea5:	75 06                	jne    0x10000ead
10000ea7:	88 8d 58 ff ff ff    	mov    BYTE PTR [ebp-0xa8],cl
10000ead:	40                   	inc    eax
10000eae:	8b 7d 0c             	mov    edi,DWORD PTR [ebp+0xc]
10000eb1:	0f be 14 07          	movsx  edx,BYTE PTR [edi+eax*1]
10000eb5:	80 fa 23             	cmp    dl,0x23
10000eb8:	75 c1                	jne    0x10000e7b
10000eba:	c6 45 8e 01          	mov    BYTE PTR [ebp-0x72],0x1
10000ebe:	eb ed                	jmp    0x10000ead
10000ec0:	88 4d 8f             	mov    BYTE PTR [ebp-0x71],cl
10000ec3:	eb e8                	jmp    0x10000ead
10000ec5:	88 8d 60 ff ff ff    	mov    BYTE PTR [ebp-0xa0],cl
10000ecb:	eb e0                	jmp    0x10000ead
10000ecd:	88 8d 64 ff ff ff    	mov    BYTE PTR [ebp-0x9c],cl
10000ed3:	eb d8                	jmp    0x10000ead
10000ed5:	8d 48 01             	lea    ecx,[eax+0x1]
10000ed8:	80 fa 2a             	cmp    dl,0x2a
10000edb:	75 22                	jne    0x10000eff
10000edd:	8d 46 04             	lea    eax,[esi+0x4]
10000ee0:	8b 36                	mov    esi,DWORD PTR [esi]
10000ee2:	89 b5 6c ff ff ff    	mov    DWORD PTR [ebp-0x94],esi
10000ee8:	85 f6                	test   esi,esi
10000eea:	79 0d                	jns    0x10000ef9
10000eec:	f7 9d 6c ff ff ff    	neg    DWORD PTR [ebp-0x94]
10000ef2:	c6 85 60 ff ff ff 01 	mov    BYTE PTR [ebp-0xa0],0x1
10000ef9:	89 c6                	mov    esi,eax
10000efb:	89 c8                	mov    eax,ecx
10000efd:	eb 44                	jmp    0x10000f43
10000eff:	8d 5a cf             	lea    ebx,[edx-0x31]
10000f02:	c7 85 6c ff ff ff ff ff ff ff 	mov    DWORD PTR [ebp-0x94],0xffffffff
10000f0c:	80 fb 08             	cmp    bl,0x8
10000f0f:	77 32                	ja     0x10000f43
10000f11:	8d 42 d0             	lea    eax,[edx-0x30]
10000f14:	89 85 6c ff ff ff    	mov    DWORD PTR [ebp-0x94],eax
10000f1a:	89 c8                	mov    eax,ecx
10000f1c:	8b 7d 0c             	mov    edi,DWORD PTR [ebp+0xc]
10000f1f:	0f be 0c 07          	movsx  ecx,BYTE PTR [edi+eax*1]
10000f23:	8d 78 01             	lea    edi,[eax+0x1]
10000f26:	8d 51 d0             	lea    edx,[ecx-0x30]
10000f29:	80 fa 09             	cmp    dl,0x9
10000f2c:	77 15                	ja     0x10000f43
10000f2e:	6b 9d 6c ff ff ff 0a 	imul   ebx,DWORD PTR [ebp-0x94],0xa
10000f35:	8d 44 0b d0          	lea    eax,[ebx+ecx*1-0x30]
10000f39:	89 85 6c ff ff ff    	mov    DWORD PTR [ebp-0x94],eax
10000f3f:	89 f8                	mov    eax,edi
10000f41:	eb d9                	jmp    0x10000f1c
10000f43:	8b 7d 0c             	mov    edi,DWORD PTR [ebp+0xc]
10000f46:	80 3c 07 2e          	cmp    BYTE PTR [edi+eax*1],0x2e
10000f4a:	75 73                	jne    0x10000fbf
10000f4c:	8d 48 01             	lea    ecx,[eax+0x1]
10000f4f:	80 7c 07 01 2a       	cmp    BYTE PTR [edi+eax*1+0x1],0x2a
10000f54:	75 23                	jne    0x10000f79
10000f56:	8d 5e 04             	lea    ebx,[esi+0x4]
10000f59:	8d 48 02             	lea    ecx,[eax+0x2]
10000f5c:	8b 06                	mov    eax,DWORD PTR [esi]
10000f5e:	89 45 88             	mov    DWORD PTR [ebp-0x78],eax
10000f61:	85 c0                	test   eax,eax
10000f63:	79 07                	jns    0x10000f6c
10000f65:	c7 45 88 ff ff ff ff 	mov    DWORD PTR [ebp-0x78],0xffffffff
10000f6c:	89 de                	mov    esi,ebx
10000f6e:	80 bd 58 ff ff ff 00 	cmp    BYTE PTR [ebp-0xa8],0x0
10000f75:	74 33                	je     0x10000faa
10000f77:	eb 35                	jmp    0x10000fae
10000f79:	c7 45 88 00 00 00 00 	mov    DWORD PTR [ebp-0x78],0x0
10000f80:	8b 45 0c             	mov    eax,DWORD PTR [ebp+0xc]
10000f83:	0f be 04 08          	movsx  eax,BYTE PTR [eax+ecx*1]
10000f87:	8d 59 01             	lea    ebx,[ecx+0x1]
10000f8a:	8d 50 d0             	lea    edx,[eax-0x30]
10000f8d:	80 fa 09             	cmp    dl,0x9
10000f90:	77 0f                	ja     0x10000fa1
10000f92:	6b 55 88 0a          	imul   edx,DWORD PTR [ebp-0x78],0xa
10000f96:	8d 44 02 d0          	lea    eax,[edx+eax*1-0x30]
10000f9a:	89 45 88             	mov    DWORD PTR [ebp-0x78],eax
10000f9d:	89 d9                	mov    ecx,ebx
10000f9f:	eb df                	jmp    0x10000f80
10000fa1:	80 bd 58 ff ff ff 00 	cmp    BYTE PTR [ebp-0xa8],0x0
10000fa8:	75 48                	jne    0x10000ff2
10000faa:	89 f3                	mov    ebx,esi
10000fac:	eb 07                	jmp    0x10000fb5
10000fae:	c6 85 64 ff ff ff 00 	mov    BYTE PTR [ebp-0x9c],0x0
10000fb5:	31 ff                	xor    edi,edi
10000fb7:	83 7d 88 ff          	cmp    DWORD PTR [ebp-0x78],0xffffffff
10000fbb:	75 40                	jne    0x10000ffd
10000fbd:	eb 18                	jmp    0x10000fd7
10000fbf:	80 bd 58 ff ff ff 00 	cmp    BYTE PTR [ebp-0xa8],0x0
10000fc6:	0f 84 85 06 00 00    	je     0x10001651
10000fcc:	89 f3                	mov    ebx,esi
10000fce:	c6 85 64 ff ff ff 00 	mov    BYTE PTR [ebp-0x9c],0x0
10000fd5:	89 c1                	mov    ecx,eax
10000fd7:	0f b6 7d 8f          	movzx  edi,BYTE PTR [ebp-0x71]
10000fdb:	83 f7 01             	xor    edi,0x1
10000fde:	8a 85 60 ff ff ff    	mov    al,BYTE PTR [ebp-0xa0]
10000fe4:	09 c7                	or     edi,eax
10000fe6:	83 f7 01             	xor    edi,0x1
10000fe9:	c7 45 88 ff ff ff ff 	mov    DWORD PTR [ebp-0x78],0xffffffff
10000ff0:	eb 0b                	jmp    0x10000ffd
10000ff2:	89 f3                	mov    ebx,esi
10000ff4:	c6 85 64 ff ff ff 00 	mov    BYTE PTR [ebp-0x9c],0x0
10000ffb:	31 ff                	xor    edi,edi
10000ffd:	8b 45 0c             	mov    eax,DWORD PTR [ebp+0xc]
10001000:	8a 04 08             	mov    al,BYTE PTR [eax+ecx*1]
10001003:	88 45 8f             	mov    BYTE PTR [ebp-0x71],al
10001006:	8d 41 01             	lea    eax,[ecx+0x1]
10001009:	89 85 70 ff ff ff    	mov    DWORD PTR [ebp-0x90],eax
1000100f:	8b 75 0c             	mov    esi,DWORD PTR [ebp+0xc]
10001012:	01 c6                	add    esi,eax
10001014:	80 7d 8f 68          	cmp    BYTE PTR [ebp-0x71],0x68
10001018:	75 14                	jne    0x1000102e
1000101a:	b0 68                	mov    al,0x68
1000101c:	80 3e 68             	cmp    BYTE PTR [esi],0x68
1000101f:	75 5f                	jne    0x10001080
10001021:	8d 41 02             	lea    eax,[ecx+0x2]
10001024:	89 85 70 ff ff ff    	mov    DWORD PTR [ebp-0x90],eax
1000102a:	b0 48                	mov    al,0x48
1000102c:	eb 52                	jmp    0x10001080
1000102e:	80 7d 8f 6c          	cmp    BYTE PTR [ebp-0x71],0x6c
10001032:	75 14                	jne    0x10001048
10001034:	b0 6c                	mov    al,0x6c
10001036:	80 3e 6c             	cmp    BYTE PTR [esi],0x6c
10001039:	75 45                	jne    0x10001080
1000103b:	8d 41 02             	lea    eax,[ecx+0x2]
1000103e:	89 85 70 ff ff ff    	mov    DWORD PTR [ebp-0x90],eax
10001044:	b0 71                	mov    al,0x71
10001046:	eb 38                	jmp    0x10001080
10001048:	b0 71                	mov    al,0x71
1000104a:	80 7d 8f 71          	cmp    BYTE PTR [ebp-0x71],0x71
1000104e:	74 30                	je     0x10001080
10001050:	b0 4c                	mov    al,0x4c
10001052:	80 7d 8f 4c          	cmp    BYTE PTR [ebp-0x71],0x4c
10001056:	74 28                	je     0x10001080
10001058:	b0 6a                	mov    al,0x6a
1000105a:	80 7d 8f 6a          	cmp    BYTE PTR [ebp-0x71],0x6a
1000105e:	74 20                	je     0x10001080
10001060:	0f b6 75 8f          	movzx  esi,BYTE PTR [ebp-0x71]
10001064:	83 e6 df             	and    esi,0xffffffdf
10001067:	b0 7a                	mov    al,0x7a
10001069:	89 f2                	mov    edx,esi
1000106b:	80 fa 5a             	cmp    dl,0x5a
1000106e:	74 10                	je     0x10001080
10001070:	b0 74                	mov    al,0x74
10001072:	80 7d 8f 74          	cmp    BYTE PTR [ebp-0x71],0x74
10001076:	74 08                	je     0x10001080
10001078:	89 8d 70 ff ff ff    	mov    DWORD PTR [ebp-0x90],ecx
1000107e:	31 c0                	xor    eax,eax
10001080:	8b 75 0c             	mov    esi,DWORD PTR [ebp+0xc]
10001083:	8b 8d 70 ff ff ff    	mov    ecx,DWORD PTR [ebp-0x90]
10001089:	8a 14 0e             	mov    dl,BYTE PTR [esi+ecx*1]
1000108c:	88 55 8f             	mov    BYTE PTR [ebp-0x71],dl
1000108f:	80 fa 25             	cmp    dl,0x25
10001092:	75 1c                	jne    0x100010b0
10001094:	50                   	push   eax
10001095:	50                   	push   eax
10001096:	ff 75 08             	push   DWORD PTR [ebp+0x8]
10001099:	6a 25                	push   0x25
1000109b:	e8 6b fb ff ff       	call   0x10000c0b
100010a0:	ff 85 7c ff ff ff    	inc    DWORD PTR [ebp-0x84]
100010a6:	83 c4 10             	add    esp,0x10
100010a9:	89 de                	mov    esi,ebx
100010ab:	e9 a8 02 00 00       	jmp    0x10001358
100010b0:	80 7d 8f 6e          	cmp    BYTE PTR [ebp-0x71],0x6e
100010b4:	75 54                	jne    0x1000110a
100010b6:	8b 13                	mov    edx,DWORD PTR [ebx]
100010b8:	8d 73 04             	lea    esi,[ebx+0x4]
100010bb:	3c 48                	cmp    al,0x48
100010bd:	75 0d                	jne    0x100010cc
100010bf:	8a 85 7c ff ff ff    	mov    al,BYTE PTR [ebp-0x84]
100010c5:	88 02                	mov    BYTE PTR [edx],al
100010c7:	e9 8c 02 00 00       	jmp    0x10001358
100010cc:	3c 68                	cmp    al,0x68
100010ce:	75 0e                	jne    0x100010de
100010d0:	8b 85 7c ff ff ff    	mov    eax,DWORD PTR [ebp-0x84]
100010d6:	66 89 02             	mov    WORD PTR [edx],ax
100010d9:	e9 7a 02 00 00       	jmp    0x10001358
100010de:	3c 6c                	cmp    al,0x6c
100010e0:	74 1b                	je     0x100010fd
100010e2:	3c 71                	cmp    al,0x71
100010e4:	74 04                	je     0x100010ea
100010e6:	3c 6a                	cmp    al,0x6a
100010e8:	75 13                	jne    0x100010fd
100010ea:	8b 85 7c ff ff ff    	mov    eax,DWORD PTR [ebp-0x84]
100010f0:	89 02                	mov    DWORD PTR [edx],eax
100010f2:	c1 f8 1f             	sar    eax,0x1f
100010f5:	89 42 04             	mov    DWORD PTR [edx+0x4],eax
100010f8:	e9 5b 02 00 00       	jmp    0x10001358
100010fd:	8b 85 7c ff ff ff    	mov    eax,DWORD PTR [ebp-0x84]
10001103:	89 02                	mov    DWORD PTR [edx],eax
10001105:	e9 4e 02 00 00       	jmp    0x10001358
1000110a:	80 7d 8f 64          	cmp    BYTE PTR [ebp-0x71],0x64
1000110e:	0f 94 c1             	sete   cl
10001111:	80 7d 8f 69          	cmp    BYTE PTR [ebp-0x71],0x69
10001115:	0f 94 c2             	sete   dl
10001118:	08 d1                	or     cl,dl
1000111a:	88 8d 68 ff ff ff    	mov    BYTE PTR [ebp-0x98],cl
10001120:	0f 85 6c 04 00 00    	jne    0x10001592
10001126:	80 7d 8f 75          	cmp    BYTE PTR [ebp-0x71],0x75
1000112a:	0f 84 4f 02 00 00    	je     0x1000137f
10001130:	80 7d 8f 70          	cmp    BYTE PTR [ebp-0x71],0x70
10001134:	0f 84 e2 04 00 00    	je     0x1000161c
1000113a:	80 7d 8f 6f          	cmp    BYTE PTR [ebp-0x71],0x6f
1000113e:	0f 84 3f 02 00 00    	je     0x10001383
10001144:	80 7d 8f 78          	cmp    BYTE PTR [ebp-0x71],0x78
10001148:	0f 84 35 02 00 00    	je     0x10001383
1000114e:	80 7d 8f 58          	cmp    BYTE PTR [ebp-0x71],0x58
10001152:	0f 84 2b 02 00 00    	je     0x10001383
10001158:	80 7d 8f 63          	cmp    BYTE PTR [ebp-0x71],0x63
1000115c:	75 1e                	jne    0x1000117c
1000115e:	8b 03                	mov    eax,DWORD PTR [ebx]
10001160:	88 45 a7             	mov    BYTE PTR [ebp-0x59],al
10001163:	c6 45 a8 00          	mov    BYTE PTR [ebp-0x58],0x0
10001167:	83 c3 04             	add    ebx,0x4
1000116a:	c6 45 8f 00          	mov    BYTE PTR [ebp-0x71],0x0
1000116e:	8d 45 a7             	lea    eax,[ebp-0x59]
10001171:	89 85 64 ff ff ff    	mov    DWORD PTR [ebp-0x9c],eax
10001177:	e9 f5 01 00 00       	jmp    0x10001371
1000117c:	80 7d 8f 73          	cmp    BYTE PTR [ebp-0x71],0x73
10001180:	0f 85 dd 01 00 00    	jne    0x10001363
10001186:	8d 73 04             	lea    esi,[ebx+0x4]
10001189:	8b 03                	mov    eax,DWORD PTR [ebx]
1000118b:	89 85 64 ff ff ff    	mov    DWORD PTR [ebp-0x9c],eax
10001191:	83 7d 88 ff          	cmp    DWORD PTR [ebp-0x78],0xffffffff
10001195:	74 16                	je     0x100011ad
10001197:	8b 45 88             	mov    eax,DWORD PTR [ebp-0x78]
1000119a:	89 85 78 ff ff ff    	mov    DWORD PTR [ebp-0x88],eax
100011a0:	c6 45 8f 00          	mov    BYTE PTR [ebp-0x71],0x0
100011a4:	c6 85 74 ff ff ff 00 	mov    BYTE PTR [ebp-0x8c],0x0
100011ab:	eb 29                	jmp    0x100011d6
100011ad:	c6 45 8f 00          	mov    BYTE PTR [ebp-0x71],0x0
100011b1:	c6 85 74 ff ff ff 00 	mov    BYTE PTR [ebp-0x8c],0x0
100011b8:	83 ec 0c             	sub    esp,0xc
100011bb:	ff b5 64 ff ff ff    	push   DWORD PTR [ebp-0x9c]
100011c1:	e8 09 f5 ff ff       	call   0x100006cf
100011c6:	89 45 88             	mov    DWORD PTR [ebp-0x78],eax
100011c9:	83 c4 10             	add    esp,0x10
100011cc:	c7 85 78 ff ff ff ff ff ff ff 	mov    DWORD PTR [ebp-0x88],0xffffffff
100011d6:	8b 9d 6c ff ff ff    	mov    ebx,DWORD PTR [ebp-0x94]
100011dc:	2b 5d 88             	sub    ebx,DWORD PTR [ebp-0x78]
100011df:	31 c0                	xor    eax,eax
100011e1:	80 bd 74 ff ff ff 00 	cmp    BYTE PTR [ebp-0x8c],0x0
100011e8:	0f 95 c0             	setne  al
100011eb:	29 c3                	sub    ebx,eax
100011ed:	80 7d 8f 00          	cmp    BYTE PTR [ebp-0x71],0x0
100011f1:	0f 95 c0             	setne  al
100011f4:	31 c9                	xor    ecx,ecx
100011f6:	22 45 8e             	and    al,BYTE PTR [ebp-0x72]
100011f9:	88 85 6c ff ff ff    	mov    BYTE PTR [ebp-0x94],al
100011ff:	74 0a                	je     0x1000120b
10001201:	31 c9                	xor    ecx,ecx
10001203:	80 7d 8f 6f          	cmp    BYTE PTR [ebp-0x71],0x6f
10001207:	0f 95 c1             	setne  cl
1000120a:	41                   	inc    ecx
1000120b:	29 cb                	sub    ebx,ecx
1000120d:	80 bd 60 ff ff ff 01 	cmp    BYTE PTR [ebp-0xa0],0x1
10001214:	74 1d                	je     0x10001233
10001216:	b8 f8 1a 00 10       	mov    eax,0x10001af8
1000121b:	89 fa                	mov    edx,edi
1000121d:	84 95 68 ff ff ff    	test   BYTE PTR [ebp-0x98],dl
10001223:	75 13                	jne    0x10001238
10001225:	b8 00 1b 00 10       	mov    eax,0x10001b00
1000122a:	80 bd 60 ff ff ff 00 	cmp    BYTE PTR [ebp-0xa0],0x0
10001231:	74 05                	je     0x10001238
10001233:	b8 fc 1a 00 10       	mov    eax,0x10001afc
10001238:	89 45 88             	mov    DWORD PTR [ebp-0x78],eax
1000123b:	0f be 45 8f          	movsx  eax,BYTE PTR [ebp-0x71]
1000123f:	89 85 68 ff ff ff    	mov    DWORD PTR [ebp-0x98],eax
10001245:	0f be 85 74 ff ff ff 	movsx  eax,BYTE PTR [ebp-0x8c]
1000124c:	89 85 58 ff ff ff    	mov    DWORD PTR [ebp-0xa8],eax
10001252:	8b 45 88             	mov    eax,DWORD PTR [ebp-0x78]
10001255:	8a 00                	mov    al,BYTE PTR [eax]
10001257:	84 c0                	test   al,al
10001259:	0f 84 f9 00 00 00    	je     0x10001358
1000125f:	3c 73                	cmp    al,0x73
10001261:	75 5f                	jne    0x100012c2
10001263:	8b bd 7c ff ff ff    	mov    edi,DWORD PTR [ebp-0x84]
10001269:	80 bd 74 ff ff ff 00 	cmp    BYTE PTR [ebp-0x8c],0x0
10001270:	74 14                	je     0x10001286
10001272:	50                   	push   eax
10001273:	50                   	push   eax
10001274:	ff 75 08             	push   DWORD PTR [ebp+0x8]
10001277:	ff b5 58 ff ff ff    	push   DWORD PTR [ebp-0xa8]
1000127d:	e8 89 f9 ff ff       	call   0x10000c0b
10001282:	47                   	inc    edi
10001283:	83 c4 10             	add    esp,0x10
10001286:	80 bd 6c ff ff ff 00 	cmp    BYTE PTR [ebp-0x94],0x0
1000128d:	0f 84 b7 00 00 00    	je     0x1000134a
10001293:	80 7d 8f 6f          	cmp    BYTE PTR [ebp-0x71],0x6f
10001297:	74 10                	je     0x100012a9
10001299:	47                   	inc    edi
1000129a:	50                   	push   eax
1000129b:	50                   	push   eax
1000129c:	ff 75 08             	push   DWORD PTR [ebp+0x8]
1000129f:	6a 30                	push   0x30
100012a1:	e8 65 f9 ff ff       	call   0x10000c0b
100012a6:	83 c4 10             	add    esp,0x10
100012a9:	51                   	push   ecx
100012aa:	51                   	push   ecx
100012ab:	ff 75 08             	push   DWORD PTR [ebp+0x8]
100012ae:	ff b5 68 ff ff ff    	push   DWORD PTR [ebp-0x98]
100012b4:	e8 52 f9 ff ff       	call   0x10000c0b
100012b9:	47                   	inc    edi
100012ba:	83 c4 10             	add    esp,0x10
100012bd:	e9 88 00 00 00       	jmp    0x1000134a
100012c2:	3c 64                	cmp    al,0x64
100012c4:	74 07                	je     0x100012cd
100012c6:	89 da                	mov    edx,ebx
100012c8:	0f be f8             	movsx  edi,al
100012cb:	eb 49                	jmp    0x10001316
100012cd:	31 d2                	xor    edx,edx
100012cf:	8b 85 7c ff ff ff    	mov    eax,DWORD PTR [ebp-0x84]
100012d5:	8d 3c 10             	lea    edi,[eax+edx*1]
100012d8:	8b 85 64 ff ff ff    	mov    eax,DWORD PTR [ebp-0x9c]
100012de:	0f be 04 10          	movsx  eax,BYTE PTR [eax+edx*1]
100012e2:	84 c0                	test   al,al
100012e4:	74 64                	je     0x1000134a
100012e6:	83 bd 78 ff ff ff ff 	cmp    DWORD PTR [ebp-0x88],0xffffffff
100012ed:	75 1d                	jne    0x1000130c
100012ef:	89 95 60 ff ff ff    	mov    DWORD PTR [ebp-0xa0],edx
100012f5:	52                   	push   edx
100012f6:	52                   	push   edx
100012f7:	ff 75 08             	push   DWORD PTR [ebp+0x8]
100012fa:	50                   	push   eax
100012fb:	e8 0b f9 ff ff       	call   0x10000c0b
10001300:	8b 95 60 ff ff ff    	mov    edx,DWORD PTR [ebp-0xa0]
10001306:	42                   	inc    edx
10001307:	83 c4 10             	add    esp,0x10
1000130a:	eb c3                	jmp    0x100012cf
1000130c:	3b 95 78 ff ff ff    	cmp    edx,DWORD PTR [ebp-0x88]
10001312:	7c db                	jl     0x100012ef
10001314:	eb 34                	jmp    0x1000134a
10001316:	85 d2                	test   edx,edx
10001318:	7e 1d                	jle    0x10001337
1000131a:	89 95 60 ff ff ff    	mov    DWORD PTR [ebp-0xa0],edx
10001320:	50                   	push   eax
10001321:	50                   	push   eax
10001322:	ff 75 08             	push   DWORD PTR [ebp+0x8]
10001325:	57                   	push   edi
10001326:	e8 e0 f8 ff ff       	call   0x10000c0b
1000132b:	8b 95 60 ff ff ff    	mov    edx,DWORD PTR [ebp-0xa0]
10001331:	4a                   	dec    edx
10001332:	83 c4 10             	add    esp,0x10
10001335:	eb df                	jmp    0x10001316
10001337:	89 d8                	mov    eax,ebx
10001339:	85 db                	test   ebx,ebx
1000133b:	79 02                	jns    0x1000133f
1000133d:	31 c0                	xor    eax,eax
1000133f:	8b bd 7c ff ff ff    	mov    edi,DWORD PTR [ebp-0x84]
10001345:	01 c7                	add    edi,eax
10001347:	4b                   	dec    ebx
10001348:	29 c3                	sub    ebx,eax
1000134a:	ff 45 88             	inc    DWORD PTR [ebp-0x78]
1000134d:	89 bd 7c ff ff ff    	mov    DWORD PTR [ebp-0x84],edi
10001353:	e9 fa fe ff ff       	jmp    0x10001252
10001358:	ff 85 70 ff ff ff    	inc    DWORD PTR [ebp-0x90]
1000135e:	e9 c0 fa ff ff       	jmp    0x10000e23
10001363:	c6 45 8f 00          	mov    BYTE PTR [ebp-0x71],0x0
10001367:	c7 85 64 ff ff ff 04 1b 00 10 	mov    DWORD PTR [ebp-0x9c],0x10001b04
10001371:	c6 85 74 ff ff ff 00 	mov    BYTE PTR [ebp-0x8c],0x0
10001378:	89 de                	mov    esi,ebx
1000137a:	e9 39 fe ff ff       	jmp    0x100011b8
1000137f:	c6 45 8f 00          	mov    BYTE PTR [ebp-0x71],0x0
10001383:	83 7d 88 ff          	cmp    DWORD PTR [ebp-0x78],0xffffffff
10001387:	75 0f                	jne    0x10001398
10001389:	89 fa                	mov    edx,edi
1000138b:	88 95 68 ff ff ff    	mov    BYTE PTR [ebp-0x98],dl
10001391:	c7 45 88 01 00 00 00 	mov    DWORD PTR [ebp-0x78],0x1
10001398:	3c 48                	cmp    al,0x48
1000139a:	75 0e                	jne    0x100013aa
1000139c:	8d 43 04             	lea    eax,[ebx+0x4]
1000139f:	89 85 78 ff ff ff    	mov    DWORD PTR [ebp-0x88],eax
100013a5:	0f b6 03             	movzx  eax,BYTE PTR [ebx]
100013a8:	eb 10                	jmp    0x100013ba
100013aa:	3c 68                	cmp    al,0x68
100013ac:	75 18                	jne    0x100013c6
100013ae:	8d 43 04             	lea    eax,[ebx+0x4]
100013b1:	89 85 78 ff ff ff    	mov    DWORD PTR [ebp-0x88],eax
100013b7:	0f b7 03             	movzx  eax,WORD PTR [ebx]
100013ba:	89 45 80             	mov    DWORD PTR [ebp-0x80],eax
100013bd:	c7 45 84 00 00 00 00 	mov    DWORD PTR [ebp-0x7c],0x0
100013c4:	eb 51                	jmp    0x10001417
100013c6:	3c 6c                	cmp    al,0x6c
100013c8:	75 0b                	jne    0x100013d5
100013ca:	8d 43 04             	lea    eax,[ebx+0x4]
100013cd:	89 85 78 ff ff ff    	mov    DWORD PTR [ebp-0x88],eax
100013d3:	eb 25                	jmp    0x100013fa
100013d5:	3c 71                	cmp    al,0x71
100013d7:	74 04                	je     0x100013dd
100013d9:	3c 6a                	cmp    al,0x6a
100013db:	75 10                	jne    0x100013ed
100013dd:	8d 43 08             	lea    eax,[ebx+0x8]
100013e0:	89 85 78 ff ff ff    	mov    DWORD PTR [ebp-0x88],eax
100013e6:	8b 03                	mov    eax,DWORD PTR [ebx]
100013e8:	8b 53 04             	mov    edx,DWORD PTR [ebx+0x4]
100013eb:	eb 24                	jmp    0x10001411
100013ed:	8d 73 04             	lea    esi,[ebx+0x4]
100013f0:	89 b5 78 ff ff ff    	mov    DWORD PTR [ebp-0x88],esi
100013f6:	3c 7a                	cmp    al,0x7a
100013f8:	75 04                	jne    0x100013fe
100013fa:	8b 03                	mov    eax,DWORD PTR [ebx]
100013fc:	eb 11                	jmp    0x1000140f
100013fe:	3c 74                	cmp    al,0x74
10001400:	8b 03                	mov    eax,DWORD PTR [ebx]
10001402:	75 0b                	jne    0x1000140f
10001404:	89 45 80             	mov    DWORD PTR [ebp-0x80],eax
10001407:	c1 f8 1f             	sar    eax,0x1f
1000140a:	89 45 84             	mov    DWORD PTR [ebp-0x7c],eax
1000140d:	eb 08                	jmp    0x10001417
1000140f:	31 d2                	xor    edx,edx
10001411:	89 45 80             	mov    DWORD PTR [ebp-0x80],eax
10001414:	89 55 84             	mov    DWORD PTR [ebp-0x7c],edx
10001417:	c6 85 74 ff ff ff 2b 	mov    BYTE PTR [ebp-0x8c],0x2b
1000141e:	80 bd 58 ff ff ff 00 	cmp    BYTE PTR [ebp-0xa8],0x0
10001425:	75 7f                	jne    0x100014a6
10001427:	80 bd 64 ff ff ff 00 	cmp    BYTE PTR [ebp-0x9c],0x0
1000142e:	0f 95 c0             	setne  al
10001431:	c1 e0 05             	shl    eax,0x5
10001434:	88 85 74 ff ff ff    	mov    BYTE PTR [ebp-0x8c],al
1000143a:	eb 6a                	jmp    0x100014a6
1000143c:	3c 71                	cmp    al,0x71
1000143e:	0f 85 9a 01 00 00    	jne    0x100015de
10001444:	8d 43 08             	lea    eax,[ebx+0x8]
10001447:	89 85 78 ff ff ff    	mov    DWORD PTR [ebp-0x88],eax
1000144d:	8b 03                	mov    eax,DWORD PTR [ebx]
1000144f:	8b 53 04             	mov    edx,DWORD PTR [ebx+0x4]
10001452:	89 c1                	mov    ecx,eax
10001454:	89 d3                	mov    ebx,edx
10001456:	89 db                	mov    ebx,ebx
10001458:	c1 fb 1f             	sar    ebx,0x1f
1000145b:	89 d9                	mov    ecx,ebx
1000145d:	89 cf                	mov    edi,ecx
1000145f:	31 c7                	xor    edi,eax
10001461:	89 7d 80             	mov    DWORD PTR [ebp-0x80],edi
10001464:	89 df                	mov    edi,ebx
10001466:	31 d7                	xor    edi,edx
10001468:	89 7d 84             	mov    DWORD PTR [ebp-0x7c],edi
1000146b:	29 4d 80             	sub    DWORD PTR [ebp-0x80],ecx
1000146e:	19 5d 84             	sbb    DWORD PTR [ebp-0x7c],ebx
10001471:	85 d2                	test   edx,edx
10001473:	0f 88 7e 01 00 00    	js     0x100015f7
10001479:	80 bd 58 ff ff ff 00 	cmp    BYTE PTR [ebp-0xa8],0x0
10001480:	c6 45 8f 00          	mov    BYTE PTR [ebp-0x71],0x0
10001484:	0f 85 7d 01 00 00    	jne    0x10001607
1000148a:	80 bd 64 ff ff ff 01 	cmp    BYTE PTR [ebp-0x9c],0x1
10001491:	19 c0                	sbb    eax,eax
10001493:	89 85 74 ff ff ff    	mov    DWORD PTR [ebp-0x8c],eax
10001499:	f6 95 74 ff ff ff    	not    BYTE PTR [ebp-0x8c]
1000149f:	80 a5 74 ff ff ff 20 	and    BYTE PTR [ebp-0x8c],0x20
100014a6:	50                   	push   eax
100014a7:	6a 20                	push   0x20
100014a9:	6a 00                	push   0x0
100014ab:	8d 45 a7             	lea    eax,[ebp-0x59]
100014ae:	50                   	push   eax
100014af:	e8 e6 f1 ff ff       	call   0x1000069a
100014b4:	8d 7d c7             	lea    edi,[ebp-0x39]
100014b7:	be 14 1b 00 10       	mov    esi,0x10001b14
100014bc:	b9 21 00 00 00       	mov    ecx,0x21
100014c1:	f3 a4                	rep movs BYTE PTR es:[edi],BYTE PTR ds:[esi]
100014c3:	83 c4 10             	add    esp,0x10
100014c6:	80 7d 8f 00          	cmp    BYTE PTR [ebp-0x71],0x0
100014ca:	74 18                	je     0x100014e4
100014cc:	80 7d 8f 6f          	cmp    BYTE PTR [ebp-0x71],0x6f
100014d0:	74 19                	je     0x100014eb
100014d2:	b8 10 00 00 00       	mov    eax,0x10
100014d7:	80 7d 8f 78          	cmp    BYTE PTR [ebp-0x71],0x78
100014db:	75 13                	jne    0x100014f0
100014dd:	be 10 00 00 00       	mov    esi,0x10
100014e2:	eb 0e                	jmp    0x100014f2
100014e4:	b8 0a 00 00 00       	mov    eax,0xa
100014e9:	eb 05                	jmp    0x100014f0
100014eb:	b8 08 00 00 00       	mov    eax,0x8
100014f0:	31 f6                	xor    esi,esi
100014f2:	c7 85 64 ff ff ff 1f 00 00 00 	mov    DWORD PTR [ebp-0x9c],0x1f
100014fc:	89 85 58 ff ff ff    	mov    DWORD PTR [ebp-0xa8],eax
10001502:	c1 f8 1f             	sar    eax,0x1f
10001505:	89 85 5c ff ff ff    	mov    DWORD PTR [ebp-0xa4],eax
1000150b:	8b 85 64 ff ff ff    	mov    eax,DWORD PTR [ebp-0x9c]
10001511:	8b 5d 88             	mov    ebx,DWORD PTR [ebp-0x78]
10001514:	8d 44 18 e1          	lea    eax,[eax+ebx*1-0x1f]
10001518:	8b 55 80             	mov    edx,DWORD PTR [ebp-0x80]
1000151b:	0b 55 84             	or     edx,DWORD PTR [ebp-0x7c]
1000151e:	74 46                	je     0x10001566
10001520:	8d 45 90             	lea    eax,[ebp-0x70]
10001523:	83 ec 0c             	sub    esp,0xc
10001526:	50                   	push   eax
10001527:	ff b5 5c ff ff ff    	push   DWORD PTR [ebp-0xa4]
1000152d:	ff b5 58 ff ff ff    	push   DWORD PTR [ebp-0xa8]
10001533:	ff 75 84             	push   DWORD PTR [ebp-0x7c]
10001536:	ff 75 80             	push   DWORD PTR [ebp-0x80]
10001539:	e8 e2 ea ff ff       	call   0x10000020
1000153e:	83 c4 20             	add    esp,0x20
10001541:	89 45 80             	mov    DWORD PTR [ebp-0x80],eax
10001544:	89 55 84             	mov    DWORD PTR [ebp-0x7c],edx
10001547:	ff 8d 64 ff ff ff    	dec    DWORD PTR [ebp-0x9c]
1000154d:	89 f1                	mov    ecx,esi
1000154f:	03 4d 90             	add    ecx,DWORD PTR [ebp-0x70]
10001552:	8d 45 e8             	lea    eax,[ebp-0x18]
10001555:	01 c1                	add    ecx,eax
10001557:	8a 49 df             	mov    cl,BYTE PTR [ecx-0x21]
1000155a:	8b 85 64 ff ff ff    	mov    eax,DWORD PTR [ebp-0x9c]
10001560:	88 4c 05 a7          	mov    BYTE PTR [ebp+eax*1-0x59],cl
10001564:	eb a5                	jmp    0x1000150b
10001566:	85 c0                	test   eax,eax
10001568:	7f b6                	jg     0x10001520
1000156a:	8b 85 64 ff ff ff    	mov    eax,DWORD PTR [ebp-0x9c]
10001570:	8d 44 05 a7          	lea    eax,[ebp+eax*1-0x59]
10001574:	89 85 64 ff ff ff    	mov    DWORD PTR [ebp-0x9c],eax
1000157a:	8b 9d 78 ff ff ff    	mov    ebx,DWORD PTR [ebp-0x88]
10001580:	8b bd 68 ff ff ff    	mov    edi,DWORD PTR [ebp-0x98]
10001586:	c6 85 68 ff ff ff 01 	mov    BYTE PTR [ebp-0x98],0x1
1000158d:	e9 e6 fd ff ff       	jmp    0x10001378
10001592:	83 7d 88 ff          	cmp    DWORD PTR [ebp-0x78],0xffffffff
10001596:	75 7b                	jne    0x10001613
10001598:	89 f9                	mov    ecx,edi
1000159a:	88 8d 68 ff ff ff    	mov    BYTE PTR [ebp-0x98],cl
100015a0:	c7 45 88 01 00 00 00 	mov    DWORD PTR [ebp-0x78],0x1
100015a7:	3c 48                	cmp    al,0x48
100015a9:	75 0e                	jne    0x100015b9
100015ab:	8d 43 04             	lea    eax,[ebx+0x4]
100015ae:	89 85 78 ff ff ff    	mov    DWORD PTR [ebp-0x88],eax
100015b4:	0f be 03             	movsx  eax,BYTE PTR [ebx]
100015b7:	eb 38                	jmp    0x100015f1
100015b9:	3c 68                	cmp    al,0x68
100015bb:	75 0e                	jne    0x100015cb
100015bd:	8d 43 04             	lea    eax,[ebx+0x4]
100015c0:	89 85 78 ff ff ff    	mov    DWORD PTR [ebp-0x88],eax
100015c6:	0f bf 03             	movsx  eax,WORD PTR [ebx]
100015c9:	eb 26                	jmp    0x100015f1
100015cb:	3c 6c                	cmp    al,0x6c
100015cd:	0f 85 69 fe ff ff    	jne    0x1000143c
100015d3:	8d 43 04             	lea    eax,[ebx+0x4]
100015d6:	89 85 78 ff ff ff    	mov    DWORD PTR [ebp-0x88],eax
100015dc:	eb 11                	jmp    0x100015ef
100015de:	3c 6a                	cmp    al,0x6a
100015e0:	0f 84 5e fe ff ff    	je     0x10001444
100015e6:	8d 73 04             	lea    esi,[ebx+0x4]
100015e9:	89 b5 78 ff ff ff    	mov    DWORD PTR [ebp-0x88],esi
100015ef:	8b 03                	mov    eax,DWORD PTR [ebx]
100015f1:	99                   	cdq    
100015f2:	e9 5b fe ff ff       	jmp    0x10001452
100015f7:	c6 45 8f 00          	mov    BYTE PTR [ebp-0x71],0x0
100015fb:	c6 85 74 ff ff ff 2d 	mov    BYTE PTR [ebp-0x8c],0x2d
10001602:	e9 9f fe ff ff       	jmp    0x100014a6
10001607:	c6 85 74 ff ff ff 2b 	mov    BYTE PTR [ebp-0x8c],0x2b
1000160e:	e9 93 fe ff ff       	jmp    0x100014a6
10001613:	c6 85 68 ff ff ff 00 	mov    BYTE PTR [ebp-0x98],0x0
1000161a:	eb 8b                	jmp    0x100015a7
1000161c:	83 7d 88 ff          	cmp    DWORD PTR [ebp-0x78],0xffffffff
10001620:	75 0f                	jne    0x10001631
10001622:	89 f8                	mov    eax,edi
10001624:	88 85 68 ff ff ff    	mov    BYTE PTR [ebp-0x98],al
1000162a:	c7 45 88 01 00 00 00 	mov    DWORD PTR [ebp-0x78],0x1
10001631:	8d 43 04             	lea    eax,[ebx+0x4]
10001634:	89 85 78 ff ff ff    	mov    DWORD PTR [ebp-0x88],eax
1000163a:	8b 03                	mov    eax,DWORD PTR [ebx]
1000163c:	31 d2                	xor    edx,edx
1000163e:	89 45 80             	mov    DWORD PTR [ebp-0x80],eax
10001641:	89 55 84             	mov    DWORD PTR [ebp-0x7c],edx
10001644:	c6 45 8f 78          	mov    BYTE PTR [ebp-0x71],0x78
10001648:	c6 45 8e 01          	mov    BYTE PTR [ebp-0x72],0x1
1000164c:	e9 c6 fd ff ff       	jmp    0x10001417
10001651:	89 c1                	mov    ecx,eax
10001653:	c7 45 88 ff ff ff ff 	mov    DWORD PTR [ebp-0x78],0xffffffff
1000165a:	e9 4b f9 ff ff       	jmp    0x10000faa
1000165f:	8b 45 08             	mov    eax,DWORD PTR [ebp+0x8]
10001662:	8b 40 40             	mov    eax,DWORD PTR [eax+0x40]
10001665:	48                   	dec    eax
10001666:	8b 75 08             	mov    esi,DWORD PTR [ebp+0x8]
10001669:	89 46 40             	mov    DWORD PTR [esi+0x40],eax
1000166c:	8b 85 7c ff ff ff    	mov    eax,DWORD PTR [ebp-0x84]
10001672:	8d 65 f4             	lea    esp,[ebp-0xc]
10001675:	5b                   	pop    ebx
10001676:	5e                   	pop    esi
10001677:	5f                   	pop    edi
10001678:	5d                   	pop    ebp
10001679:	c3                   	ret    

Disassembly of section .text.vsnprintf:

1000167a <.text.vsnprintf>:
1000167a:	55                   	push   ebp
1000167b:	89 e5                	mov    ebp,esp
1000167d:	57                   	push   edi
1000167e:	56                   	push   esi
1000167f:	53                   	push   ebx
10001680:	83 ec 10             	sub    esp,0x10
10001683:	8b 45 0c             	mov    eax,DWORD PTR [ebp+0xc]
10001686:	8d 78 ff             	lea    edi,[eax-0x1]
10001689:	68 35 1b 00 10       	push   0x10001b35
1000168e:	57                   	push   edi
1000168f:	ff 75 08             	push   DWORD PTR [ebp+0x8]
10001692:	e8 4c f2 ff ff       	call   0x100008e3
10001697:	83 c4 10             	add    esp,0x10
1000169a:	85 c0                	test   eax,eax
1000169c:	74 2a                	je     0x100016c8
1000169e:	89 c6                	mov    esi,eax
100016a0:	50                   	push   eax
100016a1:	ff 75 14             	push   DWORD PTR [ebp+0x14]
100016a4:	ff 75 10             	push   DWORD PTR [ebp+0x10]
100016a7:	56                   	push   esi
100016a8:	e8 48 f7 ff ff       	call   0x10000df5
100016ad:	89 c3                	mov    ebx,eax
100016af:	89 34 24             	mov    DWORD PTR [esp],esi
100016b2:	e8 e0 f4 ff ff       	call   0x10000b97
100016b7:	83 c4 10             	add    esp,0x10
100016ba:	83 fb ff             	cmp    ebx,0xffffffff
100016bd:	74 09                	je     0x100016c8
100016bf:	85 c0                	test   eax,eax
100016c1:	74 0a                	je     0x100016cd
100016c3:	a3 00 20 00 10       	mov    ds:0x10002000,eax
100016c8:	83 cb ff             	or     ebx,0xffffffff
100016cb:	eb 0f                	jmp    0x100016dc
100016cd:	39 df                	cmp    edi,ebx
100016cf:	7f 0b                	jg     0x100016dc
100016d1:	8b 45 08             	mov    eax,DWORD PTR [ebp+0x8]
100016d4:	8b 55 0c             	mov    edx,DWORD PTR [ebp+0xc]
100016d7:	c6 44 10 ff 00       	mov    BYTE PTR [eax+edx*1-0x1],0x0
100016dc:	89 d8                	mov    eax,ebx
100016de:	8d 65 f4             	lea    esp,[ebp-0xc]
100016e1:	5b                   	pop    ebx
100016e2:	5e                   	pop    esi
100016e3:	5f                   	pop    edi
100016e4:	5d                   	pop    ebp
100016e5:	c3                   	ret    

Disassembly of section .text.vsprintf:

100016e6 <.text.vsprintf>:
100016e6:	55                   	push   ebp
100016e7:	89 e5                	mov    ebp,esp
100016e9:	83 ec 08             	sub    esp,0x8
100016ec:	ff 75 10             	push   DWORD PTR [ebp+0x10]
100016ef:	ff 75 0c             	push   DWORD PTR [ebp+0xc]
100016f2:	68 ff ff ff 7f       	push   0x7fffffff
100016f7:	ff 75 08             	push   DWORD PTR [ebp+0x8]
100016fa:	e8 7b ff ff ff       	call   0x1000167a
100016ff:	c9                   	leave  
10001700:	c3                   	ret    

Disassembly of section .text.vprintf:

10001701 <.text.vprintf>:
10001701:	55                   	push   ebp
10001702:	89 e5                	mov    ebp,esp
10001704:	83 ec 0c             	sub    esp,0xc
10001707:	ff 75 0c             	push   DWORD PTR [ebp+0xc]
1000170a:	ff 75 08             	push   DWORD PTR [ebp+0x8]
1000170d:	ff 35 04 20 00 10    	push   DWORD PTR ds:0x10002004
10001713:	e8 dd f6 ff ff       	call   0x10000df5
10001718:	c9                   	leave  
10001719:	c3                   	ret    

Disassembly of section .text.fprintf:

1000171a <.text.fprintf>:
1000171a:	55                   	push   ebp
1000171b:	89 e5                	mov    ebp,esp
1000171d:	83 ec 0c             	sub    esp,0xc
10001720:	8d 45 10             	lea    eax,[ebp+0x10]
10001723:	50                   	push   eax
10001724:	ff 75 0c             	push   DWORD PTR [ebp+0xc]
10001727:	ff 75 08             	push   DWORD PTR [ebp+0x8]
1000172a:	e8 c6 f6 ff ff       	call   0x10000df5
1000172f:	c9                   	leave  
10001730:	c3                   	ret    

Disassembly of section .text.printf:

10001731 <.text.printf>:
10001731:	55                   	push   ebp
10001732:	89 e5                	mov    ebp,esp
10001734:	83 ec 10             	sub    esp,0x10
10001737:	8d 45 0c             	lea    eax,[ebp+0xc]
1000173a:	50                   	push   eax
1000173b:	ff 75 08             	push   DWORD PTR [ebp+0x8]
1000173e:	e8 be ff ff ff       	call   0x10001701
10001743:	c9                   	leave  
10001744:	c3                   	ret    

Disassembly of section .text.sprintf:

10001745 <.text.sprintf>:
10001745:	55                   	push   ebp
10001746:	89 e5                	mov    ebp,esp
10001748:	83 ec 0c             	sub    esp,0xc
1000174b:	8d 45 10             	lea    eax,[ebp+0x10]
1000174e:	50                   	push   eax
1000174f:	ff 75 0c             	push   DWORD PTR [ebp+0xc]
10001752:	ff 75 08             	push   DWORD PTR [ebp+0x8]
10001755:	e8 8c ff ff ff       	call   0x100016e6
1000175a:	c9                   	leave  
1000175b:	c3                   	ret    

Disassembly of section .text.exit:

1000175c <.text.exit>:
1000175c:	55                   	push   ebp
1000175d:	89 e5                	mov    ebp,esp
1000175f:	83 ec 14             	sub    esp,0x14
10001762:	6a 00                	push   0x0
10001764:	e8 87 f3 ff ff       	call   0x10000af0
10001769:	83 c4 10             	add    esp,0x10
1000176c:	83 ec 0c             	sub    esp,0xc
1000176f:	6a 00                	push   0x0
10001771:	6a 00                	push   0x0
10001773:	6a 00                	push   0x0
10001775:	6a 00                	push   0x0
10001777:	6a 00                	push   0x0
10001779:	e8 82 e8 ff ff       	call   0x10000000
1000177e:	83 c4 20             	add    esp,0x20
10001781:	eb e9                	jmp    0x1000176c

Disassembly of section .text.malloc:

10001783 <.text.malloc>:
10001783:	55                   	push   ebp
10001784:	89 e5                	mov    ebp,esp
10001786:	53                   	push   ebx
10001787:	83 ec 14             	sub    esp,0x14
1000178a:	8b 45 08             	mov    eax,DWORD PTR [ebp+0x8]
1000178d:	85 c0                	test   eax,eax
1000178f:	75 0c                	jne    0x1000179d
10001791:	c7 05 00 20 00 10 02 00 00 00 	mov    DWORD PTR ds:0x10002000,0x2
1000179b:	eb 61                	jmp    0x100017fe
1000179d:	89 c3                	mov    ebx,eax
1000179f:	f7 db                	neg    ebx
100017a1:	83 e3 0f             	and    ebx,0xf
100017a4:	01 c3                	add    ebx,eax
100017a6:	a1 14 20 00 10       	mov    eax,ds:0x10002014
100017ab:	85 c0                	test   eax,eax
100017ad:	74 0a                	je     0x100017b9
100017af:	01 d8                	add    eax,ebx
100017b1:	3b 05 10 20 00 10    	cmp    eax,DWORD PTR ds:0x10002010
100017b7:	72 38                	jb     0x100017f1
100017b9:	83 ec 0c             	sub    esp,0xc
100017bc:	8d 45 f4             	lea    eax,[ebp-0xc]
100017bf:	50                   	push   eax
100017c0:	8d 45 f0             	lea    eax,[ebp-0x10]
100017c3:	50                   	push   eax
100017c4:	6a 00                	push   0x0
100017c6:	8d 04 1b             	lea    eax,[ebx+ebx*1]
100017c9:	50                   	push   eax
100017ca:	6a 07                	push   0x7
100017cc:	e8 2f e8 ff ff       	call   0x10000000
100017d1:	83 c4 20             	add    esp,0x20
100017d4:	85 c0                	test   eax,eax
100017d6:	74 09                	je     0x100017e1
100017d8:	a3 00 20 00 10       	mov    ds:0x10002000,eax
100017dd:	31 c0                	xor    eax,eax
100017df:	eb 1d                	jmp    0x100017fe
100017e1:	8b 45 f0             	mov    eax,DWORD PTR [ebp-0x10]
100017e4:	a3 14 20 00 10       	mov    ds:0x10002014,eax
100017e9:	8b 45 f4             	mov    eax,DWORD PTR [ebp-0xc]
100017ec:	a3 10 20 00 10       	mov    ds:0x10002010,eax
100017f1:	a1 14 20 00 10       	mov    eax,ds:0x10002014
100017f6:	01 c3                	add    ebx,eax
100017f8:	89 1d 14 20 00 10    	mov    DWORD PTR ds:0x10002014,ebx
100017fe:	8b 5d fc             	mov    ebx,DWORD PTR [ebp-0x4]
10001801:	c9                   	leave  
10001802:	c3                   	ret    

Disassembly of section .text.free:

10001803 <.text.free>:
10001803:	c3                   	ret    

Disassembly of section .text.open:

10001804 <.text.open>:
10001804:	55                   	push   ebp
10001805:	89 e5                	mov    ebp,esp
10001807:	83 ec 24             	sub    esp,0x24
1000180a:	8d 45 f4             	lea    eax,[ebp-0xc]
1000180d:	50                   	push   eax
1000180e:	ff 75 10             	push   DWORD PTR [ebp+0x10]
10001811:	ff 75 0c             	push   DWORD PTR [ebp+0xc]
10001814:	ff 75 08             	push   DWORD PTR [ebp+0x8]
10001817:	6a 02                	push   0x2
10001819:	e8 e2 e7 ff ff       	call   0x10000000
1000181e:	83 c4 20             	add    esp,0x20
10001821:	8b 55 f4             	mov    edx,DWORD PTR [ebp-0xc]
10001824:	85 c0                	test   eax,eax
10001826:	74 08                	je     0x10001830
10001828:	a3 00 20 00 10       	mov    ds:0x10002000,eax
1000182d:	83 ca ff             	or     edx,0xffffffff
10001830:	89 d0                	mov    eax,edx
10001832:	c9                   	leave  
10001833:	c3                   	ret    

Disassembly of section .text.isatty:

10001834 <.text.isatty>:
10001834:	55                   	push   ebp
10001835:	89 e5                	mov    ebp,esp
10001837:	83 ec 14             	sub    esp,0x14
1000183a:	6a 00                	push   0x0
1000183c:	6a 00                	push   0x0
1000183e:	6a 00                	push   0x0
10001840:	ff 75 08             	push   DWORD PTR [ebp+0x8]
10001843:	6a 08                	push   0x8
10001845:	e8 b6 e7 ff ff       	call   0x10000000
1000184a:	83 c4 20             	add    esp,0x20
1000184d:	ba 01 00 00 00       	mov    edx,0x1
10001852:	85 c0                	test   eax,eax
10001854:	74 07                	je     0x1000185d
10001856:	a3 00 20 00 10       	mov    ds:0x10002000,eax
1000185b:	31 d2                	xor    edx,edx
1000185d:	89 d0                	mov    eax,edx
1000185f:	c9                   	leave  
10001860:	c3                   	ret    

Disassembly of section .text.close:

10001861 <.text.close>:
10001861:	55                   	push   ebp
10001862:	89 e5                	mov    ebp,esp
10001864:	83 ec 14             	sub    esp,0x14
10001867:	6a 00                	push   0x0
10001869:	6a 00                	push   0x0
1000186b:	6a 00                	push   0x0
1000186d:	ff 75 08             	push   DWORD PTR [ebp+0x8]
10001870:	6a 05                	push   0x5
10001872:	e8 89 e7 ff ff       	call   0x10000000
10001877:	83 c4 20             	add    esp,0x20
1000187a:	85 c0                	test   eax,eax
1000187c:	74 08                	je     0x10001886
1000187e:	a3 00 20 00 10       	mov    ds:0x10002000,eax
10001883:	83 c8 ff             	or     eax,0xffffffff
10001886:	c9                   	leave  
10001887:	c3                   	ret    

Disassembly of section .text.read:

10001888 <.text.read>:
10001888:	55                   	push   ebp
10001889:	89 e5                	mov    ebp,esp
1000188b:	83 ec 24             	sub    esp,0x24
1000188e:	8d 45 f4             	lea    eax,[ebp-0xc]
10001891:	50                   	push   eax
10001892:	ff 75 08             	push   DWORD PTR [ebp+0x8]
10001895:	ff 75 10             	push   DWORD PTR [ebp+0x10]
10001898:	ff 75 0c             	push   DWORD PTR [ebp+0xc]
1000189b:	6a 03                	push   0x3
1000189d:	e8 5e e7 ff ff       	call   0x10000000
100018a2:	83 c4 20             	add    esp,0x20
100018a5:	8b 55 f4             	mov    edx,DWORD PTR [ebp-0xc]
100018a8:	85 c0                	test   eax,eax
100018aa:	74 08                	je     0x100018b4
100018ac:	a3 00 20 00 10       	mov    ds:0x10002000,eax
100018b1:	83 ca ff             	or     edx,0xffffffff
100018b4:	89 d0                	mov    eax,edx
100018b6:	c9                   	leave  
100018b7:	c3                   	ret    

Disassembly of section .text.write:

100018b8 <.text.write>:
100018b8:	55                   	push   ebp
100018b9:	89 e5                	mov    ebp,esp
100018bb:	83 ec 24             	sub    esp,0x24
100018be:	8d 45 f4             	lea    eax,[ebp-0xc]
100018c1:	50                   	push   eax
100018c2:	ff 75 08             	push   DWORD PTR [ebp+0x8]
100018c5:	ff 75 10             	push   DWORD PTR [ebp+0x10]
100018c8:	ff 75 0c             	push   DWORD PTR [ebp+0xc]
100018cb:	6a 04                	push   0x4
100018cd:	e8 2e e7 ff ff       	call   0x10000000
100018d2:	83 c4 20             	add    esp,0x20
100018d5:	8b 55 f4             	mov    edx,DWORD PTR [ebp-0xc]
100018d8:	85 c0                	test   eax,eax
100018da:	74 08                	je     0x100018e4
100018dc:	a3 00 20 00 10       	mov    ds:0x10002000,eax
100018e1:	83 ca ff             	or     edx,0xffffffff
100018e4:	89 d0                	mov    eax,edx
100018e6:	c9                   	leave  
100018e7:	c3                   	ret    
