
./build/output/kernel.exe:	file format elf32-i386

Disassembly of section .text:

c0101000 <assertion_fail>:
c0101000: 55                           	push	ebp
c0101001: 89 e5                        	mov	ebp, esp
c0101003: 57                           	push	edi
c0101004: 56                           	push	esi
c0101005: 53                           	push	ebx
c0101006: 83 ec 0c                     	sub	esp, 12
c0101009: 8b 75 08                     	mov	esi, dword ptr [ebp + 8]
c010100c: 8b 7d 0c                     	mov	edi, dword ptr [ebp + 12]
c010100f: 8b 5d 14                     	mov	ebx, dword ptr [ebp + 20]
c0101012: e8 ee 80 00 00               	call	0xc0109105 <arch_disable_interrupts>
c0101017: 83 ec 0c                     	sub	esp, 12
c010101a: 57                           	push	edi
c010101b: 56                           	push	esi
c010101c: 53                           	push	ebx
c010101d: ff 75 10                     	push	dword ptr [ebp + 16]
c0101020: 68 e0 a1 10 c0               	push	3222315488
c0101025: e8 38 41 00 00               	call	0xc0105162 <kprintfnv>
c010102a: 83 c4 14                     	add	esp, 20
c010102d: 57                           	push	edi
c010102e: 56                           	push	esi
c010102f: 53                           	push	ebx
c0101030: ff 75 10                     	push	dword ptr [ebp + 16]
c0101033: 68 17 a2 10 c0               	push	3222315543
c0101038: e8 46 40 00 00               	call	0xc0105083 <kprintf>
c010103d: 83 c4 14                     	add	esp, 20
c0101040: 68 39 a2 10 c0               	push	3222315577
c0101045: e8 01 42 00 00               	call	0xc010524b <panic>

c010104a <toupper>:
c010104a: 55                           	push	ebp
c010104b: 89 e5                        	mov	ebp, esp
c010104d: 8b 45 08                     	mov	eax, dword ptr [ebp + 8]
c0101050: 8d 50 9f                     	lea	edx, [eax - 97]
c0101053: 83 fa 19                     	cmp	edx, 25
c0101056: 77 03                        	ja	0xc010105b <toupper+0x11>
c0101058: 83 e8 20                     	sub	eax, 32
c010105b: 5d                           	pop	ebp
c010105c: c3                           	ret

c010105d <tolower>:
c010105d: 55                           	push	ebp
c010105e: 89 e5                        	mov	ebp, esp
c0101060: 8b 45 08                     	mov	eax, dword ptr [ebp + 8]
c0101063: 8d 50 bf                     	lea	edx, [eax - 65]
c0101066: 83 fa 19                     	cmp	edx, 25
c0101069: 77 03                        	ja	0xc010106e <tolower+0x11>
c010106b: 83 c0 20                     	add	eax, 32
c010106e: 5d                           	pop	ebp
c010106f: c3                           	ret

c0101070 <isalpha>:
c0101070: 55                           	push	ebp
c0101071: 89 e5                        	mov	ebp, esp
c0101073: 8b 45 08                     	mov	eax, dword ptr [ebp + 8]
c0101076: 5d                           	pop	ebp
c0101077: 83 e0 df                     	and	eax, -33
c010107a: 83 e8 41                     	sub	eax, 65
c010107d: 83 f8 19                     	cmp	eax, 25
c0101080: 0f 96 c0                     	setbe	al
c0101083: 0f b6 c0                     	movzx	eax, al
c0101086: c3                           	ret

c0101087 <isalnum>:
c0101087: 55                           	push	ebp
c0101088: 89 e5                        	mov	ebp, esp
c010108a: 83 ec 14                     	sub	esp, 20
c010108d: 8b 55 08                     	mov	edx, dword ptr [ebp + 8]
c0101090: 52                           	push	edx
c0101091: e8 da ff ff ff               	call	0xc0101070 <isalpha>
c0101096: 83 c4 10                     	add	esp, 16
c0101099: 89 c1                        	mov	ecx, eax
c010109b: b8 01 00 00 00               	mov	eax, 1
c01010a0: 85 c9                        	test	ecx, ecx
c01010a2: 75 0b                        	jne	0xc01010af <isalnum+0x28>
c01010a4: 83 ea 30                     	sub	edx, 48
c01010a7: 31 c0                        	xor	eax, eax
c01010a9: 83 fa 09                     	cmp	edx, 9
c01010ac: 0f 96 c0                     	setbe	al
c01010af: c9                           	leave
c01010b0: c3                           	ret

c01010b1 <iscntrl>:
c01010b1: 55                           	push	ebp
c01010b2: 89 e5                        	mov	ebp, esp
c01010b4: 8b 55 08                     	mov	edx, dword ptr [ebp + 8]
c01010b7: 5d                           	pop	ebp
c01010b8: 83 fa 1f                     	cmp	edx, 31
c01010bb: 0f 9e c0                     	setle	al
c01010be: 83 fa 7f                     	cmp	edx, 127
c01010c1: 0f 94 c2                     	sete	dl
c01010c4: 09 d0                        	or	eax, edx
c01010c6: 0f b6 c0                     	movzx	eax, al
c01010c9: c3                           	ret

c01010ca <isblank>:
c01010ca: 55                           	push	ebp
c01010cb: 89 e5                        	mov	ebp, esp
c01010cd: 8b 55 08                     	mov	edx, dword ptr [ebp + 8]
c01010d0: 5d                           	pop	ebp
c01010d1: 83 fa 09                     	cmp	edx, 9
c01010d4: 0f 94 c0                     	sete	al
c01010d7: 83 fa 20                     	cmp	edx, 32
c01010da: 0f 94 c2                     	sete	dl
c01010dd: 09 d0                        	or	eax, edx
c01010df: 0f b6 c0                     	movzx	eax, al
c01010e2: c3                           	ret

c01010e3 <isdigit>:
c01010e3: 55                           	push	ebp
c01010e4: 89 e5                        	mov	ebp, esp
c01010e6: 8b 45 08                     	mov	eax, dword ptr [ebp + 8]
c01010e9: 5d                           	pop	ebp
c01010ea: 83 e8 30                     	sub	eax, 48
c01010ed: 83 f8 09                     	cmp	eax, 9
c01010f0: 0f 96 c0                     	setbe	al
c01010f3: 0f b6 c0                     	movzx	eax, al
c01010f6: c3                           	ret

c01010f7 <islower>:
c01010f7: 55                           	push	ebp
c01010f8: 89 e5                        	mov	ebp, esp
c01010fa: 8b 45 08                     	mov	eax, dword ptr [ebp + 8]
c01010fd: 5d                           	pop	ebp
c01010fe: 83 e8 61                     	sub	eax, 97
c0101101: 83 f8 19                     	cmp	eax, 25
c0101104: 0f 96 c0                     	setbe	al
c0101107: 0f b6 c0                     	movzx	eax, al
c010110a: c3                           	ret

c010110b <ispunct>:
c010110b: 55                           	push	ebp
c010110c: ba 48 a2 10 c0               	mov	edx, 3222315592
c0101111: 89 e5                        	mov	ebp, esp
c0101113: 8b 4d 08                     	mov	ecx, dword ptr [ebp + 8]
c0101116: 0f be 02                     	movsx	eax, byte ptr [edx]
c0101119: 84 c0                        	test	al, al
c010111b: 74 0c                        	je	0xc0101129 <ispunct+0x1e>
c010111d: 42                           	inc	edx
c010111e: 39 c8                        	cmp	eax, ecx
c0101120: 75 f4                        	jne	0xc0101116 <ispunct+0xb>
c0101122: b8 01 00 00 00               	mov	eax, 1
c0101127: eb 02                        	jmp	0xc010112b <ispunct+0x20>
c0101129: 31 c0                        	xor	eax, eax
c010112b: 5d                           	pop	ebp
c010112c: c3                           	ret

c010112d <isgraph>:
c010112d: 55                           	push	ebp
c010112e: 89 e5                        	mov	ebp, esp
c0101130: 53                           	push	ebx
c0101131: 83 ec 10                     	sub	esp, 16
c0101134: 8b 5d 08                     	mov	ebx, dword ptr [ebp + 8]
c0101137: 53                           	push	ebx
c0101138: e8 4a ff ff ff               	call	0xc0101087 <isalnum>
c010113d: 83 c4 10                     	add	esp, 16
c0101140: 89 c2                        	mov	edx, eax
c0101142: b8 01 00 00 00               	mov	eax, 1
c0101147: 85 d2                        	test	edx, edx
c0101149: 75 14                        	jne	0xc010115f <isgraph+0x32>
c010114b: 83 ec 0c                     	sub	esp, 12
c010114e: 53                           	push	ebx
c010114f: e8 b7 ff ff ff               	call	0xc010110b <ispunct>
c0101154: 83 c4 10                     	add	esp, 16
c0101157: 85 c0                        	test	eax, eax
c0101159: 0f 95 c0                     	setne	al
c010115c: 0f b6 c0                     	movzx	eax, al
c010115f: 8b 5d fc                     	mov	ebx, dword ptr [ebp - 4]
c0101162: c9                           	leave
c0101163: c3                           	ret

c0101164 <isprint>:
c0101164: 55                           	push	ebp
c0101165: 89 e5                        	mov	ebp, esp
c0101167: 53                           	push	ebx
c0101168: 83 ec 10                     	sub	esp, 16
c010116b: 8b 5d 08                     	mov	ebx, dword ptr [ebp + 8]
c010116e: 53                           	push	ebx
c010116f: e8 b9 ff ff ff               	call	0xc010112d <isgraph>
c0101174: 83 c4 10                     	add	esp, 16
c0101177: 83 fb 20                     	cmp	ebx, 32
c010117a: 8b 5d fc                     	mov	ebx, dword ptr [ebp - 4]
c010117d: c9                           	leave
c010117e: 89 c2                        	mov	edx, eax
c0101180: 0f 94 c0                     	sete	al
c0101183: 85 d2                        	test	edx, edx
c0101185: 0f 95 c2                     	setne	dl
c0101188: 09 d0                        	or	eax, edx
c010118a: 0f b6 c0                     	movzx	eax, al
c010118d: c3                           	ret

c010118e <isspace>:
c010118e: 55                           	push	ebp
c010118f: 89 e5                        	mov	ebp, esp
c0101191: 8b 55 08                     	mov	edx, dword ptr [ebp + 8]
c0101194: 5d                           	pop	ebp
c0101195: 8d 42 f7                     	lea	eax, [edx - 9]
c0101198: 83 f8 04                     	cmp	eax, 4
c010119b: 0f 96 c0                     	setbe	al
c010119e: 83 fa 20                     	cmp	edx, 32
c01011a1: 0f 94 c2                     	sete	dl
c01011a4: 09 d0                        	or	eax, edx
c01011a6: 0f b6 c0                     	movzx	eax, al
c01011a9: c3                           	ret

c01011aa <isupper>:
c01011aa: 55                           	push	ebp
c01011ab: 89 e5                        	mov	ebp, esp
c01011ad: 8b 45 08                     	mov	eax, dword ptr [ebp + 8]
c01011b0: 5d                           	pop	ebp
c01011b1: 83 e8 41                     	sub	eax, 65
c01011b4: 83 f8 19                     	cmp	eax, 25
c01011b7: 0f 96 c0                     	setbe	al
c01011ba: 0f b6 c0                     	movzx	eax, al
c01011bd: c3                           	ret

c01011be <isxdigit>:
c01011be: 55                           	push	ebp
c01011bf: ba 01 00 00 00               	mov	edx, 1
c01011c4: 89 e5                        	mov	ebp, esp
c01011c6: 8b 45 08                     	mov	eax, dword ptr [ebp + 8]
c01011c9: 8d 48 d0                     	lea	ecx, [eax - 48]
c01011cc: 83 f9 09                     	cmp	ecx, 9
c01011cf: 76 0e                        	jbe	0xc01011df <isxdigit+0x21>
c01011d1: 83 e0 df                     	and	eax, -33
c01011d4: 31 d2                        	xor	edx, edx
c01011d6: 83 e8 41                     	sub	eax, 65
c01011d9: 83 f8 05                     	cmp	eax, 5
c01011dc: 0f 96 c2                     	setbe	dl
c01011df: 89 d0                        	mov	eax, edx
c01011e1: 5d                           	pop	ebp
c01011e2: c3                           	ret

c01011e3 <memchr>:
c01011e3: 55                           	push	ebp
c01011e4: 89 e5                        	mov	ebp, esp
c01011e6: 8b 45 08                     	mov	eax, dword ptr [ebp + 8]
c01011e9: 8b 55 10                     	mov	edx, dword ptr [ebp + 16]
c01011ec: 8b 4d 0c                     	mov	ecx, dword ptr [ebp + 12]
c01011ef: 01 c2                        	add	edx, eax
c01011f1: 39 d0                        	cmp	eax, edx
c01011f3: 74 07                        	je	0xc01011fc <memchr+0x19>
c01011f5: 38 08                        	cmp	byte ptr [eax], cl
c01011f7: 74 05                        	je	0xc01011fe <memchr+0x1b>
c01011f9: 40                           	inc	eax
c01011fa: eb f5                        	jmp	0xc01011f1 <memchr+0xe>
c01011fc: 31 c0                        	xor	eax, eax
c01011fe: 5d                           	pop	ebp
c01011ff: c3                           	ret

c0101200 <memcmp>:
c0101200: 55                           	push	ebp
c0101201: 89 e5                        	mov	ebp, esp
c0101203: 56                           	push	esi
c0101204: 8b 45 08                     	mov	eax, dword ptr [ebp + 8]
c0101207: 8b 75 10                     	mov	esi, dword ptr [ebp + 16]
c010120a: 53                           	push	ebx
c010120b: 8b 55 0c                     	mov	edx, dword ptr [ebp + 12]
c010120e: 01 c6                        	add	esi, eax
c0101210: 39 f0                        	cmp	eax, esi
c0101212: 74 15                        	je	0xc0101229 <memcmp+0x29>
c0101214: 8a 08                        	mov	cl, byte ptr [eax]
c0101216: 8a 1a                        	mov	bl, byte ptr [edx]
c0101218: 38 d9                        	cmp	cl, bl
c010121a: 72 11                        	jb	0xc010122d <memcmp+0x2d>
c010121c: 40                           	inc	eax
c010121d: 42                           	inc	edx
c010121e: 38 cb                        	cmp	bl, cl
c0101220: 73 ee                        	jae	0xc0101210 <memcmp+0x10>
c0101222: b8 01 00 00 00               	mov	eax, 1
c0101227: eb 07                        	jmp	0xc0101230 <memcmp+0x30>
c0101229: 31 c0                        	xor	eax, eax
c010122b: eb 03                        	jmp	0xc0101230 <memcmp+0x30>
c010122d: 83 c8 ff                     	or	eax, -1
c0101230: 5b                           	pop	ebx
c0101231: 5e                           	pop	esi
c0101232: 5d                           	pop	ebp
c0101233: c3                           	ret

c0101234 <memcpy>:
c0101234: 55                           	push	ebp
c0101235: 89 e5                        	mov	ebp, esp
c0101237: 57                           	push	edi
c0101238: 8b 45 08                     	mov	eax, dword ptr [ebp + 8]
c010123b: 8b 4d 10                     	mov	ecx, dword ptr [ebp + 16]
c010123e: 56                           	push	esi
c010123f: 8b 75 0c                     	mov	esi, dword ptr [ebp + 12]
c0101242: 89 c7                        	mov	edi, eax
c0101244: f3 a4                        	rep		movsb	byte ptr es:[edi], byte ptr [esi]
c0101246: 5e                           	pop	esi
c0101247: 5f                           	pop	edi
c0101248: 5d                           	pop	ebp
c0101249: c3                           	ret

c010124a <memmove>:
c010124a: 55                           	push	ebp
c010124b: 89 e5                        	mov	ebp, esp
c010124d: 57                           	push	edi
c010124e: 8b 55 08                     	mov	edx, dword ptr [ebp + 8]
c0101251: 8b 45 10                     	mov	eax, dword ptr [ebp + 16]
c0101254: 56                           	push	esi
c0101255: 8b 75 0c                     	mov	esi, dword ptr [ebp + 12]
c0101258: 39 d6                        	cmp	esi, edx
c010125a: 72 0b                        	jb	0xc0101267 <memmove+0x1d>
c010125c: 01 d0                        	add	eax, edx
c010125e: 89 d7                        	mov	edi, edx
c0101260: 39 c7                        	cmp	edi, eax
c0101262: 74 10                        	je	0xc0101274 <memmove+0x2a>
c0101264: a4                           	movsb	byte ptr es:[edi], byte ptr [esi]
c0101265: eb f9                        	jmp	0xc0101260 <memmove+0x16>
c0101267: 83 e8 01                     	sub	eax, 1
c010126a: 72 08                        	jb	0xc0101274 <memmove+0x2a>
c010126c: 8a 0c 06                     	mov	cl, byte ptr [esi + eax]
c010126f: 88 0c 02                     	mov	byte ptr [edx + eax], cl
c0101272: eb f3                        	jmp	0xc0101267 <memmove+0x1d>
c0101274: 5e                           	pop	esi
c0101275: 89 d0                        	mov	eax, edx
c0101277: 5f                           	pop	edi
c0101278: 5d                           	pop	ebp
c0101279: c3                           	ret

c010127a <memset>:
c010127a: 55                           	push	ebp
c010127b: 89 e5                        	mov	ebp, esp
c010127d: 57                           	push	edi
c010127e: 8a 45 0c                     	mov	al, byte ptr [ebp + 12]
c0101281: 8b 4d 10                     	mov	ecx, dword ptr [ebp + 16]
c0101284: 8b 7d 08                     	mov	edi, dword ptr [ebp + 8]
c0101287: f3 aa                        	rep		stosb	byte ptr es:[edi], al
c0101289: 8b 45 08                     	mov	eax, dword ptr [ebp + 8]
c010128c: 5f                           	pop	edi
c010128d: 5d                           	pop	ebp
c010128e: c3                           	ret

c010128f <strcat>:
c010128f: 55                           	push	ebp
c0101290: 89 e5                        	mov	ebp, esp
c0101292: 53                           	push	ebx
c0101293: 8b 4d 08                     	mov	ecx, dword ptr [ebp + 8]
c0101296: 89 ca                        	mov	edx, ecx
c0101298: 80 39 00                     	cmp	byte ptr [ecx], 0
c010129b: 74 06                        	je	0xc01012a3 <strcat+0x14>
c010129d: 42                           	inc	edx
c010129e: 80 3a 00                     	cmp	byte ptr [edx], 0
c01012a1: eb f8                        	jmp	0xc010129b <strcat+0xc>
c01012a3: 31 c0                        	xor	eax, eax
c01012a5: 8b 5d 0c                     	mov	ebx, dword ptr [ebp + 12]
c01012a8: 8a 1c 03                     	mov	bl, byte ptr [ebx + eax]
c01012ab: 88 1c 02                     	mov	byte ptr [edx + eax], bl
c01012ae: 40                           	inc	eax
c01012af: 84 db                        	test	bl, bl
c01012b1: 75 f2                        	jne	0xc01012a5 <strcat+0x16>
c01012b3: 89 c8                        	mov	eax, ecx
c01012b5: 5b                           	pop	ebx
c01012b6: 5d                           	pop	ebp
c01012b7: c3                           	ret

c01012b8 <strchr>:
c01012b8: 55                           	push	ebp
c01012b9: 89 e5                        	mov	ebp, esp
c01012bb: 8b 45 08                     	mov	eax, dword ptr [ebp + 8]
c01012be: 8a 10                        	mov	dl, byte ptr [eax]
c01012c0: 3a 55 0c                     	cmp	dl, byte ptr [ebp + 12]
c01012c3: 74 07                        	je	0xc01012cc <strchr+0x14>
c01012c5: 40                           	inc	eax
c01012c6: 84 d2                        	test	dl, dl
c01012c8: 75 f4                        	jne	0xc01012be <strchr+0x6>
c01012ca: 31 c0                        	xor	eax, eax
c01012cc: 5d                           	pop	ebp
c01012cd: c3                           	ret

c01012ce <strcmp>:
c01012ce: 55                           	push	ebp
c01012cf: 31 c9                        	xor	ecx, ecx
c01012d1: 89 e5                        	mov	ebp, esp
c01012d3: 8b 45 08                     	mov	eax, dword ptr [ebp + 8]
c01012d6: 8b 55 0c                     	mov	edx, dword ptr [ebp + 12]
c01012d9: 0f b6 04 08                  	movzx	eax, byte ptr [eax + ecx]
c01012dd: 0f b6 14 0a                  	movzx	edx, byte ptr [edx + ecx]
c01012e1: 84 c0                        	test	al, al
c01012e3: 74 05                        	je	0xc01012ea <strcmp+0x1c>
c01012e5: 41                           	inc	ecx
c01012e6: 38 d0                        	cmp	al, dl
c01012e8: 74 e9                        	je	0xc01012d3 <strcmp+0x5>
c01012ea: 29 d0                        	sub	eax, edx
c01012ec: 5d                           	pop	ebp
c01012ed: c3                           	ret

c01012ee <strcpy>:
c01012ee: 55                           	push	ebp
c01012ef: 31 c0                        	xor	eax, eax
c01012f1: 89 e5                        	mov	ebp, esp
c01012f3: 8b 55 08                     	mov	edx, dword ptr [ebp + 8]
c01012f6: 8b 4d 0c                     	mov	ecx, dword ptr [ebp + 12]
c01012f9: 8a 0c 01                     	mov	cl, byte ptr [ecx + eax]
c01012fc: 88 0c 02                     	mov	byte ptr [edx + eax], cl
c01012ff: 40                           	inc	eax
c0101300: 84 c9                        	test	cl, cl
c0101302: 75 f2                        	jne	0xc01012f6 <strcpy+0x8>
c0101304: 89 d0                        	mov	eax, edx
c0101306: 5d                           	pop	ebp
c0101307: c3                           	ret

c0101308 <strerror>:
c0101308: 55                           	push	ebp
c0101309: b8 69 a2 10 c0               	mov	eax, 3222315625
c010130e: 89 e5                        	mov	ebp, esp
c0101310: 8b 55 08                     	mov	edx, dword ptr [ebp + 8]
c0101313: 83 fa 1b                     	cmp	edx, 27
c0101316: 77 07                        	ja	0xc010131f <strerror+0x17>
c0101318: 8b 04 95 00 a0 10 c0         	mov	eax, dword ptr [4*edx - 1072652288]
c010131f: 5d                           	pop	ebp
c0101320: c3                           	ret

c0101321 <strlen>:
c0101321: 55                           	push	ebp
c0101322: 31 c0                        	xor	eax, eax
c0101324: 89 e5                        	mov	ebp, esp
c0101326: 8b 55 08                     	mov	edx, dword ptr [ebp + 8]
c0101329: 80 3c 02 00                  	cmp	byte ptr [edx + eax], 0
c010132d: 74 03                        	je	0xc0101332 <strlen+0x11>
c010132f: 40                           	inc	eax
c0101330: eb f7                        	jmp	0xc0101329 <strlen+0x8>
c0101332: 5d                           	pop	ebp
c0101333: c3                           	ret

c0101334 <strncpy>:
c0101334: 55                           	push	ebp
c0101335: 89 e5                        	mov	ebp, esp
c0101337: 56                           	push	esi
c0101338: 8b 55 08                     	mov	edx, dword ptr [ebp + 8]
c010133b: 8b 75 10                     	mov	esi, dword ptr [ebp + 16]
c010133e: 53                           	push	ebx
c010133f: 8b 4d 0c                     	mov	ecx, dword ptr [ebp + 12]
c0101342: 01 d6                        	add	esi, edx
c0101344: 89 d0                        	mov	eax, edx
c0101346: 39 f0                        	cmp	eax, esi
c0101348: 74 0e                        	je	0xc0101358 <strncpy+0x24>
c010134a: 8a 19                        	mov	bl, byte ptr [ecx]
c010134c: 40                           	inc	eax
c010134d: 80 fb 01                     	cmp	bl, 1
c0101350: 88 58 ff                     	mov	byte ptr [eax - 1], bl
c0101353: 83 d9 ff                     	sbb	ecx, -1
c0101356: eb ee                        	jmp	0xc0101346 <strncpy+0x12>
c0101358: 5b                           	pop	ebx
c0101359: 89 d0                        	mov	eax, edx
c010135b: 5e                           	pop	esi
c010135c: 5d                           	pop	ebp
c010135d: c3                           	ret

c010135e <strdup>:
c010135e: 55                           	push	ebp
c010135f: 89 e5                        	mov	ebp, esp
c0101361: 56                           	push	esi
c0101362: 53                           	push	ebx
c0101363: 8b 75 08                     	mov	esi, dword ptr [ebp + 8]
c0101366: 83 ec 0c                     	sub	esp, 12
c0101369: 56                           	push	esi
c010136a: e8 b2 ff ff ff               	call	0xc0101321 <strlen>
c010136f: 40                           	inc	eax
c0101370: 89 04 24                     	mov	dword ptr [esp], eax
c0101373: e8 8d 10 00 00               	call	0xc0102405 <malloc>
c0101378: 89 c3                        	mov	ebx, eax
c010137a: 58                           	pop	eax
c010137b: 5a                           	pop	edx
c010137c: 56                           	push	esi
c010137d: 53                           	push	ebx
c010137e: e8 6b ff ff ff               	call	0xc01012ee <strcpy>
c0101383: 8d 65 f8                     	lea	esp, [ebp - 8]
c0101386: 89 d8                        	mov	eax, ebx
c0101388: 5b                           	pop	ebx
c0101389: 5e                           	pop	esi
c010138a: 5d                           	pop	ebp
c010138b: c3                           	ret

c010138c <strncmp>:
c010138c: 55                           	push	ebp
c010138d: 89 e5                        	mov	ebp, esp
c010138f: 53                           	push	ebx
c0101390: 8b 45 08                     	mov	eax, dword ptr [ebp + 8]
c0101393: 8b 55 0c                     	mov	edx, dword ptr [ebp + 12]
c0101396: 8b 4d 10                     	mov	ecx, dword ptr [ebp + 16]
c0101399: 85 c9                        	test	ecx, ecx
c010139b: 74 0f                        	je	0xc01013ac <strncmp+0x20>
c010139d: 8a 18                        	mov	bl, byte ptr [eax]
c010139f: 84 db                        	test	bl, bl
c01013a1: 74 0d                        	je	0xc01013b0 <strncmp+0x24>
c01013a3: 3a 1a                        	cmp	bl, byte ptr [edx]
c01013a5: 75 09                        	jne	0xc01013b0 <strncmp+0x24>
c01013a7: 40                           	inc	eax
c01013a8: 42                           	inc	edx
c01013a9: 49                           	dec	ecx
c01013aa: eb ed                        	jmp	0xc0101399 <strncmp+0xd>
c01013ac: 31 c0                        	xor	eax, eax
c01013ae: eb 08                        	jmp	0xc01013b8 <strncmp+0x2c>
c01013b0: 0f b6 00                     	movzx	eax, byte ptr [eax]
c01013b3: 0f b6 12                     	movzx	edx, byte ptr [edx]
c01013b6: 29 d0                        	sub	eax, edx
c01013b8: 5b                           	pop	ebx
c01013b9: 5d                           	pop	ebp
c01013ba: c3                           	ret

c01013bb <beeper_start>:
c01013bb: 55                           	push	ebp
c01013bc: 89 e5                        	mov	ebp, esp
c01013be: 83 ec 08                     	sub	esp, 8
c01013c1: 80 3d 00 d0 10 c0 00         	cmp	byte ptr [-1072640000], 0
c01013c8: 75 1b                        	jne	0xc01013e5 <beeper_start+0x2a>
c01013ca: 50                           	push	eax
c01013cb: 50                           	push	eax
c01013cc: 68 d8 a4 10 c0               	push	3222316248
c01013d1: 68 20 d0 10 c0               	push	3222327328
c01013d6: e8 74 27 00 00               	call	0xc0103b4f <spinlock_init>
c01013db: c6 05 00 d0 10 c0 01         	mov	byte ptr [-1072640000], 1
c01013e2: 83 c4 10                     	add	esp, 16
c01013e5: 83 ec 0c                     	sub	esp, 12
c01013e8: 68 20 d0 10 c0               	push	3222327328
c01013ed: e8 8c 27 00 00               	call	0xc0103b7e <spinlock_acquire>
c01013f2: a1 68 d0 10 c0               	mov	eax, dword ptr [3222327400]
c01013f7: 83 c4 10                     	add	esp, 16
c01013fa: 85 c0                        	test	eax, eax
c01013fc: 74 1b                        	je	0xc0101419 <beeper_start+0x5e>
c01013fe: 83 ec 0c                     	sub	esp, 12
c0101401: ff 75 08                     	push	dword ptr [ebp + 8]
c0101404: ff 10                        	call	dword ptr [eax]
c0101406: c7 04 24 20 d0 10 c0         	mov	dword ptr [esp], 3222327328
c010140d: e8 71 27 00 00               	call	0xc0103b83 <spinlock_release>
c0101412: 83 c4 10                     	add	esp, 16
c0101415: 31 c0                        	xor	eax, eax
c0101417: eb 15                        	jmp	0xc010142e <beeper_start+0x73>
c0101419: 83 ec 0c                     	sub	esp, 12
c010141c: 68 20 d0 10 c0               	push	3222327328
c0101421: e8 5d 27 00 00               	call	0xc0103b83 <spinlock_release>
c0101426: 83 c4 10                     	add	esp, 16
c0101429: b8 03 00 00 00               	mov	eax, 3
c010142e: c9                           	leave
c010142f: c3                           	ret

c0101430 <beeper_stop>:
c0101430: 55                           	push	ebp
c0101431: 89 e5                        	mov	ebp, esp
c0101433: 83 ec 08                     	sub	esp, 8
c0101436: 80 3d 00 d0 10 c0 00         	cmp	byte ptr [-1072640000], 0
c010143d: 75 1b                        	jne	0xc010145a <beeper_stop+0x2a>
c010143f: 50                           	push	eax
c0101440: 50                           	push	eax
c0101441: 68 d8 a4 10 c0               	push	3222316248
c0101446: 68 20 d0 10 c0               	push	3222327328
c010144b: e8 ff 26 00 00               	call	0xc0103b4f <spinlock_init>
c0101450: c6 05 00 d0 10 c0 01         	mov	byte ptr [-1072640000], 1
c0101457: 83 c4 10                     	add	esp, 16
c010145a: 83 ec 0c                     	sub	esp, 12
c010145d: 68 20 d0 10 c0               	push	3222327328
c0101462: e8 17 27 00 00               	call	0xc0103b7e <spinlock_acquire>
c0101467: a1 68 d0 10 c0               	mov	eax, dword ptr [3222327400]
c010146c: 83 c4 10                     	add	esp, 16
c010146f: 85 c0                        	test	eax, eax
c0101471: 74 17                        	je	0xc010148a <beeper_stop+0x5a>
c0101473: ff 50 04                     	call	dword ptr [eax + 4]
c0101476: 83 ec 0c                     	sub	esp, 12
c0101479: 68 20 d0 10 c0               	push	3222327328
c010147e: e8 00 27 00 00               	call	0xc0103b83 <spinlock_release>
c0101483: 83 c4 10                     	add	esp, 16
c0101486: 31 c0                        	xor	eax, eax
c0101488: eb 15                        	jmp	0xc010149f <beeper_stop+0x6f>
c010148a: 83 ec 0c                     	sub	esp, 12
c010148d: 68 20 d0 10 c0               	push	3222327328
c0101492: e8 ec 26 00 00               	call	0xc0103b83 <spinlock_release>
c0101497: 83 c4 10                     	add	esp, 16
c010149a: b8 03 00 00 00               	mov	eax, 3
c010149f: c9                           	leave
c01014a0: c3                           	ret

c01014a1 <beeper_register_driver>:
c01014a1: 55                           	push	ebp
c01014a2: b8 03 00 00 00               	mov	eax, 3
c01014a7: 89 e5                        	mov	ebp, esp
c01014a9: 53                           	push	ebx
c01014aa: 52                           	push	edx
c01014ab: 8b 5d 08                     	mov	ebx, dword ptr [ebp + 8]
c01014ae: 85 db                        	test	ebx, ebx
c01014b0: 74 6c                        	je	0xc010151e <beeper_register_driver+0x7d>
c01014b2: 80 3d 00 d0 10 c0 00         	cmp	byte ptr [-1072640000], 0
c01014b9: 75 1b                        	jne	0xc01014d6 <beeper_register_driver+0x35>
c01014bb: 50                           	push	eax
c01014bc: 50                           	push	eax
c01014bd: 68 d8 a4 10 c0               	push	3222316248
c01014c2: 68 20 d0 10 c0               	push	3222327328
c01014c7: e8 83 26 00 00               	call	0xc0103b4f <spinlock_init>
c01014cc: c6 05 00 d0 10 c0 01         	mov	byte ptr [-1072640000], 1
c01014d3: 83 c4 10                     	add	esp, 16
c01014d6: 83 ec 0c                     	sub	esp, 12
c01014d9: 68 20 d0 10 c0               	push	3222327328
c01014de: e8 9b 26 00 00               	call	0xc0103b7e <spinlock_acquire>
c01014e3: 83 c4 10                     	add	esp, 16
c01014e6: 83 3d 68 d0 10 c0 00         	cmp	dword ptr [-1072639896], 0
c01014ed: 74 17                        	je	0xc0101506 <beeper_register_driver+0x65>
c01014ef: 83 ec 0c                     	sub	esp, 12
c01014f2: 68 20 d0 10 c0               	push	3222327328
c01014f7: e8 87 26 00 00               	call	0xc0103b83 <spinlock_release>
c01014fc: 83 c4 10                     	add	esp, 16
c01014ff: b8 04 00 00 00               	mov	eax, 4
c0101504: eb 18                        	jmp	0xc010151e <beeper_register_driver+0x7d>
c0101506: 83 ec 0c                     	sub	esp, 12
c0101509: 89 1d 68 d0 10 c0            	mov	dword ptr [-1072639896], ebx
c010150f: 68 20 d0 10 c0               	push	3222327328
c0101514: e8 6a 26 00 00               	call	0xc0103b83 <spinlock_release>
c0101519: 83 c4 10                     	add	esp, 16
c010151c: 31 c0                        	xor	eax, eax
c010151e: 8b 5d fc                     	mov	ebx, dword ptr [ebp - 4]
c0101521: c9                           	leave
c0101522: c3                           	ret

c0101523 <console_beep_thread>:
c0101523: 55                           	push	ebp
c0101524: 89 e5                        	mov	ebp, esp
c0101526: 83 ec 14                     	sub	esp, 20
c0101529: 68 b8 01 00 00               	push	440
c010152e: e8 88 fe ff ff               	call	0xc01013bb <beeper_start>
c0101533: 58                           	pop	eax
c0101534: 5a                           	pop	edx
c0101535: 6a 00                        	push	0
c0101537: 68 00 65 cd 1d               	push	500000000
c010153c: e8 ca 2f 00 00               	call	0xc010450b <thread_nano_sleep>
c0101541: e8 ea fe ff ff               	call	0xc0101430 <beeper_stop>
c0101546: 83 c4 10                     	add	esp, 16
c0101549: c9                           	leave
c010154a: e9 1e 30 00 00               	jmp	0xc010456d <thread_terminate>

c010154f <console_io>:
c010154f: 55                           	push	ebp
c0101550: 89 e5                        	mov	ebp, esp
c0101552: 56                           	push	esi
c0101553: 53                           	push	ebx
c0101554: 83 ec 20                     	sub	esp, 32
c0101557: 8b 5d 0c                     	mov	ebx, dword ptr [ebp + 12]
c010155a: 83 7b 0c 00                  	cmp	dword ptr [ebx + 12], 0
c010155e: 75 61                        	jne	0xc01015c1 <console_io+0x72>
c0101560: 83 3d a0 d8 10 c0 00         	cmp	dword ptr [-1072637792], 0
c0101567: b0 01                        	mov	al, 1
c0101569: 0f 84 80 00 00 00            	je	0xc01015ef <console_io+0xa0>
c010156f: 83 7b 04 00                  	cmp	dword ptr [ebx + 4], 0
c0101573: 0f 84 d1 00 00 00            	je	0xc010164a <console_io+0xfb>
c0101579: 84 c0                        	test	al, al
c010157b: 8b 15 a0 d8 10 c0            	mov	edx, dword ptr [-1072637792]
c0101581: 8d 75 f7                     	lea	esi, [ebp - 9]
c0101584: 74 11                        	je	0xc0101597 <console_io+0x48>
c0101586: 83 ec 0c                     	sub	esp, 12
c0101589: 52                           	push	edx
c010158a: e8 ee 33 00 00               	call	0xc010497d <adt_blocking_byte_buffer_get>
c010158f: 83 c4 10                     	add	esp, 16
c0101592: 88 45 f7                     	mov	byte ptr [ebp - 9], al
c0101595: eb 14                        	jmp	0xc01015ab <console_io+0x5c>
c0101597: 50                           	push	eax
c0101598: 50                           	push	eax
c0101599: 56                           	push	esi
c010159a: 52                           	push	edx
c010159b: e8 22 34 00 00               	call	0xc01049c2 <adt_blocking_byte_buffer_try_get>
c01015a0: 83 c4 10                     	add	esp, 16
c01015a3: 85 c0                        	test	eax, eax
c01015a5: 0f 85 9f 00 00 00            	jne	0xc010164a <console_io+0xfb>
c01015ab: 50                           	push	eax
c01015ac: 6a 01                        	push	1
c01015ae: 53                           	push	ebx
c01015af: 56                           	push	esi
c01015b0: e8 2f 42 00 00               	call	0xc01057e4 <uio_move>
c01015b5: 83 c4 10                     	add	esp, 16
c01015b8: 85 c0                        	test	eax, eax
c01015ba: 74 b3                        	je	0xc010156f <console_io+0x20>
c01015bc: e9 8b 00 00 00               	jmp	0xc010164c <console_io+0xfd>
c01015c1: 83 ec 0c                     	sub	esp, 12
c01015c4: 68 c0 d8 10 c0               	push	3222329536
c01015c9: e8 b0 25 00 00               	call	0xc0103b7e <spinlock_acquire>
c01015ce: a1 08 d9 10 c0               	mov	eax, dword ptr [3222329608]
c01015d3: 83 c4 10                     	add	esp, 16
c01015d6: 85 c0                        	test	eax, eax
c01015d8: 74 05                        	je	0xc01015df <console_io+0x90>
c01015da: 83 38 00                     	cmp	dword ptr [eax], 0
c01015dd: 75 29                        	jne	0xc0101608 <console_io+0xb9>
c01015df: 83 ec 0c                     	sub	esp, 12
c01015e2: 68 c0 d8 10 c0               	push	3222329536
c01015e7: e8 97 25 00 00               	call	0xc0103b83 <spinlock_release>
c01015ec: 83 c4 10                     	add	esp, 16
c01015ef: b8 03 00 00 00               	mov	eax, 3
c01015f4: eb 56                        	jmp	0xc010164c <console_io+0xfd>
c01015f6: a1 08 d9 10 c0               	mov	eax, dword ptr [3222329608]
c01015fb: 52                           	push	edx
c01015fc: 52                           	push	edx
c01015fd: 0f be 55 f7                  	movsx	edx, byte ptr [ebp - 9]
c0101601: 52                           	push	edx
c0101602: 50                           	push	eax
c0101603: ff 10                        	call	dword ptr [eax]
c0101605: 83 c4 10                     	add	esp, 16
c0101608: 83 7b 04 00                  	cmp	dword ptr [ebx + 4], 0
c010160c: 74 2c                        	je	0xc010163a <console_io+0xeb>
c010160e: 8d 45 f7                     	lea	eax, [ebp - 9]
c0101611: 51                           	push	ecx
c0101612: 6a 01                        	push	1
c0101614: 53                           	push	ebx
c0101615: 50                           	push	eax
c0101616: e8 c9 41 00 00               	call	0xc01057e4 <uio_move>
c010161b: 83 c4 10                     	add	esp, 16
c010161e: 85 c0                        	test	eax, eax
c0101620: 74 d4                        	je	0xc01015f6 <console_io+0xa7>
c0101622: 83 ec 0c                     	sub	esp, 12
c0101625: 89 45 e4                     	mov	dword ptr [ebp - 28], eax
c0101628: 68 c0 d8 10 c0               	push	3222329536
c010162d: e8 51 25 00 00               	call	0xc0103b83 <spinlock_release>
c0101632: 8b 45 e4                     	mov	eax, dword ptr [ebp - 28]
c0101635: 83 c4 10                     	add	esp, 16
c0101638: eb 12                        	jmp	0xc010164c <console_io+0xfd>
c010163a: 83 ec 0c                     	sub	esp, 12
c010163d: 68 c0 d8 10 c0               	push	3222329536
c0101642: e8 3c 25 00 00               	call	0xc0103b83 <spinlock_release>
c0101647: 83 c4 10                     	add	esp, 16
c010164a: 31 c0                        	xor	eax, eax
c010164c: 8d 65 f8                     	lea	esp, [ebp - 8]
c010164f: 5b                           	pop	ebx
c0101650: 5e                           	pop	esi
c0101651: 5d                           	pop	ebp
c0101652: c3                           	ret

c0101653 <console_add_to_line_buffer>:
c0101653: 8b 0d 80 d0 10 c0            	mov	ecx, dword ptr [-1072639872]
c0101659: 81 f9 00 04 00 00            	cmp	ecx, 1024
c010165f: 75 10                        	jne	0xc0101671 <console_add_to_line_buffer+0x1e>
c0101661: 55                           	push	ebp
c0101662: 89 e5                        	mov	ebp, esp
c0101664: 83 ec 14                     	sub	esp, 20
c0101667: 68 e4 a4 10 c0               	push	3222316260
c010166c: e8 da 3b 00 00               	call	0xc010524b <panic>
c0101671: 88 81 a0 d4 10 c0            	mov	byte ptr [ecx - 1072638816], al
c0101677: 41                           	inc	ecx
c0101678: 88 91 9f d0 10 c0            	mov	byte ptr [ecx - 1072639841], dl
c010167e: 89 0d 80 d0 10 c0            	mov	dword ptr [-1072639872], ecx
c0101684: c3                           	ret

c0101685 <console_register_driver>:
c0101685: 55                           	push	ebp
c0101686: 89 e5                        	mov	ebp, esp
c0101688: 53                           	push	ebx
c0101689: 50                           	push	eax
c010168a: 8b 5d 08                     	mov	ebx, dword ptr [ebp + 8]
c010168d: b8 03 00 00 00               	mov	eax, 3
c0101692: 85 db                        	test	ebx, ebx
c0101694: 74 48                        	je	0xc01016de <console_register_driver+0x59>
c0101696: 83 ec 0c                     	sub	esp, 12
c0101699: 68 c0 d8 10 c0               	push	3222329536
c010169e: e8 db 24 00 00               	call	0xc0103b7e <spinlock_acquire>
c01016a3: 83 c4 10                     	add	esp, 16
c01016a6: 83 3d 08 d9 10 c0 00         	cmp	dword ptr [-1072637688], 0
c01016ad: 74 17                        	je	0xc01016c6 <console_register_driver+0x41>
c01016af: 83 ec 0c                     	sub	esp, 12
c01016b2: 68 c0 d8 10 c0               	push	3222329536
c01016b7: e8 c7 24 00 00               	call	0xc0103b83 <spinlock_release>
c01016bc: 83 c4 10                     	add	esp, 16
c01016bf: b8 04 00 00 00               	mov	eax, 4
c01016c4: eb 18                        	jmp	0xc01016de <console_register_driver+0x59>
c01016c6: 83 ec 0c                     	sub	esp, 12
c01016c9: 89 1d 08 d9 10 c0            	mov	dword ptr [-1072637688], ebx
c01016cf: 68 c0 d8 10 c0               	push	3222329536
c01016d4: e8 aa 24 00 00               	call	0xc0103b83 <spinlock_release>
c01016d9: 83 c4 10                     	add	esp, 16
c01016dc: 31 c0                        	xor	eax, eax
c01016de: 8b 5d fc                     	mov	ebx, dword ptr [ebp - 4]
c01016e1: c9                           	leave
c01016e2: c3                           	ret

c01016e3 <console_init>:
c01016e3: 55                           	push	ebp
c01016e4: 89 e5                        	mov	ebp, esp
c01016e6: 83 ec 10                     	sub	esp, 16
c01016e9: 68 1a a5 10 c0               	push	3222316314
c01016ee: 68 c0 d8 10 c0               	push	3222329536
c01016f3: e8 57 24 00 00               	call	0xc0103b4f <spinlock_init>
c01016f8: 31 c0                        	xor	eax, eax
c01016fa: c7 04 24 50 00 00 00         	mov	dword ptr [esp], 80
c0101701: a3 24 d9 10 c0               	mov	dword ptr [3222329636], eax
c0101706: a3 20 d9 10 c0               	mov	dword ptr [3222329632], eax
c010170b: a3 1c d9 10 c0               	mov	dword ptr [3222329628], eax
c0101710: c7 05 14 d9 10 c0 4f 15 10 c0	mov	dword ptr [-1072637676], 3222279503
c010171a: c7 05 0c d9 10 c0 dd 19 10 c0	mov	dword ptr [-1072637684], 3222280669
c0101724: c7 05 10 d9 10 c0 e0 19 10 c0	mov	dword ptr [-1072637680], 3222280672
c010172e: e8 d2 0c 00 00               	call	0xc0102405 <malloc>
c0101733: a3 18 d9 10 c0               	mov	dword ptr [3222329624], eax
c0101738: c7 40 0c 03 00 00 00         	mov	dword ptr [eax + 12], 3
c010173f: c7 04 24 00 04 00 00         	mov	dword ptr [esp], 1024
c0101746: e8 51 31 00 00               	call	0xc010489c <adt_blocking_byte_buffer_create>
c010174b: 5a                           	pop	edx
c010174c: 59                           	pop	ecx
c010174d: 68 2e a5 10 c0               	push	3222316334
c0101752: 68 0c d9 10 c0               	push	3222329612
c0101757: a3 a0 d8 10 c0               	mov	dword ptr [3222329504], eax
c010175c: e8 87 4a 00 00               	call	0xc01061e8 <vfs_add_device>
c0101761: 83 c4 10                     	add	esp, 16
c0101764: c9                           	leave
c0101765: c3                           	ret

c0101766 <console_panic>:
c0101766: a1 08 d9 10 c0               	mov	eax, dword ptr [3222329608]
c010176b: ff 60 04                     	jmp	dword ptr [eax + 4]

c010176e <console_putc>:
c010176e: 55                           	push	ebp
c010176f: 89 e5                        	mov	ebp, esp
c0101771: 53                           	push	ebx
c0101772: 8d 5d e4                     	lea	ebx, [ebp - 28]
c0101775: 83 ec 3c                     	sub	esp, 60
c0101778: 8b 45 08                     	mov	eax, dword ptr [ebp + 8]
c010177b: 6a 00                        	push	0
c010177d: 88 45 d4                     	mov	byte ptr [ebp - 44], al
c0101780: 8d 45 d4                     	lea	eax, [ebp - 44]
c0101783: 6a 01                        	push	1
c0101785: 6a 00                        	push	0
c0101787: 6a 01                        	push	1
c0101789: 50                           	push	eax
c010178a: 53                           	push	ebx
c010178b: e8 8f 41 00 00               	call	0xc010591f <uio_construct>
c0101790: 89 1c 24                     	mov	dword ptr [esp], ebx
c0101793: 6a 00                        	push	0
c0101795: e8 b5 fd ff ff               	call	0xc010154f <console_io>
c010179a: 8b 5d fc                     	mov	ebx, dword ptr [ebp - 4]
c010179d: 83 c4 20                     	add	esp, 32
c01017a0: c9                           	leave
c01017a1: c3                           	ret

c01017a2 <console_received_character>:
c01017a2: 55                           	push	ebp
c01017a3: 89 e5                        	mov	ebp, esp
c01017a5: 57                           	push	edi
c01017a6: 56                           	push	esi
c01017a7: 53                           	push	ebx
c01017a8: 83 ec 28                     	sub	esp, 40
c01017ab: 8b 7d 08                     	mov	edi, dword ptr [ebp + 8]
c01017ae: 8b 4d 0c                     	mov	ecx, dword ptr [ebp + 12]
c01017b1: 89 f8                        	mov	eax, edi
c01017b3: 89 4d dc                     	mov	dword ptr [ebp - 36], ecx
c01017b6: 88 45 e7                     	mov	byte ptr [ebp - 25], al
c01017b9: 68 c0 d8 10 c0               	push	3222329536
c01017be: e8 bb 23 00 00               	call	0xc0103b7e <spinlock_acquire>
c01017c3: a1 18 d9 10 c0               	mov	eax, dword ptr [3222329624]
c01017c8: 8b 50 0c                     	mov	edx, dword ptr [eax + 12]
c01017cb: 89 d6                        	mov	esi, edx
c01017cd: 83 e2 02                     	and	edx, 2
c01017d0: 89 55 e0                     	mov	dword ptr [ebp - 32], edx
c01017d3: 83 e6 01                     	and	esi, 1
c01017d6: c7 04 24 c0 d8 10 c0         	mov	dword ptr [esp], 3222329536
c01017dd: e8 a1 23 00 00               	call	0xc0103b83 <spinlock_release>
c01017e2: 8b 4d dc                     	mov	ecx, dword ptr [ebp - 36]
c01017e5: 83 c4 10                     	add	esp, 16
c01017e8: 84 c9                        	test	cl, cl
c01017ea: 74 2b                        	je	0xc0101817 <console_received_character+0x75>
c01017ec: 8d 57 c0                     	lea	edx, [edi - 64]
c01017ef: 8d 47 9f                     	lea	eax, [edi - 97]
c01017f2: 89 fb                        	mov	ebx, edi
c01017f4: 80 fa 1f                     	cmp	dl, 31
c01017f7: 0f 96 45 dc                  	setbe	byte ptr [ebp - 36]
c01017fb: 3c 19                        	cmp	al, 25
c01017fd: 0f 96 c2                     	setbe	dl
c0101800: 0a 55 dc                     	or	dl, byte ptr [ebp - 36]
c0101803: 74 16                        	je	0xc010181b <console_received_character+0x79>
c0101805: 3c 19                        	cmp	al, 25
c0101807: 77 06                        	ja	0xc010180f <console_received_character+0x6d>
c0101809: 8d 47 e0                     	lea	eax, [edi - 32]
c010180c: 88 45 e7                     	mov	byte ptr [ebp - 25], al
c010180f: 8a 45 e7                     	mov	al, byte ptr [ebp - 25]
c0101812: 8d 58 c0                     	lea	ebx, [eax - 64]
c0101815: eb 04                        	jmp	0xc010181b <console_received_character+0x79>
c0101817: 31 d2                        	xor	edx, edx
c0101819: 89 fb                        	mov	ebx, edi
c010181b: 80 fb 08                     	cmp	bl, 8
c010181e: 75 5b                        	jne	0xc010187b <console_received_character+0xd9>
c0101820: 8b 15 80 d0 10 c0            	mov	edx, dword ptr [-1072639872]
c0101826: 85 d2                        	test	edx, edx
c0101828: 0f 84 01 01 00 00            	je	0xc010192f <console_received_character+0x18d>
c010182e: 4a                           	dec	edx
c010182f: 89 15 80 d0 10 c0            	mov	dword ptr [-1072639872], edx
c0101835: 85 f6                        	test	esi, esi
c0101837: 0f 84 ad 00 00 00            	je	0xc01018ea <console_received_character+0x148>
c010183d: 31 f6                        	xor	esi, esi
c010183f: a1 80 d0 10 c0               	mov	eax, dword ptr [3222327424]
c0101844: 0f b6 80 a0 d0 10 c0         	movzx	eax, byte ptr [eax - 1072639840]
c010184b: 39 f0                        	cmp	eax, esi
c010184d: 0f 8e 97 00 00 00            	jle	0xc01018ea <console_received_character+0x148>
c0101853: 83 ec 0c                     	sub	esp, 12
c0101856: 46                           	inc	esi
c0101857: 6a 08                        	push	8
c0101859: e8 10 ff ff ff               	call	0xc010176e <console_putc>
c010185e: c7 04 24 20 00 00 00         	mov	dword ptr [esp], 32
c0101865: e8 04 ff ff ff               	call	0xc010176e <console_putc>
c010186a: c7 04 24 08 00 00 00         	mov	dword ptr [esp], 8
c0101871: e8 f8 fe ff ff               	call	0xc010176e <console_putc>
c0101876: 83 c4 10                     	add	esp, 16
c0101879: eb c4                        	jmp	0xc010183f <console_received_character+0x9d>
c010187b: 80 fb 07                     	cmp	bl, 7
c010187e: 75 1a                        	jne	0xc010189a <console_received_character+0xf8>
c0101880: 51                           	push	ecx
c0101881: a1 18 0e 11 c0               	mov	eax, dword ptr [3222343192]
c0101886: ff 70 04                     	push	dword ptr [eax + 4]
c0101889: 6a 00                        	push	0
c010188b: 68 23 15 10 c0               	push	3222279459
c0101890: e8 15 29 00 00               	call	0xc01041aa <thread_create>
c0101895: 83 c4 10                     	add	esp, 16
c0101898: eb 50                        	jmp	0xc01018ea <console_received_character+0x148>
c010189a: 84 c9                        	test	cl, cl
c010189c: 74 2b                        	je	0xc01018c9 <console_received_character+0x127>
c010189e: 84 d2                        	test	dl, dl
c01018a0: 74 48                        	je	0xc01018ea <console_received_character+0x148>
c01018a2: 85 f6                        	test	esi, esi
c01018a4: 74 19                        	je	0xc01018bf <console_received_character+0x11d>
c01018a6: 83 ec 0c                     	sub	esp, 12
c01018a9: 6a 5e                        	push	94
c01018ab: e8 be fe ff ff               	call	0xc010176e <console_putc>
c01018b0: 0f be 75 e7                  	movsx	esi, byte ptr [ebp - 25]
c01018b4: 89 34 24                     	mov	dword ptr [esp], esi
c01018b7: e8 b2 fe ff ff               	call	0xc010176e <console_putc>
c01018bc: 83 c4 10                     	add	esp, 16
c01018bf: 0f be c3                     	movsx	eax, bl
c01018c2: ba 02 00 00 00               	mov	edx, 2
c01018c7: eb 1c                        	jmp	0xc01018e5 <console_received_character+0x143>
c01018c9: 85 f6                        	test	esi, esi
c01018cb: 74 10                        	je	0xc01018dd <console_received_character+0x13b>
c01018cd: 0f be 75 e7                  	movsx	esi, byte ptr [ebp - 25]
c01018d1: 83 ec 0c                     	sub	esp, 12
c01018d4: 56                           	push	esi
c01018d5: e8 94 fe ff ff               	call	0xc010176e <console_putc>
c01018da: 83 c4 10                     	add	esp, 16
c01018dd: 0f be c3                     	movsx	eax, bl
c01018e0: ba 01 00 00 00               	mov	edx, 1
c01018e5: e8 69 fd ff ff               	call	0xc0101653 <console_add_to_line_buffer>
c01018ea: 80 fb 0a                     	cmp	bl, 10
c01018ed: 0f 94 c0                     	sete	al
c01018f0: 80 fb 03                     	cmp	bl, 3
c01018f3: 0f 94 c2                     	sete	dl
c01018f6: 08 d0                        	or	al, dl
c01018f8: 75 06                        	jne	0xc0101900 <console_received_character+0x15e>
c01018fa: 83 7d e0 00                  	cmp	dword ptr [ebp - 32], 0
c01018fe: 75 2f                        	jne	0xc010192f <console_received_character+0x18d>
c0101900: 31 d2                        	xor	edx, edx
c0101902: 8b 35 80 d0 10 c0            	mov	esi, dword ptr [-1072639872]
c0101908: 31 db                        	xor	ebx, ebx
c010190a: 89 15 80 d0 10 c0            	mov	dword ptr [-1072639872], edx
c0101910: 39 de                        	cmp	esi, ebx
c0101912: 7e 1b                        	jle	0xc010192f <console_received_character+0x18d>
c0101914: 50                           	push	eax
c0101915: 43                           	inc	ebx
c0101916: 50                           	push	eax
c0101917: 0f b6 83 9f d4 10 c0         	movzx	eax, byte ptr [ebx - 1072638817]
c010191e: 50                           	push	eax
c010191f: ff 35 a0 d8 10 c0            	push	dword ptr [-1072637792]
c0101925: e8 ed 2f 00 00               	call	0xc0104917 <adt_blocking_byte_buffer_add>
c010192a: 83 c4 10                     	add	esp, 16
c010192d: eb e1                        	jmp	0xc0101910 <console_received_character+0x16e>
c010192f: 8d 65 f4                     	lea	esp, [ebp - 12]
c0101932: 5b                           	pop	ebx
c0101933: 5e                           	pop	esi
c0101934: 5f                           	pop	edi
c0101935: 5d                           	pop	ebp
c0101936: c3                           	ret

c0101937 <console_getc>:
c0101937: 55                           	push	ebp
c0101938: 89 e5                        	mov	ebp, esp
c010193a: 53                           	push	ebx
c010193b: 8d 45 e3                     	lea	eax, [ebp - 29]
c010193e: 8d 5d e4                     	lea	ebx, [ebp - 28]
c0101941: 83 ec 2c                     	sub	esp, 44
c0101944: 6a 00                        	push	0
c0101946: 6a 00                        	push	0
c0101948: 6a 00                        	push	0
c010194a: 6a 01                        	push	1
c010194c: 50                           	push	eax
c010194d: 53                           	push	ebx
c010194e: e8 cc 3f 00 00               	call	0xc010591f <uio_construct>
c0101953: 89 1c 24                     	mov	dword ptr [esp], ebx
c0101956: 6a 00                        	push	0
c0101958: e8 f2 fb ff ff               	call	0xc010154f <console_io>
c010195d: 8a 45 e3                     	mov	al, byte ptr [ebp - 29]
c0101960: 8b 5d fc                     	mov	ebx, dword ptr [ebp - 4]
c0101963: c9                           	leave
c0101964: c3                           	ret

c0101965 <console_gets>:
c0101965: 55                           	push	ebp
c0101966: 89 e5                        	mov	ebp, esp
c0101968: 57                           	push	edi
c0101969: 31 ff                        	xor	edi, edi
c010196b: 56                           	push	esi
c010196c: 53                           	push	ebx
c010196d: 83 ec 18                     	sub	esp, 24
c0101970: 8b 75 08                     	mov	esi, dword ptr [ebp + 8]
c0101973: 68 c0 d8 10 c0               	push	3222329536
c0101978: e8 01 22 00 00               	call	0xc0103b7e <spinlock_acquire>
c010197d: a1 18 d9 10 c0               	mov	eax, dword ptr [3222329624]
c0101982: 8b 58 0c                     	mov	ebx, dword ptr [eax + 12]
c0101985: c7 04 24 c0 d8 10 c0         	mov	dword ptr [esp], 3222329536
c010198c: 83 e3 02                     	and	ebx, 2
c010198f: e8 ef 21 00 00               	call	0xc0103b83 <spinlock_release>
c0101994: 83 c4 10                     	add	esp, 16
c0101997: 8b 45 0c                     	mov	eax, dword ptr [ebp + 12]
c010199a: 48                           	dec	eax
c010199b: 39 f8                        	cmp	eax, edi
c010199d: 7e 22                        	jle	0xc01019c1 <console_gets+0x5c>
c010199f: e8 93 ff ff ff               	call	0xc0101937 <console_getc>
c01019a4: c6 44 3e 01 00               	mov	byte ptr [esi + edi + 1], 0
c01019a9: 3c 0a                        	cmp	al, 10
c01019ab: 88 04 3e                     	mov	byte ptr [esi + edi], al
c01019ae: 0f 94 c2                     	sete	dl
c01019b1: 3c 03                        	cmp	al, 3
c01019b3: 0f 94 c0                     	sete	al
c01019b6: 08 d0                        	or	al, dl
c01019b8: 75 07                        	jne	0xc01019c1 <console_gets+0x5c>
c01019ba: 85 db                        	test	ebx, ebx
c01019bc: 74 03                        	je	0xc01019c1 <console_gets+0x5c>
c01019be: 47                           	inc	edi
c01019bf: eb d6                        	jmp	0xc0101997 <console_gets+0x32>
c01019c1: 8d 65 f4                     	lea	esp, [ebp - 12]
c01019c4: 5b                           	pop	ebx
c01019c5: 5e                           	pop	esi
c01019c6: 5f                           	pop	edi
c01019c7: 5d                           	pop	ebp
c01019c8: c3                           	ret

c01019c9 <interface_init>:
c01019c9: 55                           	push	ebp
c01019ca: 89 e5                        	mov	ebp, esp
c01019cc: 83 ec 08                     	sub	esp, 8
c01019cf: e8 0f fd ff ff               	call	0xc01016e3 <console_init>
c01019d4: c9                           	leave
c01019d5: e9 e4 01 00 00               	jmp	0xc0101bbe <random_init>

c01019da <interface_io_not_needed>:
c01019da: 31 c0                        	xor	eax, eax
c01019dc: c3                           	ret

c01019dd <interface_check_open_not_needed>:
c01019dd: 31 c0                        	xor	eax, eax
c01019df: c3                           	ret

c01019e0 <interface_ioctl_not_needed>:
c01019e0: 31 c0                        	xor	eax, eax
c01019e2: c3                           	ret

c01019e3 <pipe_io>:
c01019e3: 55                           	push	ebp
c01019e4: 89 e5                        	mov	ebp, esp
c01019e6: 57                           	push	edi
c01019e7: 56                           	push	esi
c01019e8: 53                           	push	ebx
c01019e9: 83 ec 1c                     	sub	esp, 28
c01019ec: 8b 45 08                     	mov	eax, dword ptr [ebp + 8]
c01019ef: 8b 5d 0c                     	mov	ebx, dword ptr [ebp + 12]
c01019f2: 8b 40 18                     	mov	eax, dword ptr [eax + 24]
c01019f5: 83 7b 0c 00                  	cmp	dword ptr [ebx + 12], 0
c01019f9: 8b 30                        	mov	esi, dword ptr [eax]
c01019fb: 75 67                        	jne	0xc0101a64 <pipe_io+0x81>
c01019fd: b0 01                        	mov	al, 1
c01019ff: 83 7b 04 00                  	cmp	dword ptr [ebx + 4], 0
c0101a03: 74 65                        	je	0xc0101a6a <pipe_io+0x87>
c0101a05: 84 c0                        	test	al, al
c0101a07: 8d 7d e7                     	lea	edi, [ebp - 25]
c0101a0a: 74 11                        	je	0xc0101a1d <pipe_io+0x3a>
c0101a0c: 83 ec 0c                     	sub	esp, 12
c0101a0f: 56                           	push	esi
c0101a10: e8 68 2f 00 00               	call	0xc010497d <adt_blocking_byte_buffer_get>
c0101a15: 83 c4 10                     	add	esp, 16
c0101a18: 88 45 e7                     	mov	byte ptr [ebp - 25], al
c0101a1b: eb 10                        	jmp	0xc0101a2d <pipe_io+0x4a>
c0101a1d: 50                           	push	eax
c0101a1e: 50                           	push	eax
c0101a1f: 57                           	push	edi
c0101a20: 56                           	push	esi
c0101a21: e8 9c 2f 00 00               	call	0xc01049c2 <adt_blocking_byte_buffer_try_get>
c0101a26: 83 c4 10                     	add	esp, 16
c0101a29: 85 c0                        	test	eax, eax
c0101a2b: 75 3d                        	jne	0xc0101a6a <pipe_io+0x87>
c0101a2d: 51                           	push	ecx
c0101a2e: 6a 01                        	push	1
c0101a30: 53                           	push	ebx
c0101a31: 57                           	push	edi
c0101a32: e8 ad 3d 00 00               	call	0xc01057e4 <uio_move>
c0101a37: 83 c4 10                     	add	esp, 16
c0101a3a: 85 c0                        	test	eax, eax
c0101a3c: 74 c1                        	je	0xc01019ff <pipe_io+0x1c>
c0101a3e: eb 2c                        	jmp	0xc0101a6c <pipe_io+0x89>
c0101a40: 8d 45 e7                     	lea	eax, [ebp - 25]
c0101a43: 52                           	push	edx
c0101a44: 6a 01                        	push	1
c0101a46: 53                           	push	ebx
c0101a47: 50                           	push	eax
c0101a48: e8 97 3d 00 00               	call	0xc01057e4 <uio_move>
c0101a4d: 83 c4 10                     	add	esp, 16
c0101a50: 85 c0                        	test	eax, eax
c0101a52: 75 18                        	jne	0xc0101a6c <pipe_io+0x89>
c0101a54: 50                           	push	eax
c0101a55: 50                           	push	eax
c0101a56: 0f b6 45 e7                  	movzx	eax, byte ptr [ebp - 25]
c0101a5a: 50                           	push	eax
c0101a5b: 56                           	push	esi
c0101a5c: e8 b6 2e 00 00               	call	0xc0104917 <adt_blocking_byte_buffer_add>
c0101a61: 83 c4 10                     	add	esp, 16
c0101a64: 83 7b 04 00                  	cmp	dword ptr [ebx + 4], 0
c0101a68: 75 d6                        	jne	0xc0101a40 <pipe_io+0x5d>
c0101a6a: 31 c0                        	xor	eax, eax
c0101a6c: 8d 65 f4                     	lea	esp, [ebp - 12]
c0101a6f: 5b                           	pop	ebx
c0101a70: 5e                           	pop	esi
c0101a71: 5f                           	pop	edi
c0101a72: 5d                           	pop	ebp
c0101a73: c3                           	ret

c0101a74 <pipe_initialise_internal>:
c0101a74: 55                           	push	ebp
c0101a75: 89 e5                        	mov	ebp, esp
c0101a77: 83 ec 14                     	sub	esp, 20
c0101a7a: 6a 1c                        	push	28
c0101a7c: e8 84 09 00 00               	call	0xc0102405 <malloc>
c0101a81: 31 d2                        	xor	edx, edx
c0101a83: 31 c9                        	xor	ecx, ecx
c0101a85: 89 50 0c                     	mov	dword ptr [eax + 12], edx
c0101a88: 8b 55 08                     	mov	edx, dword ptr [ebp + 8]
c0101a8b: c7 00 dd 19 10 c0            	mov	dword ptr [eax], 3222280669
c0101a91: c7 40 04 e0 19 10 c0         	mov	dword ptr [eax + 4], 3222280672
c0101a98: 89 50 08                     	mov	dword ptr [eax + 8], edx
c0101a9b: 89 48 18                     	mov	dword ptr [eax + 24], ecx
c0101a9e: c9                           	leave
c0101a9f: c3                           	ret

c0101aa0 <pipe_create>:
c0101aa0: 55                           	push	ebp
c0101aa1: 89 e5                        	mov	ebp, esp
c0101aa3: 57                           	push	edi
c0101aa4: 56                           	push	esi
c0101aa5: be 07 00 00 00               	mov	esi, 7
c0101aaa: 53                           	push	ebx
c0101aab: 83 ec 0c                     	sub	esp, 12
c0101aae: 83 7d 08 00                  	cmp	dword ptr [ebp + 8], 0
c0101ab2: 8b 5d 0c                     	mov	ebx, dword ptr [ebp + 12]
c0101ab5: 74 62                        	je	0xc0101b19 <pipe_create+0x79>
c0101ab7: 89 de                        	mov	esi, ebx
c0101ab9: 81 e6 7f fe ff ff            	and	esi, 4294966911
c0101abf: 75 53                        	jne	0xc0101b14 <pipe_create+0x74>
c0101ac1: 83 ec 0c                     	sub	esp, 12
c0101ac4: 6a 08                        	push	8
c0101ac6: e8 3a 09 00 00               	call	0xc0102405 <malloc>
c0101acb: 89 58 04                     	mov	dword ptr [eax + 4], ebx
c0101ace: 89 c7                        	mov	edi, eax
c0101ad0: 81 e3 80 00 00 00            	and	ebx, 128
c0101ad6: c7 04 24 00 10 00 00         	mov	dword ptr [esp], 4096
c0101add: e8 ba 2d 00 00               	call	0xc010489c <adt_blocking_byte_buffer_create>
c0101ae2: 89 07                        	mov	dword ptr [edi], eax
c0101ae4: c7 04 24 e3 19 10 c0         	mov	dword ptr [esp], 3222280675
c0101aeb: e8 84 ff ff ff               	call	0xc0101a74 <pipe_initialise_internal>
c0101af0: 89 04 24                     	mov	dword ptr [esp], eax
c0101af3: e8 ba 39 00 00               	call	0xc01054b2 <dev_create_vnode>
c0101af8: c7 04 24 01 00 00 00         	mov	dword ptr [esp], 1
c0101aff: 6a 01                        	push	1
c0101b01: 53                           	push	ebx
c0101b02: 6a 00                        	push	0
c0101b04: 50                           	push	eax
c0101b05: e8 85 46 00 00               	call	0xc010618f <open_file_create>
c0101b0a: 8b 55 08                     	mov	edx, dword ptr [ebp + 8]
c0101b0d: 83 c4 20                     	add	esp, 32
c0101b10: 89 02                        	mov	dword ptr [edx], eax
c0101b12: eb 05                        	jmp	0xc0101b19 <pipe_create+0x79>
c0101b14: be 07 00 00 00               	mov	esi, 7
c0101b19: 8d 65 f4                     	lea	esp, [ebp - 12]
c0101b1c: 89 f0                        	mov	eax, esi
c0101b1e: 5b                           	pop	ebx
c0101b1f: 5e                           	pop	esi
c0101b20: 5f                           	pop	edi
c0101b21: 5d                           	pop	ebp
c0101b22: c3                           	ret

c0101b23 <random_io>:
c0101b23: 55                           	push	ebp
c0101b24: b8 07 00 00 00               	mov	eax, 7
c0101b29: 89 e5                        	mov	ebp, esp
c0101b2b: 57                           	push	edi
c0101b2c: 56                           	push	esi
c0101b2d: 53                           	push	ebx
c0101b2e: 83 ec 1c                     	sub	esp, 28
c0101b31: 8b 5d 0c                     	mov	ebx, dword ptr [ebp + 12]
c0101b34: 83 7b 0c 01                  	cmp	dword ptr [ebx + 12], 1
c0101b38: 74 7c                        	je	0xc0101bb6 <random_io+0x93>
c0101b3a: 83 7b 04 00                  	cmp	dword ptr [ebx + 4], 0
c0101b3e: 74 74                        	je	0xc0101bb4 <random_io+0x91>
c0101b40: 83 ec 0c                     	sub	esp, 12
c0101b43: 68 40 d9 10 c0               	push	3222329664
c0101b48: e8 31 20 00 00               	call	0xc0103b7e <spinlock_acquire>
c0101b4d: 69 05 00 c0 10 c0 d6 c9 48 02	imul	eax, dword ptr [-1072644096], 38324694
c0101b57: 69 0d 04 c0 10 c0 a5 2b 35 8b	imul	ecx, dword ptr [-1072644092], 2335517605
c0101b61: 01 c1                        	add	ecx, eax
c0101b63: b8 a5 2b 35 8b               	mov	eax, 2335517605
c0101b68: f7 25 00 c0 10 c0            	mul	dword ptr [-1072644096]
c0101b6e: 01 ca                        	add	edx, ecx
c0101b70: 05 7d 12 fd 98               	add	eax, 2566722173
c0101b75: 81 d2 48 6e 8b cc            	adc	edx, 3431689800
c0101b7b: a3 00 c0 10 c0               	mov	dword ptr [3222323200], eax
c0101b80: 89 15 04 c0 10 c0            	mov	dword ptr [-1072644092], edx
c0101b86: 89 d7                        	mov	edi, edx
c0101b88: c7 04 24 40 d9 10 c0         	mov	dword ptr [esp], 3222329664
c0101b8f: e8 ef 1f 00 00               	call	0xc0103b83 <spinlock_release>
c0101b94: 89 f8                        	mov	eax, edi
c0101b96: 83 c4 0c                     	add	esp, 12
c0101b99: c1 e8 16                     	shr	eax, 22
c0101b9c: 88 45 e7                     	mov	byte ptr [ebp - 25], al
c0101b9f: 8d 45 e7                     	lea	eax, [ebp - 25]
c0101ba2: 6a 01                        	push	1
c0101ba4: 53                           	push	ebx
c0101ba5: 50                           	push	eax
c0101ba6: e8 39 3c 00 00               	call	0xc01057e4 <uio_move>
c0101bab: 83 c4 10                     	add	esp, 16
c0101bae: 85 c0                        	test	eax, eax
c0101bb0: 74 88                        	je	0xc0101b3a <random_io+0x17>
c0101bb2: eb 02                        	jmp	0xc0101bb6 <random_io+0x93>
c0101bb4: 31 c0                        	xor	eax, eax
c0101bb6: 8d 65 f4                     	lea	esp, [ebp - 12]
c0101bb9: 5b                           	pop	ebx
c0101bba: 5e                           	pop	esi
c0101bbb: 5f                           	pop	edi
c0101bbc: 5d                           	pop	ebp
c0101bbd: c3                           	ret

c0101bbe <random_init>:
c0101bbe: 55                           	push	ebp
c0101bbf: 89 e5                        	mov	ebp, esp
c0101bc1: 83 ec 10                     	sub	esp, 16
c0101bc4: 68 32 a5 10 c0               	push	3222316338
c0101bc9: 68 40 d9 10 c0               	push	3222329664
c0101bce: e8 7c 1f 00 00               	call	0xc0103b4f <spinlock_init>
c0101bd3: 31 c0                        	xor	eax, eax
c0101bd5: 31 d2                        	xor	edx, edx
c0101bd7: 31 c9                        	xor	ecx, ecx
c0101bd9: a3 a0 d9 10 c0               	mov	dword ptr [3222329760], eax
c0101bde: 58                           	pop	eax
c0101bdf: 89 15 98 d9 10 c0            	mov	dword ptr [-1072637544], edx
c0101be5: 5a                           	pop	edx
c0101be6: 68 3e a5 10 c0               	push	3222316350
c0101beb: 68 88 d9 10 c0               	push	3222329736
c0101bf0: c7 05 9c d9 10 c0 01 00 00 00	mov	dword ptr [-1072637540], 1
c0101bfa: c7 05 90 d9 10 c0 23 1b 10 c0	mov	dword ptr [-1072637552], 3222280995
c0101c04: c7 05 88 d9 10 c0 dd 19 10 c0	mov	dword ptr [-1072637560], 3222280669
c0101c0e: c7 05 8c d9 10 c0 e0 19 10 c0	mov	dword ptr [-1072637556], 3222280672
c0101c18: 89 0d 94 d9 10 c0            	mov	dword ptr [-1072637548], ecx
c0101c1e: e8 c5 45 00 00               	call	0xc01061e8 <vfs_add_device>
c0101c23: 83 c4 10                     	add	esp, 16
c0101c26: c9                           	leave
c0101c27: c3                           	ret

c0101c28 <rand32>:
c0101c28: 55                           	push	ebp
c0101c29: 89 e5                        	mov	ebp, esp
c0101c2b: 53                           	push	ebx
c0101c2c: 8d 45 dc                     	lea	eax, [ebp - 36]
c0101c2f: 8d 5d e4                     	lea	ebx, [ebp - 28]
c0101c32: 83 ec 2c                     	sub	esp, 44
c0101c35: 6a 00                        	push	0
c0101c37: 6a 00                        	push	0
c0101c39: 6a 00                        	push	0
c0101c3b: 6a 04                        	push	4
c0101c3d: 50                           	push	eax
c0101c3e: 53                           	push	ebx
c0101c3f: e8 db 3c 00 00               	call	0xc010591f <uio_construct>
c0101c44: 8d 45 e0                     	lea	eax, [ebp - 32]
c0101c47: 83 c4 1c                     	add	esp, 28
c0101c4a: 50                           	push	eax
c0101c4b: 6a 00                        	push	0
c0101c4d: 6a 00                        	push	0
c0101c4f: 68 43 a5 10 c0               	push	3222316355
c0101c54: e8 72 46 00 00               	call	0xc01062cb <vfs_open>
c0101c59: 58                           	pop	eax
c0101c5a: 5a                           	pop	edx
c0101c5b: 53                           	push	ebx
c0101c5c: ff 75 e0                     	push	dword ptr [ebp - 32]
c0101c5f: e8 e8 42 00 00               	call	0xc0105f4c <vfs_read>
c0101c64: 59                           	pop	ecx
c0101c65: ff 75 e0                     	push	dword ptr [ebp - 32]
c0101c68: e8 ef 44 00 00               	call	0xc010615c <vfs_close>
c0101c6d: 8b 45 dc                     	mov	eax, dword ptr [ebp - 36]
c0101c70: 8b 5d fc                     	mov	ebx, dword ptr [ebp - 4]
c0101c73: c9                           	leave
c0101c74: c3                           	ret

c0101c75 <video_init>:
c0101c75: 55                           	push	ebp
c0101c76: 89 e5                        	mov	ebp, esp
c0101c78: 83 ec 10                     	sub	esp, 16
c0101c7b: 68 49 a5 10 c0               	push	3222316361
c0101c80: 68 c0 d9 10 c0               	push	3222329792
c0101c85: e8 c5 1e 00 00               	call	0xc0103b4f <spinlock_init>
c0101c8a: 83 c4 10                     	add	esp, 16
c0101c8d: c9                           	leave
c0101c8e: c3                           	ret

c0101c8f <video_register_driver>:
c0101c8f: 55                           	push	ebp
c0101c90: 89 e5                        	mov	ebp, esp
c0101c92: 53                           	push	ebx
c0101c93: 50                           	push	eax
c0101c94: 8b 5d 08                     	mov	ebx, dword ptr [ebp + 8]
c0101c97: b8 03 00 00 00               	mov	eax, 3
c0101c9c: 85 db                        	test	ebx, ebx
c0101c9e: 74 48                        	je	0xc0101ce8 <video_register_driver+0x59>
c0101ca0: 83 ec 0c                     	sub	esp, 12
c0101ca3: 68 c0 d9 10 c0               	push	3222329792
c0101ca8: e8 d1 1e 00 00               	call	0xc0103b7e <spinlock_acquire>
c0101cad: 83 c4 10                     	add	esp, 16
c0101cb0: 83 3d 08 da 10 c0 00         	cmp	dword ptr [-1072637432], 0
c0101cb7: 74 17                        	je	0xc0101cd0 <video_register_driver+0x41>
c0101cb9: 83 ec 0c                     	sub	esp, 12
c0101cbc: 68 c0 d9 10 c0               	push	3222329792
c0101cc1: e8 bd 1e 00 00               	call	0xc0103b83 <spinlock_release>
c0101cc6: 83 c4 10                     	add	esp, 16
c0101cc9: b8 04 00 00 00               	mov	eax, 4
c0101cce: eb 18                        	jmp	0xc0101ce8 <video_register_driver+0x59>
c0101cd0: 83 ec 0c                     	sub	esp, 12
c0101cd3: 89 1d 08 da 10 c0            	mov	dword ptr [-1072637432], ebx
c0101cd9: 68 c0 d9 10 c0               	push	3222329792
c0101cde: e8 a0 1e 00 00               	call	0xc0103b83 <spinlock_release>
c0101ce3: 83 c4 10                     	add	esp, 16
c0101ce6: 31 c0                        	xor	eax, eax
c0101ce8: 8b 5d fc                     	mov	ebx, dword ptr [ebp - 4]
c0101ceb: c9                           	leave
c0101cec: c3                           	ret

c0101ced <video_putpixel>:
c0101ced: 55                           	push	ebp
c0101cee: 89 e5                        	mov	ebp, esp
c0101cf0: 83 ec 14                     	sub	esp, 20
c0101cf3: 68 c0 d9 10 c0               	push	3222329792
c0101cf8: e8 81 1e 00 00               	call	0xc0103b7e <spinlock_acquire>
c0101cfd: a1 08 da 10 c0               	mov	eax, dword ptr [3222329864]
c0101d02: 83 c4 10                     	add	esp, 16
c0101d05: 85 c0                        	test	eax, eax
c0101d07: 74 20                        	je	0xc0101d29 <video_putpixel+0x3c>
c0101d09: ff 75 10                     	push	dword ptr [ebp + 16]
c0101d0c: ff 75 0c                     	push	dword ptr [ebp + 12]
c0101d0f: ff 75 08                     	push	dword ptr [ebp + 8]
c0101d12: 50                           	push	eax
c0101d13: ff 50 04                     	call	dword ptr [eax + 4]
c0101d16: c7 04 24 c0 d9 10 c0         	mov	dword ptr [esp], 3222329792
c0101d1d: e8 61 1e 00 00               	call	0xc0103b83 <spinlock_release>
c0101d22: 83 c4 10                     	add	esp, 16
c0101d25: 31 c0                        	xor	eax, eax
c0101d27: eb 15                        	jmp	0xc0101d3e <video_putpixel+0x51>
c0101d29: 83 ec 0c                     	sub	esp, 12
c0101d2c: 68 c0 d9 10 c0               	push	3222329792
c0101d31: e8 4d 1e 00 00               	call	0xc0103b83 <spinlock_release>
c0101d36: 83 c4 10                     	add	esp, 16
c0101d39: b8 03 00 00 00               	mov	eax, 3
c0101d3e: c9                           	leave
c0101d3f: c3                           	ret

c0101d40 <video_putline>:
c0101d40: 55                           	push	ebp
c0101d41: 89 e5                        	mov	ebp, esp
c0101d43: 83 ec 14                     	sub	esp, 20
c0101d46: 68 c0 d9 10 c0               	push	3222329792
c0101d4b: e8 2e 1e 00 00               	call	0xc0103b7e <spinlock_acquire>
c0101d50: a1 08 da 10 c0               	mov	eax, dword ptr [3222329864]
c0101d55: 83 c4 10                     	add	esp, 16
c0101d58: 85 c0                        	test	eax, eax
c0101d5a: 74 27                        	je	0xc0101d83 <video_putline+0x43>
c0101d5c: 83 ec 0c                     	sub	esp, 12
c0101d5f: ff 75 14                     	push	dword ptr [ebp + 20]
c0101d62: ff 75 10                     	push	dword ptr [ebp + 16]
c0101d65: ff 75 0c                     	push	dword ptr [ebp + 12]
c0101d68: ff 75 08                     	push	dword ptr [ebp + 8]
c0101d6b: 50                           	push	eax
c0101d6c: ff 50 08                     	call	dword ptr [eax + 8]
c0101d6f: 83 c4 14                     	add	esp, 20
c0101d72: 68 c0 d9 10 c0               	push	3222329792
c0101d77: e8 07 1e 00 00               	call	0xc0103b83 <spinlock_release>
c0101d7c: 83 c4 10                     	add	esp, 16
c0101d7f: 31 c0                        	xor	eax, eax
c0101d81: eb 15                        	jmp	0xc0101d98 <video_putline+0x58>
c0101d83: 83 ec 0c                     	sub	esp, 12
c0101d86: 68 c0 d9 10 c0               	push	3222329792
c0101d8b: e8 f3 1d 00 00               	call	0xc0103b83 <spinlock_release>
c0101d90: 83 c4 10                     	add	esp, 16
c0101d93: b8 03 00 00 00               	mov	eax, 3
c0101d98: c9                           	leave
c0101d99: c3                           	ret

c0101d9a <video_putrect>:
c0101d9a: 55                           	push	ebp
c0101d9b: 89 e5                        	mov	ebp, esp
c0101d9d: 83 ec 14                     	sub	esp, 20
c0101da0: 68 c0 d9 10 c0               	push	3222329792
c0101da5: e8 d4 1d 00 00               	call	0xc0103b7e <spinlock_acquire>
c0101daa: a1 08 da 10 c0               	mov	eax, dword ptr [3222329864]
c0101daf: 83 c4 10                     	add	esp, 16
c0101db2: 85 c0                        	test	eax, eax
c0101db4: 74 29                        	je	0xc0101ddf <video_putrect+0x45>
c0101db6: 52                           	push	edx
c0101db7: 52                           	push	edx
c0101db8: ff 75 18                     	push	dword ptr [ebp + 24]
c0101dbb: ff 75 14                     	push	dword ptr [ebp + 20]
c0101dbe: ff 75 10                     	push	dword ptr [ebp + 16]
c0101dc1: ff 75 0c                     	push	dword ptr [ebp + 12]
c0101dc4: ff 75 08                     	push	dword ptr [ebp + 8]
c0101dc7: 50                           	push	eax
c0101dc8: ff 50 0c                     	call	dword ptr [eax + 12]
c0101dcb: 83 c4 14                     	add	esp, 20
c0101dce: 68 c0 d9 10 c0               	push	3222329792
c0101dd3: e8 ab 1d 00 00               	call	0xc0103b83 <spinlock_release>
c0101dd8: 83 c4 10                     	add	esp, 16
c0101ddb: 31 c0                        	xor	eax, eax
c0101ddd: eb 15                        	jmp	0xc0101df4 <video_putrect+0x5a>
c0101ddf: 83 ec 0c                     	sub	esp, 12
c0101de2: 68 c0 d9 10 c0               	push	3222329792
c0101de7: e8 97 1d 00 00               	call	0xc0103b83 <spinlock_release>
c0101dec: 83 c4 10                     	add	esp, 16
c0101def: b8 03 00 00 00               	mov	eax, 3
c0101df4: c9                           	leave
c0101df5: c3                           	ret

c0101df6 <basic_shell>:
c0101df6: 55                           	push	ebp
c0101df7: 89 e5                        	mov	ebp, esp
c0101df9: 56                           	push	esi
c0101dfa: 53                           	push	ebx
c0101dfb: 81 ec 2c 02 00 00            	sub	esp, 556
c0101e01: 68 54 a5 10 c0               	push	3222316372
c0101e06: e8 78 32 00 00               	call	0xc0105083 <kprintf>
c0101e0b: 83 c4 10                     	add	esp, 16
c0101e0e: 83 ec 0c                     	sub	esp, 12
c0101e11: 8d 9d f0 fd ff ff            	lea	ebx, [ebp - 528]
c0101e17: 68 89 a5 10 c0               	push	3222316425
c0101e1c: e8 62 32 00 00               	call	0xc0105083 <kprintf>
c0101e21: 58                           	pop	eax
c0101e22: 5a                           	pop	edx
c0101e23: 68 00 01 00 00               	push	256
c0101e28: 53                           	push	ebx
c0101e29: e8 37 fb ff ff               	call	0xc0101965 <console_gets>
c0101e2e: 8a 85 f0 fd ff ff            	mov	al, byte ptr [ebp - 528]
c0101e34: 83 c4 10                     	add	esp, 16
c0101e37: 3c 0a                        	cmp	al, 10
c0101e39: 74 d3                        	je	0xc0101e0e <basic_shell+0x18>
c0101e3b: 84 c0                        	test	al, al
c0101e3d: 74 cf                        	je	0xc0101e0e <basic_shell+0x18>
c0101e3f: 83 ec 0c                     	sub	esp, 12
c0101e42: 53                           	push	ebx
c0101e43: e8 d9 f4 ff ff               	call	0xc0101321 <strlen>
c0101e48: 83 c4 10                     	add	esp, 16
c0101e4b: 80 bc 05 ef fd ff ff 0a      	cmp	byte ptr [ebp + eax - 529], 10
c0101e53: 75 14                        	jne	0xc0101e69 <basic_shell+0x73>
c0101e55: 83 ec 0c                     	sub	esp, 12
c0101e58: 53                           	push	ebx
c0101e59: e8 c3 f4 ff ff               	call	0xc0101321 <strlen>
c0101e5e: 83 c4 10                     	add	esp, 16
c0101e61: c6 84 05 ef fd ff ff 00      	mov	byte ptr [ebp + eax - 529], 0
c0101e69: 50                           	push	eax
c0101e6a: 6a 04                        	push	4
c0101e6c: 68 8b a5 10 c0               	push	3222316427
c0101e71: 53                           	push	ebx
c0101e72: e8 15 f5 ff ff               	call	0xc010138c <strncmp>
c0101e77: 83 c4 10                     	add	esp, 16
c0101e7a: 85 c0                        	test	eax, eax
c0101e7c: 75 19                        	jne	0xc0101e97 <basic_shell+0xa1>
c0101e7e: 83 ec 0c                     	sub	esp, 12
c0101e81: 68 90 a5 10 c0               	push	3222316432
c0101e86: e8 f8 31 00 00               	call	0xc0105083 <kprintf>
c0101e8b: c7 04 24 be a6 10 c0         	mov	dword ptr [esp], 3222316734
c0101e92: e9 6f ff ff ff               	jmp	0xc0101e06 <basic_shell+0x10>
c0101e97: 56                           	push	esi
c0101e98: 6a 04                        	push	4
c0101e9a: 68 bb a5 10 c0               	push	3222316475
c0101e9f: 53                           	push	ebx
c0101ea0: e8 e7 f4 ff ff               	call	0xc010138c <strncmp>
c0101ea5: 83 c4 10                     	add	esp, 16
c0101ea8: 85 c0                        	test	eax, eax
c0101eaa: 0f 85 22 01 00 00            	jne	0xc0101fd2 <basic_shell+0x1dc>
c0101eb0: 83 ec 0c                     	sub	esp, 12
c0101eb3: 53                           	push	ebx
c0101eb4: e8 68 f4 ff ff               	call	0xc0101321 <strlen>
c0101eb9: 83 c4 10                     	add	esp, 16
c0101ebc: 83 f8 05                     	cmp	eax, 5
c0101ebf: 0f 86 f0 00 00 00            	jbe	0xc0101fb5 <basic_shell+0x1bf>
c0101ec5: 8d 85 d8 fd ff ff            	lea	eax, [ebp - 552]
c0101ecb: 50                           	push	eax
c0101ecc: 8d 85 f5 fd ff ff            	lea	eax, [ebp - 523]
c0101ed2: 6a 00                        	push	0
c0101ed4: 6a 00                        	push	0
c0101ed6: 50                           	push	eax
c0101ed7: e8 ef 43 00 00               	call	0xc01062cb <vfs_open>
c0101edc: 83 c4 10                     	add	esp, 16
c0101edf: 85 c0                        	test	eax, eax
c0101ee1: 0f 85 37 01 00 00            	jne	0xc010201e <basic_shell+0x228>
c0101ee7: 8d 85 f0 fe ff ff            	lea	eax, [ebp - 272]
c0101eed: 51                           	push	ecx
c0101eee: 51                           	push	ecx
c0101eef: 50                           	push	eax
c0101ef0: 8b 85 d8 fd ff ff            	mov	eax, dword ptr [ebp - 552]
c0101ef6: ff 70 5c                     	push	dword ptr [eax + 92]
c0101ef9: e8 86 48 00 00               	call	0xc0106784 <vnode_op_stat>
c0101efe: 83 c4 10                     	add	esp, 16
c0101f01: 85 c0                        	test	eax, eax
c0101f03: 0f 85 83 00 00 00            	jne	0xc0101f8c <basic_shell+0x196>
c0101f09: 8b 85 14 ff ff ff            	mov	eax, dword ptr [ebp - 236]
c0101f0f: 83 ec 0c                     	sub	esp, 12
c0101f12: 8d b5 dc fd ff ff            	lea	esi, [ebp - 548]
c0101f18: 40                           	inc	eax
c0101f19: 50                           	push	eax
c0101f1a: e8 e6 04 00 00               	call	0xc0102405 <malloc>
c0101f1f: 83 c4 0c                     	add	esp, 12
c0101f22: 89 c3                        	mov	ebx, eax
c0101f24: 8b 85 14 ff ff ff            	mov	eax, dword ptr [ebp - 236]
c0101f2a: 40                           	inc	eax
c0101f2b: 50                           	push	eax
c0101f2c: 6a 00                        	push	0
c0101f2e: 53                           	push	ebx
c0101f2f: e8 46 f3 ff ff               	call	0xc010127a <memset>
c0101f34: 58                           	pop	eax
c0101f35: 5a                           	pop	edx
c0101f36: 6a 00                        	push	0
c0101f38: 6a 00                        	push	0
c0101f3a: 6a 00                        	push	0
c0101f3c: ff b5 14 ff ff ff            	push	dword ptr [ebp - 236]
c0101f42: 53                           	push	ebx
c0101f43: 56                           	push	esi
c0101f44: e8 d6 39 00 00               	call	0xc010591f <uio_construct>
c0101f49: 89 34 24                     	mov	dword ptr [esp], esi
c0101f4c: ff b5 d8 fd ff ff            	push	dword ptr [ebp - 552]
c0101f52: e8 f5 3f 00 00               	call	0xc0105f4c <vfs_read>
c0101f57: 83 c4 20                     	add	esp, 32
c0101f5a: 85 c0                        	test	eax, eax
c0101f5c: 74 13                        	je	0xc0101f71 <basic_shell+0x17b>
c0101f5e: 83 ec 0c                     	sub	esp, 12
c0101f61: 50                           	push	eax
c0101f62: e8 a1 f3 ff ff               	call	0xc0101308 <strerror>
c0101f67: 5a                           	pop	edx
c0101f68: 59                           	pop	ecx
c0101f69: 50                           	push	eax
c0101f6a: 68 d1 a5 10 c0               	push	3222316497
c0101f6f: eb 08                        	jmp	0xc0101f79 <basic_shell+0x183>
c0101f71: 56                           	push	esi
c0101f72: 56                           	push	esi
c0101f73: 53                           	push	ebx
c0101f74: 68 e2 a5 10 c0               	push	3222316514
c0101f79: e8 05 31 00 00               	call	0xc0105083 <kprintf>
c0101f7e: 83 c4 10                     	add	esp, 16
c0101f81: 83 ec 0c                     	sub	esp, 12
c0101f84: 53                           	push	ebx
c0101f85: e8 9a 05 00 00               	call	0xc0102524 <free>
c0101f8a: eb 16                        	jmp	0xc0101fa2 <basic_shell+0x1ac>
c0101f8c: 83 ec 0c                     	sub	esp, 12
c0101f8f: 50                           	push	eax
c0101f90: e8 73 f3 ff ff               	call	0xc0101308 <strerror>
c0101f95: 5a                           	pop	edx
c0101f96: 59                           	pop	ecx
c0101f97: 50                           	push	eax
c0101f98: 68 e5 a5 10 c0               	push	3222316517
c0101f9d: e8 e1 30 00 00               	call	0xc0105083 <kprintf>
c0101fa2: 83 c4 10                     	add	esp, 16
c0101fa5: 83 ec 0c                     	sub	esp, 12
c0101fa8: ff b5 d8 fd ff ff            	push	dword ptr [ebp - 552]
c0101fae: e8 a9 41 00 00               	call	0xc010615c <vfs_close>
c0101fb3: eb 0d                        	jmp	0xc0101fc2 <basic_shell+0x1cc>
c0101fb5: 83 ec 0c                     	sub	esp, 12
c0101fb8: 68 f6 a5 10 c0               	push	3222316534
c0101fbd: e8 c1 30 00 00               	call	0xc0105083 <kprintf>
c0101fc2: 83 c4 10                     	add	esp, 16
c0101fc5: 83 ec 0c                     	sub	esp, 12
c0101fc8: 68 be a6 10 c0               	push	3222316734
c0101fcd: e9 34 fe ff ff               	jmp	0xc0101e06 <basic_shell+0x10>
c0101fd2: 56                           	push	esi
c0101fd3: 6a 02                        	push	2
c0101fd5: 68 09 a6 10 c0               	push	3222316553
c0101fda: 53                           	push	ebx
c0101fdb: e8 ac f3 ff ff               	call	0xc010138c <strncmp>
c0101fe0: 83 c4 10                     	add	esp, 16
c0101fe3: 85 c0                        	test	eax, eax
c0101fe5: 0f 85 ee 00 00 00            	jne	0xc01020d9 <basic_shell+0x2e3>
c0101feb: 83 ec 0c                     	sub	esp, 12
c0101fee: 53                           	push	ebx
c0101fef: e8 2d f3 ff ff               	call	0xc0101321 <strlen>
c0101ff4: 83 c4 10                     	add	esp, 16
c0101ff7: 83 f8 03                     	cmp	eax, 3
c0101ffa: 0f 86 cc 00 00 00            	jbe	0xc01020cc <basic_shell+0x2d6>
c0102000: 8d 85 d8 fd ff ff            	lea	eax, [ebp - 552]
c0102006: 50                           	push	eax
c0102007: 8d 85 f3 fd ff ff            	lea	eax, [ebp - 525]
c010200d: 6a 00                        	push	0
c010200f: 6a 00                        	push	0
c0102011: 50                           	push	eax
c0102012: e8 b4 42 00 00               	call	0xc01062cb <vfs_open>
c0102017: 83 c4 10                     	add	esp, 16
c010201a: 85 c0                        	test	eax, eax
c010201c: 74 13                        	je	0xc0102031 <basic_shell+0x23b>
c010201e: 83 ec 0c                     	sub	esp, 12
c0102021: 50                           	push	eax
c0102022: e8 e1 f2 ff ff               	call	0xc0101308 <strerror>
c0102027: 5a                           	pop	edx
c0102028: 59                           	pop	ecx
c0102029: 50                           	push	eax
c010202a: 68 c0 a5 10 c0               	push	3222316480
c010202f: eb 8c                        	jmp	0xc0101fbd <basic_shell+0x1c7>
c0102031: 31 db                        	xor	ebx, ebx
c0102033: 8d b5 dc fd ff ff            	lea	esi, [ebp - 548]
c0102039: 50                           	push	eax
c010203a: 50                           	push	eax
c010203b: 8d 85 f0 fe ff ff            	lea	eax, [ebp - 272]
c0102041: 6a 00                        	push	0
c0102043: 6a 00                        	push	0
c0102045: 53                           	push	ebx
c0102046: 68 08 01 00 00               	push	264
c010204b: 50                           	push	eax
c010204c: 56                           	push	esi
c010204d: e8 cd 38 00 00               	call	0xc010591f <uio_construct>
c0102052: 89 34 24                     	mov	dword ptr [esp], esi
c0102055: ff b5 d8 fd ff ff            	push	dword ptr [ebp - 552]
c010205b: e8 4e 3f 00 00               	call	0xc0105fae <vfs_readdir>
c0102060: 83 c4 20                     	add	esp, 32
c0102063: 85 c0                        	test	eax, eax
c0102065: 74 16                        	je	0xc010207d <basic_shell+0x287>
c0102067: 83 ec 0c                     	sub	esp, 12
c010206a: 50                           	push	eax
c010206b: e8 98 f2 ff ff               	call	0xc0101308 <strerror>
c0102070: 5a                           	pop	edx
c0102071: 59                           	pop	ecx
c0102072: 50                           	push	eax
c0102073: 68 d1 a5 10 c0               	push	3222316497
c0102078: e9 20 ff ff ff               	jmp	0xc0101f9d <basic_shell+0x1a7>
c010207d: 83 bd e0 fd ff ff 00         	cmp	dword ptr [ebp - 544], 0
c0102084: 0f 85 1b ff ff ff            	jne	0xc0101fa5 <basic_shell+0x1af>
c010208a: 8a 55 f5                     	mov	dl, byte ptr [ebp - 11]
c010208d: 8d 85 f4 fe ff ff            	lea	eax, [ebp - 268]
c0102093: 80 fa 01                     	cmp	dl, 1
c0102096: 75 0a                        	jne	0xc01020a2 <basic_shell+0x2ac>
c0102098: 56                           	push	esi
c0102099: 56                           	push	esi
c010209a: 50                           	push	eax
c010209b: 68 0c a6 10 c0               	push	3222316556
c01020a0: eb 17                        	jmp	0xc01020b9 <basic_shell+0x2c3>
c01020a2: 80 fa 02                     	cmp	dl, 2
c01020a5: 75 0a                        	jne	0xc01020b1 <basic_shell+0x2bb>
c01020a7: 51                           	push	ecx
c01020a8: 51                           	push	ecx
c01020a9: 50                           	push	eax
c01020aa: 68 16 a6 10 c0               	push	3222316566
c01020af: eb 08                        	jmp	0xc01020b9 <basic_shell+0x2c3>
c01020b1: 52                           	push	edx
c01020b2: 52                           	push	edx
c01020b3: 50                           	push	eax
c01020b4: 68 20 a6 10 c0               	push	3222316576
c01020b9: e8 c5 2f 00 00               	call	0xc0105083 <kprintf>
c01020be: 81 c3 08 01 00 00            	add	ebx, 264
c01020c4: 83 c4 10                     	add	esp, 16
c01020c7: e9 67 ff ff ff               	jmp	0xc0102033 <basic_shell+0x23d>
c01020cc: 83 ec 0c                     	sub	esp, 12
c01020cf: 68 2a a6 10 c0               	push	3222316586
c01020d4: e9 e4 fe ff ff               	jmp	0xc0101fbd <basic_shell+0x1c7>
c01020d9: 50                           	push	eax
c01020da: 50                           	push	eax
c01020db: 68 42 a6 10 c0               	push	3222316610
c01020e0: 53                           	push	ebx
c01020e1: e8 e8 f1 ff ff               	call	0xc01012ce <strcmp>
c01020e6: 83 c4 10                     	add	esp, 16
c01020e9: 85 c0                        	test	eax, eax
c01020eb: 75 25                        	jne	0xc0102112 <basic_shell+0x31c>
c01020ed: e8 91 1f 00 00               	call	0xc0104083 <thread_fork>
c01020f2: 89 c3                        	mov	ebx, eax
c01020f4: 50                           	push	eax
c01020f5: 50                           	push	eax
c01020f6: 53                           	push	ebx
c01020f7: 68 18 ac 10 c0               	push	3222318104
c01020fc: e8 82 2f 00 00               	call	0xc0105083 <kprintf>
c0102101: c7 04 24 01 00 00 00         	mov	dword ptr [esp], 1
c0102108: e8 20 24 00 00               	call	0xc010452d <thread_sleep>
c010210d: 83 c4 10                     	add	esp, 16
c0102110: eb e2                        	jmp	0xc01020f4 <basic_shell+0x2fe>
c0102112: 50                           	push	eax
c0102113: 50                           	push	eax
c0102114: 68 47 a6 10 c0               	push	3222316615
c0102119: 53                           	push	ebx
c010211a: e8 af f1 ff ff               	call	0xc01012ce <strcmp>
c010211f: 83 c4 10                     	add	esp, 16
c0102122: 85 c0                        	test	eax, eax
c0102124: 75 1c                        	jne	0xc0102142 <basic_shell+0x34c>
c0102126: e8 58 1f 00 00               	call	0xc0104083 <thread_fork>
c010212b: 85 c0                        	test	eax, eax
c010212d: 0f 85 db fc ff ff            	jne	0xc0101e0e <basic_shell+0x18>
c0102133: 83 ec 0c                     	sub	esp, 12
c0102136: 6a 01                        	push	1
c0102138: e8 f0 23 00 00               	call	0xc010452d <thread_sleep>
c010213d: 83 c4 10                     	add	esp, 16
c0102140: eb f1                        	jmp	0xc0102133 <basic_shell+0x33d>
c0102142: 50                           	push	eax
c0102143: 50                           	push	eax
c0102144: 68 53 a6 10 c0               	push	3222316627
c0102149: 53                           	push	ebx
c010214a: e8 7f f1 ff ff               	call	0xc01012ce <strcmp>
c010214f: 83 c4 10                     	add	esp, 16
c0102152: 85 c0                        	test	eax, eax
c0102154: 75 08                        	jne	0xc010215e <basic_shell+0x368>
c0102156: 50                           	push	eax
c0102157: 50                           	push	eax
c0102158: 6a 01                        	push	1
c010215a: 6a 20                        	push	32
c010215c: eb 1d                        	jmp	0xc010217b <basic_shell+0x385>
c010215e: 56                           	push	esi
c010215f: 56                           	push	esi
c0102160: 68 57 a6 10 c0               	push	3222316631
c0102165: 53                           	push	ebx
c0102166: e8 63 f1 ff ff               	call	0xc01012ce <strcmp>
c010216b: 83 c4 10                     	add	esp, 16
c010216e: 85 c0                        	test	eax, eax
c0102170: 75 13                        	jne	0xc0102185 <basic_shell+0x38f>
c0102172: 53                           	push	ebx
c0102173: 53                           	push	ebx
c0102174: 6a 01                        	push	1
c0102176: 68 00 01 00 00               	push	256
c010217b: e8 35 0c 00 00               	call	0xc0102db5 <virt_allocate_backed_pages>
c0102180: e9 86 fc ff ff               	jmp	0xc0101e0b <basic_shell+0x15>
c0102185: 51                           	push	ecx
c0102186: 51                           	push	ecx
c0102187: 68 5d a6 10 c0               	push	3222316637
c010218c: 53                           	push	ebx
c010218d: e8 3c f1 ff ff               	call	0xc01012ce <strcmp>
c0102192: 83 c4 10                     	add	esp, 16
c0102195: 85 c0                        	test	eax, eax
c0102197: 75 18                        	jne	0xc01021b1 <basic_shell+0x3bb>
c0102199: e8 5e 17 00 00               	call	0xc01038fc <process_create>
c010219e: 52                           	push	edx
c010219f: 6a 00                        	push	0
c01021a1: 68 53 46 10 c0               	push	3222292051
c01021a6: 50                           	push	eax
c01021a7: e8 ac 17 00 00               	call	0xc0103958 <process_create_thread>
c01021ac: 83 c4 10                     	add	esp, 16
c01021af: eb fe                        	jmp	0xc01021af <basic_shell+0x3b9>
c01021b1: 50                           	push	eax
c01021b2: 50                           	push	eax
c01021b3: 68 62 a6 10 c0               	push	3222316642
c01021b8: 53                           	push	ebx
c01021b9: e8 10 f1 ff ff               	call	0xc01012ce <strcmp>
c01021be: 83 c4 10                     	add	esp, 16
c01021c1: 85 c0                        	test	eax, eax
c01021c3: 75 0a                        	jne	0xc01021cf <basic_shell+0x3d9>
c01021c5: e8 50 4d 00 00               	call	0xc0106f1a <arch_reboot>
c01021ca: e9 3f fc ff ff               	jmp	0xc0101e0e <basic_shell+0x18>
c01021cf: 56                           	push	esi
c01021d0: 56                           	push	esi
c01021d1: 68 6a a6 10 c0               	push	3222316650
c01021d6: 53                           	push	ebx
c01021d7: e8 f2 f0 ff ff               	call	0xc01012ce <strcmp>
c01021dc: 83 c4 10                     	add	esp, 16
c01021df: 85 c0                        	test	eax, eax
c01021e1: 75 2c                        	jne	0xc010220f <basic_shell+0x419>
c01021e3: 8b 0d c4 fa 10 c0            	mov	ecx, dword ptr [-1072629052]
c01021e9: a1 c8 fa 10 c0               	mov	eax, dword ptr [3222338248]
c01021ee: 8d 14 8d 00 00 00 00         	lea	edx, [4*ecx]
c01021f5: 52                           	push	edx
c01021f6: 8d 14 85 00 00 00 00         	lea	edx, [4*eax]
c01021fd: 6b c0 64                     	imul	eax, eax, 100
c0102200: 52                           	push	edx
c0102201: 99                           	cdq
c0102202: f7 f9                        	idiv	ecx
c0102204: 50                           	push	eax
c0102205: 68 6e a6 10 c0               	push	3222316654
c010220a: e9 f7 fb ff ff               	jmp	0xc0101e06 <basic_shell+0x10>
c010220f: 51                           	push	ecx
c0102210: 51                           	push	ecx
c0102211: 68 8f a6 10 c0               	push	3222316687
c0102216: 53                           	push	ebx
c0102217: e8 b2 f0 ff ff               	call	0xc01012ce <strcmp>
c010221c: 83 c4 10                     	add	esp, 16
c010221f: 85 c0                        	test	eax, eax
c0102221: 75 13                        	jne	0xc0102236 <basic_shell+0x440>
c0102223: 52                           	push	edx
c0102224: 52                           	push	edx
c0102225: 6a 00                        	push	0
c0102227: 68 93 a6 10 c0               	push	3222316691
c010222c: e8 56 15 00 00               	call	0xc0103787 <load_driver>
c0102231: e9 d5 fb ff ff               	jmp	0xc0101e0b <basic_shell+0x15>
c0102236: 50                           	push	eax
c0102237: 50                           	push	eax
c0102238: 53                           	push	ebx
c0102239: 68 a5 a6 10 c0               	push	3222316709
c010223e: e9 c3 fb ff ff               	jmp	0xc0101e06 <basic_shell+0x10>

c0102243 <kernel_main>:
c0102243: 55                           	push	ebp
c0102244: 89 e5                        	mov	ebp, esp
c0102246: 83 ec 14                     	sub	esp, 20
c0102249: 68 c0 a6 10 c0               	push	3222316736
c010224e: e8 30 2e 00 00               	call	0xc0105083 <kprintf>
c0102253: e8 0c 04 00 00               	call	0xc0102664 <phys_init>
c0102258: e8 d6 0a 00 00               	call	0xc0102d33 <virt_init>
c010225d: e8 d0 00 00 00               	call	0xc0102332 <heap_init>
c0102262: e8 3e 2d 00 00               	call	0xc0104fa5 <cpu_init>
c0102267: e8 e7 00 00 00               	call	0xc0102353 <heap_reinit>
c010226c: e8 f9 1c 00 00               	call	0xc0103f6a <thread_init>
c0102271: e8 19 17 00 00               	call	0xc010398f <process_init>
c0102276: e8 03 38 00 00               	call	0xc0105a7e <vfs_init>
c010227b: e8 49 f7 ff ff               	call	0xc01019c9 <interface_init>
c0102280: e8 f0 f9 ff ff               	call	0xc0101c75 <video_init>
c0102285: e8 01 4c 00 00               	call	0xc0106e8b <arch_initialise_devices_no_fs>
c010228a: 58                           	pop	eax
c010228b: 5a                           	pop	edx
c010228c: 68 06 6d 10 c0               	push	3222301958
c0102291: 68 83 a7 10 c0               	push	3222316931
c0102296: e8 2d 3b 00 00               	call	0xc0105dc8 <vfs_mount_filesystem>
c010229b: 59                           	pop	ecx
c010229c: 58                           	pop	eax
c010229d: 68 ce a6 10 c0               	push	3222316750
c01022a2: 68 15 af 10 c0               	push	3222318869
c01022a7: e8 6c 41 00 00               	call	0xc0106418 <vfs_add_virtual_mount_point>
c01022ac: e8 68 05 00 00               	call	0xc0102819 <swapfile_init>
c01022b1: e8 e7 0f 00 00               	call	0xc010329d <syscall_init>
c01022b6: e8 d5 4b 00 00               	call	0xc0106e90 <arch_initialise_devices_with_fs>
c01022bb: e8 3c 16 00 00               	call	0xc01038fc <process_create>
c01022c0: 83 c4 0c                     	add	esp, 12
c01022c3: 6a 00                        	push	0
c01022c5: 68 f6 1d 10 c0               	push	3222281718
c01022ca: 50                           	push	eax
c01022cb: e8 88 16 00 00               	call	0xc0103958 <process_create_thread>
c01022d0: 83 c4 10                     	add	esp, 16
c01022d3: 83 ec 0c                     	sub	esp, 12
c01022d6: 68 00 0d 11 c0               	push	3222342912
c01022db: e8 9e 18 00 00               	call	0xc0103b7e <spinlock_acquire>
c01022e0: c7 04 24 05 00 00 00         	mov	dword ptr [esp], 5
c01022e7: e8 d9 20 00 00               	call	0xc01043c5 <thread_block>
c01022ec: c7 04 24 00 0d 11 c0         	mov	dword ptr [esp], 3222342912
c01022f3: e8 8b 18 00 00               	call	0xc0103b83 <spinlock_release>
c01022f8: eb d6                        	jmp	0xc01022d0 <kernel_main+0x8d>

c01022fa <make_block_root>:
c01022fa: 8b 15 a4 fa 10 c0            	mov	edx, dword ptr [-1072629084]
c0102300: 31 c9                        	xor	ecx, ecx
c0102302: 89 48 08                     	mov	dword ptr [eax + 8], ecx
c0102305: 89 50 04                     	mov	dword ptr [eax + 4], edx
c0102308: 85 d2                        	test	edx, edx
c010230a: 74 03                        	je	0xc010230f <make_block_root+0x15>
c010230c: 89 42 08                     	mov	dword ptr [edx + 8], eax
c010230f: a3 a4 fa 10 c0               	mov	dword ptr [3222338212], eax
c0102314: c3                           	ret

c0102315 <remove_block_from_list>:
c0102315: 8b 50 04                     	mov	edx, dword ptr [eax + 4]
c0102318: 8b 40 08                     	mov	eax, dword ptr [eax + 8]
c010231b: 85 c0                        	test	eax, eax
c010231d: 74 05                        	je	0xc0102324 <remove_block_from_list+0xf>
c010231f: 89 50 04                     	mov	dword ptr [eax + 4], edx
c0102322: eb 06                        	jmp	0xc010232a <remove_block_from_list+0x15>
c0102324: 89 15 a4 fa 10 c0            	mov	dword ptr [-1072629084], edx
c010232a: 85 d2                        	test	edx, edx
c010232c: 74 03                        	je	0xc0102331 <remove_block_from_list+0x1c>
c010232e: 89 42 08                     	mov	dword ptr [edx + 8], eax
c0102331: c3                           	ret

c0102332 <heap_init>:
c0102332: 55                           	push	ebp
c0102333: 89 e5                        	mov	ebp, esp
c0102335: 83 ec 10                     	sub	esp, 16
c0102338: 68 da a6 10 c0               	push	3222316762
c010233d: 68 40 da 10 c0               	push	3222329920
c0102342: e8 08 18 00 00               	call	0xc0103b4f <spinlock_init>
c0102347: c6 05 a0 fa 10 c0 00         	mov	byte ptr [-1072629088], 0
c010234e: 83 c4 10                     	add	esp, 16
c0102351: c9                           	leave
c0102352: c3                           	ret

c0102353 <heap_reinit>:
c0102353: 55                           	push	ebp
c0102354: 89 e5                        	mov	ebp, esp
c0102356: 57                           	push	edi
c0102357: 56                           	push	esi
c0102358: 53                           	push	ebx
c0102359: 83 ec 18                     	sub	esp, 24
c010235c: 68 40 da 10 c0               	push	3222329920
c0102361: e8 18 18 00 00               	call	0xc0103b7e <spinlock_acquire>
c0102366: c7 04 24 00 00 00 10         	mov	dword ptr [esp], 268435456
c010236d: e8 eb 09 00 00               	call	0xc0102d5d <virt_allocate_unbacked_krnl_region>
c0102372: 83 c4 10                     	add	esp, 16
c0102375: 89 c3                        	mov	ebx, eax
c0102377: 8d b8 00 00 00 10            	lea	edi, [eax + 268435456]
c010237d: 89 c6                        	mov	esi, eax
c010237f: e8 92 06 00 00               	call	0xc0102a16 <vas_get_current_vas>
c0102384: 51                           	push	ecx
c0102385: 6a 60                        	push	96
c0102387: 56                           	push	esi
c0102388: 81 c6 00 10 00 00            	add	esi, 4096
c010238e: 50                           	push	eax
c010238f: e8 ac 07 00 00               	call	0xc0102b40 <vas_reflag>
c0102394: 83 c4 10                     	add	esp, 16
c0102397: 39 fe                        	cmp	esi, edi
c0102399: 75 e4                        	jne	0xc010237f <heap_reinit+0x2c>
c010239b: 89 1d a4 fa 10 c0            	mov	dword ptr [-1072629084], ebx
c01023a1: 83 ec 0c                     	sub	esp, 12
c01023a4: c7 03 11 00 00 00            	mov	dword ptr [ebx], 17
c01023aa: a1 a4 fa 10 c0               	mov	eax, dword ptr [3222338212]
c01023af: c6 05 a0 fa 10 c0 01         	mov	byte ptr [-1072629088], 1
c01023b6: 8b 10                        	mov	edx, dword ptr [eax]
c01023b8: c7 40 10 e0 ff ff 0f         	mov	dword ptr [eax + 16], 268435424
c01023bf: 83 c0 10                     	add	eax, 16
c01023c2: c7 80 e0 ff ff 0f 11 00 00 00	mov	dword ptr [eax + 268435424], 17
c01023cc: 89 50 fc                     	mov	dword ptr [eax - 4], edx
c01023cf: 31 d2                        	xor	edx, edx
c01023d1: c7 80 ec ff ff 0f 11 00 00 00	mov	dword ptr [eax + 268435436], 17
c01023db: 89 50 04                     	mov	dword ptr [eax + 4], edx
c01023de: 89 50 08                     	mov	dword ptr [eax + 8], edx
c01023e1: c7 80 dc ff ff 0f e0 ff ff 0f	mov	dword ptr [eax + 268435420], 268435424
c01023eb: a3 a4 fa 10 c0               	mov	dword ptr [3222338212], eax
c01023f0: 68 40 da 10 c0               	push	3222329920
c01023f5: e8 89 17 00 00               	call	0xc0103b83 <spinlock_release>
c01023fa: 83 c4 10                     	add	esp, 16
c01023fd: 8d 65 f4                     	lea	esp, [ebp - 12]
c0102400: 5b                           	pop	ebx
c0102401: 5e                           	pop	esi
c0102402: 5f                           	pop	edi
c0102403: 5d                           	pop	ebp
c0102404: c3                           	ret

c0102405 <malloc>:
c0102405: 55                           	push	ebp
c0102406: 89 e5                        	mov	ebp, esp
c0102408: 57                           	push	edi
c0102409: 56                           	push	esi
c010240a: 53                           	push	ebx
c010240b: 83 ec 28                     	sub	esp, 40
c010240e: 68 40 da 10 c0               	push	3222329920
c0102413: e8 66 17 00 00               	call	0xc0103b7e <spinlock_acquire>
c0102418: 8b 45 08                     	mov	eax, dword ptr [ebp + 8]
c010241b: 83 c4 10                     	add	esp, 16
c010241e: 8b 1d a4 fa 10 c0            	mov	ebx, dword ptr [-1072629084]
c0102424: 8d 50 0b                     	lea	edx, [eax + 11]
c0102427: 83 e2 fc                     	and	edx, -4
c010242a: 80 3d a0 fa 10 c0 00         	cmp	byte ptr [-1072629088], 0
c0102431: 75 36                        	jne	0xc0102469 <malloc+0x64>
c0102433: 8b 1d 88 da 10 c0            	mov	ebx, dword ptr [-1072637304]
c0102439: 83 ec 0c                     	sub	esp, 12
c010243c: 01 da                        	add	edx, ebx
c010243e: 89 15 88 da 10 c0            	mov	dword ptr [-1072637304], edx
c0102444: 68 40 da 10 c0               	push	3222329920
c0102449: e8 35 17 00 00               	call	0xc0103b83 <spinlock_release>
c010244e: 8d 83 a0 da 10 c0            	lea	eax, [ebx - 1072637280]
c0102454: e9 c0 00 00 00               	jmp	0xc0102519 <malloc+0x114>
c0102459: 8b 3b                        	mov	edi, dword ptr [ebx]
c010245b: 8b 4b 04                     	mov	ecx, dword ptr [ebx + 4]
c010245e: 89 f8                        	mov	eax, edi
c0102460: 83 e0 fe                     	and	eax, -2
c0102463: 39 d0                        	cmp	eax, edx
c0102465: 73 08                        	jae	0xc010246f <malloc+0x6a>
c0102467: 89 cb                        	mov	ebx, ecx
c0102469: 85 db                        	test	ebx, ebx
c010246b: 75 ec                        	jne	0xc0102459 <malloc+0x54>
c010246d: eb 0c                        	jmp	0xc010247b <malloc+0x76>
c010246f: 8b 73 08                     	mov	esi, dword ptr [ebx + 8]
c0102472: 89 75 e4                     	mov	dword ptr [ebp - 28], esi
c0102475: 39 c2                        	cmp	edx, eax
c0102477: 75 0c                        	jne	0xc0102485 <malloc+0x80>
c0102479: eb 11                        	jmp	0xc010248c <malloc+0x87>
c010247b: 83 ec 0c                     	sub	esp, 12
c010247e: 68 e4 a6 10 c0               	push	3222316772
c0102483: eb 37                        	jmp	0xc01024bc <malloc+0xb7>
c0102485: 8d 72 10                     	lea	esi, [edx + 16]
c0102488: 39 f0                        	cmp	eax, esi
c010248a: 73 3d                        	jae	0xc01024c9 <malloc+0xc4>
c010248c: 83 c8 01                     	or	eax, 1
c010248f: 83 e7 fc                     	and	edi, -4
c0102492: 83 7d e4 00                  	cmp	dword ptr [ebp - 28], 0
c0102496: 89 03                        	mov	dword ptr [ebx], eax
c0102498: 89 44 3b fc                  	mov	dword ptr [ebx + edi - 4], eax
c010249c: 74 0c                        	je	0xc01024aa <malloc+0xa5>
c010249e: 8b 45 e4                     	mov	eax, dword ptr [ebp - 28]
c01024a1: 89 48 04                     	mov	dword ptr [eax + 4], ecx
c01024a4: 85 c9                        	test	ecx, ecx
c01024a6: 74 5b                        	je	0xc0102503 <malloc+0xfe>
c01024a8: eb 17                        	jmp	0xc01024c1 <malloc+0xbc>
c01024aa: 89 0d a4 fa 10 c0            	mov	dword ptr [-1072629084], ecx
c01024b0: 85 c9                        	test	ecx, ecx
c01024b2: 75 0d                        	jne	0xc01024c1 <malloc+0xbc>
c01024b4: 83 ec 0c                     	sub	esp, 12
c01024b7: 68 0b a7 10 c0               	push	3222316811
c01024bc: e8 8a 2d 00 00               	call	0xc010524b <panic>
c01024c1: 8b 45 e4                     	mov	eax, dword ptr [ebp - 28]
c01024c4: 89 41 08                     	mov	dword ptr [ecx + 8], eax
c01024c7: eb 3a                        	jmp	0xc0102503 <malloc+0xfe>
c01024c9: 29 d0                        	sub	eax, edx
c01024cb: 89 d6                        	mov	esi, edx
c01024cd: 83 ce 01                     	or	esi, 1
c01024d0: 89 c7                        	mov	edi, eax
c01024d2: 89 33                        	mov	dword ptr [ebx], esi
c01024d4: 83 e7 fc                     	and	edi, -4
c01024d7: 89 74 13 fc                  	mov	dword ptr [ebx + edx - 4], esi
c01024db: 8d 34 13                     	lea	esi, [ebx + edx]
c01024de: 89 06                        	mov	dword ptr [esi], eax
c01024e0: 89 44 3e fc                  	mov	dword ptr [esi + edi - 4], eax
c01024e4: 8b 45 e4                     	mov	eax, dword ptr [ebp - 28]
c01024e7: 89 4e 04                     	mov	dword ptr [esi + 4], ecx
c01024ea: 89 46 08                     	mov	dword ptr [esi + 8], eax
c01024ed: 85 c0                        	test	eax, eax
c01024ef: 74 05                        	je	0xc01024f6 <malloc+0xf1>
c01024f1: 89 70 04                     	mov	dword ptr [eax + 4], esi
c01024f4: eb 06                        	jmp	0xc01024fc <malloc+0xf7>
c01024f6: 89 35 a4 fa 10 c0            	mov	dword ptr [-1072629084], esi
c01024fc: 85 c9                        	test	ecx, ecx
c01024fe: 74 03                        	je	0xc0102503 <malloc+0xfe>
c0102500: 89 71 08                     	mov	dword ptr [ecx + 8], esi
c0102503: 83 ec 0c                     	sub	esp, 12
c0102506: 01 15 20 da 10 c0            	add	dword ptr [-1072637408], edx
c010250c: 68 40 da 10 c0               	push	3222329920
c0102511: e8 6d 16 00 00               	call	0xc0103b83 <spinlock_release>
c0102516: 8d 43 04                     	lea	eax, [ebx + 4]
c0102519: 83 c4 10                     	add	esp, 16
c010251c: 8d 65 f4                     	lea	esp, [ebp - 12]
c010251f: 5b                           	pop	ebx
c0102520: 5e                           	pop	esi
c0102521: 5f                           	pop	edi
c0102522: 5d                           	pop	ebp
c0102523: c3                           	ret

c0102524 <free>:
c0102524: 55                           	push	ebp
c0102525: 89 e5                        	mov	ebp, esp
c0102527: 57                           	push	edi
c0102528: 56                           	push	esi
c0102529: 53                           	push	ebx
c010252a: 83 ec 1c                     	sub	esp, 28
c010252d: 8b 75 08                     	mov	esi, dword ptr [ebp + 8]
c0102530: 81 fe a0 da 10 c0            	cmp	esi, 3222330016
c0102536: 72 12                        	jb	0xc010254a <free+0x26>
c0102538: a1 88 da 10 c0               	mov	eax, dword ptr [3222329992]
c010253d: 05 a0 da 10 c0               	add	eax, 3222330016
c0102542: 39 c6                        	cmp	esi, eax
c0102544: 0f 82 b7 00 00 00            	jb	0xc0102601 <free+0xdd>
c010254a: 8b 46 fc                     	mov	eax, dword ptr [esi - 4]
c010254d: 8b 56 f8                     	mov	edx, dword ptr [esi - 8]
c0102550: 8d 7e fc                     	lea	edi, [esi - 4]
c0102553: 89 f9                        	mov	ecx, edi
c0102555: 83 e2 fc                     	and	edx, -4
c0102558: 89 c3                        	mov	ebx, eax
c010255a: 83 e0 fc                     	and	eax, -4
c010255d: 29 d1                        	sub	ecx, edx
c010255f: 01 f8                        	add	eax, edi
c0102561: 83 e3 fe                     	and	ebx, -2
c0102564: 89 45 dc                     	mov	dword ptr [ebp - 36], eax
c0102567: 8b 01                        	mov	eax, dword ptr [ecx]
c0102569: 89 45 e0                     	mov	dword ptr [ebp - 32], eax
c010256c: 8b 45 dc                     	mov	eax, dword ptr [ebp - 36]
c010256f: 8b 55 e0                     	mov	edx, dword ptr [ebp - 32]
c0102572: 8b 00                        	mov	eax, dword ptr [eax]
c0102574: 21 c2                        	and	edx, eax
c0102576: 89 45 e4                     	mov	dword ptr [ebp - 28], eax
c0102579: 80 e2 01                     	and	dl, 1
c010257c: 74 05                        	je	0xc0102583 <free+0x5f>
c010257e: 89 5e fc                     	mov	dword ptr [esi - 4], ebx
c0102581: eb 2c                        	jmp	0xc01025af <free+0x8b>
c0102583: 8b 55 e4                     	mov	edx, dword ptr [ebp - 28]
c0102586: 8b 45 e0                     	mov	eax, dword ptr [ebp - 32]
c0102589: f7 d2                        	not	edx
c010258b: 21 c2                        	and	edx, eax
c010258d: 80 e2 01                     	and	dl, 1
c0102590: 74 21                        	je	0xc01025b3 <free+0x8f>
c0102592: 8b 45 e4                     	mov	eax, dword ptr [ebp - 28]
c0102595: 83 e0 fe                     	and	eax, -2
c0102598: 8d 0c 18                     	lea	ecx, [eax + ebx]
c010259b: 8b 45 dc                     	mov	eax, dword ptr [ebp - 36]
c010259e: e8 72 fd ff ff               	call	0xc0102315 <remove_block_from_list>
c01025a3: 89 c8                        	mov	eax, ecx
c01025a5: 89 4e fc                     	mov	dword ptr [esi - 4], ecx
c01025a8: 83 e0 fc                     	and	eax, -4
c01025ab: 89 4c 07 fc                  	mov	dword ptr [edi + eax - 4], ecx
c01025af: 89 f8                        	mov	eax, edi
c01025b1: eb 43                        	jmp	0xc01025f6 <free+0xd2>
c01025b3: 8b 75 e0                     	mov	esi, dword ptr [ebp - 32]
c01025b6: 8b 45 e4                     	mov	eax, dword ptr [ebp - 28]
c01025b9: 8b 55 e0                     	mov	edx, dword ptr [ebp - 32]
c01025bc: f7 d6                        	not	esi
c01025be: 21 c6                        	and	esi, eax
c01025c0: 83 e2 fe                     	and	edx, -2
c01025c3: 83 e6 01                     	and	esi, 1
c01025c6: 74 07                        	je	0xc01025cf <free+0xab>
c01025c8: 8d 34 1a                     	lea	esi, [edx + ebx]
c01025cb: 89 c8                        	mov	eax, ecx
c01025cd: eb 15                        	jmp	0xc01025e4 <free+0xc0>
c01025cf: 8b 45 e4                     	mov	eax, dword ptr [ebp - 28]
c01025d2: 83 e0 fe                     	and	eax, -2
c01025d5: 8d 34 18                     	lea	esi, [eax + ebx]
c01025d8: 89 c8                        	mov	eax, ecx
c01025da: 01 d6                        	add	esi, edx
c01025dc: e8 34 fd ff ff               	call	0xc0102315 <remove_block_from_list>
c01025e1: 8b 45 dc                     	mov	eax, dword ptr [ebp - 36]
c01025e4: e8 2c fd ff ff               	call	0xc0102315 <remove_block_from_list>
c01025e9: 89 f0                        	mov	eax, esi
c01025eb: 89 31                        	mov	dword ptr [ecx], esi
c01025ed: 83 e0 fc                     	and	eax, -4
c01025f0: 89 74 01 fc                  	mov	dword ptr [ecx + eax - 4], esi
c01025f4: 89 c8                        	mov	eax, ecx
c01025f6: e8 ff fc ff ff               	call	0xc01022fa <make_block_root>
c01025fb: 29 1d 20 da 10 c0            	sub	dword ptr [-1072637408], ebx
c0102601: 83 c4 1c                     	add	esp, 28
c0102604: 5b                           	pop	ebx
c0102605: 5e                           	pop	esi
c0102606: 5f                           	pop	edi
c0102607: 5d                           	pop	ebp
c0102608: c3                           	ret

c0102609 <realloc>:
c0102609: 55                           	push	ebp
c010260a: 89 e5                        	mov	ebp, esp
c010260c: 57                           	push	edi
c010260d: 56                           	push	esi
c010260e: 53                           	push	ebx
c010260f: 83 ec 18                     	sub	esp, 24
c0102612: 8b 7d 0c                     	mov	edi, dword ptr [ebp + 12]
c0102615: 8b 75 08                     	mov	esi, dword ptr [ebp + 8]
c0102618: 57                           	push	edi
c0102619: e8 e7 fd ff ff               	call	0xc0102405 <malloc>
c010261e: 83 c4 0c                     	add	esp, 12
c0102621: 57                           	push	edi
c0102622: 89 c3                        	mov	ebx, eax
c0102624: 56                           	push	esi
c0102625: 50                           	push	eax
c0102626: e8 09 ec ff ff               	call	0xc0101234 <memcpy>
c010262b: 89 34 24                     	mov	dword ptr [esp], esi
c010262e: e8 f1 fe ff ff               	call	0xc0102524 <free>
c0102633: 8d 65 f4                     	lea	esp, [ebp - 12]
c0102636: 89 d8                        	mov	eax, ebx
c0102638: 5b                           	pop	ebx
c0102639: 5e                           	pop	esi
c010263a: 5f                           	pop	edi
c010263b: 5d                           	pop	ebp
c010263c: c3                           	ret

c010263d <phys_set_new_checksum>:
c010263d: 31 d2                        	xor	edx, edx
c010263f: b8 ef be ad de               	mov	eax, 3735928559
c0102644: 0f b6 8a 40 fb 10 c0         	movzx	ecx, byte ptr [edx - 1072628928]
c010264b: 8d 04 40                     	lea	eax, [eax + 2*eax]
c010264e: 42                           	inc	edx
c010264f: 31 c8                        	xor	eax, ecx
c0102651: 05 44 cc 03 00               	add	eax, 248900
c0102656: 81 fa 00 10 00 00            	cmp	edx, 4096
c010265c: 75 e6                        	jne	0xc0102644 <phys_set_new_checksum+0x7>
c010265e: a3 c0 fa 10 c0               	mov	dword ptr [3222338240], eax
c0102663: c3                           	ret

c0102664 <phys_init>:
c0102664: 55                           	push	ebp
c0102665: 89 e5                        	mov	ebp, esp
c0102667: 57                           	push	edi
c0102668: 56                           	push	esi
c0102669: 31 f6                        	xor	esi, esi
c010266b: 53                           	push	ebx
c010266c: 83 ec 24                     	sub	esp, 36
c010266f: 68 29 a7 10 c0               	push	3222316841
c0102674: 68 e0 fa 10 c0               	push	3222338272
c0102679: e8 d1 14 00 00               	call	0xc0103b4f <spinlock_init>
c010267e: c7 04 24 e0 fa 10 c0         	mov	dword ptr [esp], 3222338272
c0102685: e8 f4 14 00 00               	call	0xc0103b7e <spinlock_acquire>
c010268a: 83 c4 0c                     	add	esp, 12
c010268d: 68 00 10 00 00               	push	4096
c0102692: 6a 00                        	push	0
c0102694: 68 40 fb 10 c0               	push	3222338368
c0102699: e8 dc eb ff ff               	call	0xc010127a <memset>
c010269e: 83 c4 10                     	add	esp, 16
c01026a1: 83 ec 0c                     	sub	esp, 12
c01026a4: 56                           	push	esi
c01026a5: e8 08 60 00 00               	call	0xc01086b2 <arch_get_memory>
c01026aa: 83 c4 10                     	add	esp, 16
c01026ad: 85 c0                        	test	eax, eax
c01026af: 74 55                        	je	0xc0102706 <phys_init+0xa2>
c01026b1: 8b 18                        	mov	ebx, dword ptr [eax]
c01026b3: 8d 93 ff 0f 00 00            	lea	edx, [ebx + 4095]
c01026b9: 03 58 04                     	add	ebx, dword ptr [eax + 4]
c01026bc: c1 ea 0c                     	shr	edx, 12
c01026bf: c1 eb 0c                     	shr	ebx, 12
c01026c2: 39 da                        	cmp	edx, ebx
c01026c4: 73 3d                        	jae	0xc0102703 <phys_init+0x9f>
c01026c6: 81 fa ff 7f 00 00            	cmp	edx, 32767
c01026cc: 77 35                        	ja	0xc0102703 <phys_init+0x9f>
c01026ce: 50                           	push	eax
c01026cf: 50                           	push	eax
c01026d0: 89 d0                        	mov	eax, edx
c01026d2: c1 e0 0c                     	shl	eax, 12
c01026d5: 89 55 e4                     	mov	dword ptr [ebp - 28], edx
c01026d8: 50                           	push	eax
c01026d9: 68 3e a7 10 c0               	push	3222316862
c01026de: e8 a0 29 00 00               	call	0xc0105083 <kprintf>
c01026e3: 8b 55 e4                     	mov	edx, dword ptr [ebp - 28]
c01026e6: 59                           	pop	ecx
c01026e7: 58                           	pop	eax
c01026e8: 52                           	push	edx
c01026e9: 8d 7a 01                     	lea	edi, [edx + 1]
c01026ec: 68 40 fb 10 c0               	push	3222338368
c01026f1: e8 54 28 00 00               	call	0xc0104f4a <bitarray_set>
c01026f6: ff 05 c4 fa 10 c0            	inc	dword ptr [-1072629052]
c01026fc: 83 c4 10                     	add	esp, 16
c01026ff: 89 fa                        	mov	edx, edi
c0102701: eb bf                        	jmp	0xc01026c2 <phys_init+0x5e>
c0102703: 46                           	inc	esi
c0102704: eb 9b                        	jmp	0xc01026a1 <phys_init+0x3d>
c0102706: e8 32 ff ff ff               	call	0xc010263d <phys_set_new_checksum>
c010270b: 83 ec 0c                     	sub	esp, 12
c010270e: 68 e0 fa 10 c0               	push	3222338272
c0102713: e8 6b 14 00 00               	call	0xc0103b83 <spinlock_release>
c0102718: 83 c4 10                     	add	esp, 16
c010271b: 8d 65 f4                     	lea	esp, [ebp - 12]
c010271e: 5b                           	pop	ebx
c010271f: 5e                           	pop	esi
c0102720: 5f                           	pop	edi
c0102721: 5d                           	pop	ebp
c0102722: c3                           	ret

c0102723 <phys_allocate_page>:
c0102723: 55                           	push	ebp
c0102724: 89 e5                        	mov	ebp, esp
c0102726: 53                           	push	ebx
c0102727: bb 00 80 00 00               	mov	ebx, 32768
c010272c: 83 ec 20                     	sub	esp, 32
c010272f: 68 e0 fa 10 c0               	push	3222338272
c0102734: e8 45 14 00 00               	call	0xc0103b7e <spinlock_acquire>
c0102739: ff 05 c8 fa 10 c0            	inc	dword ptr [-1072629048]
c010273f: 83 c4 10                     	add	esp, 16
c0102742: a1 40 0b 11 c0               	mov	eax, dword ptr [3222342464]
c0102747: 52                           	push	edx
c0102748: 52                           	push	edx
c0102749: 40                           	inc	eax
c010274a: 25 ff 7f 00 00               	and	eax, 32767
c010274f: 50                           	push	eax
c0102750: 68 40 fb 10 c0               	push	3222338368
c0102755: a3 40 0b 11 c0               	mov	dword ptr [3222342464], eax
c010275a: e8 1d 28 00 00               	call	0xc0104f7c <bitarray_is_set>
c010275f: 83 c4 10                     	add	esp, 16
c0102762: 84 c0                        	test	al, al
c0102764: 74 30                        	je	0xc0102796 <phys_allocate_page+0x73>
c0102766: 53                           	push	ebx
c0102767: 53                           	push	ebx
c0102768: ff 35 40 0b 11 c0            	push	dword ptr [-1072624832]
c010276e: 68 40 fb 10 c0               	push	3222338368
c0102773: e8 ee 27 00 00               	call	0xc0104f66 <bitarray_clear>
c0102778: e8 c0 fe ff ff               	call	0xc010263d <phys_set_new_checksum>
c010277d: c7 04 24 e0 fa 10 c0         	mov	dword ptr [esp], 3222338272
c0102784: e8 fa 13 00 00               	call	0xc0103b83 <spinlock_release>
c0102789: a1 40 0b 11 c0               	mov	eax, dword ptr [3222342464]
c010278e: 83 c4 10                     	add	esp, 16
c0102791: c1 e0 0c                     	shl	eax, 12
c0102794: eb 3c                        	jmp	0xc01027d2 <phys_allocate_page+0xaf>
c0102796: 4b                           	dec	ebx
c0102797: 75 a9                        	jne	0xc0102742 <phys_allocate_page+0x1f>
c0102799: e8 9f fe ff ff               	call	0xc010263d <phys_set_new_checksum>
c010279e: 83 ec 0c                     	sub	esp, 12
c01027a1: 68 e0 fa 10 c0               	push	3222338272
c01027a6: e8 d8 13 00 00               	call	0xc0103b83 <spinlock_release>
c01027ab: c7 04 24 4c a7 10 c0         	mov	dword ptr [esp], 3222316876
c01027b2: e8 cc 28 00 00               	call	0xc0105083 <kprintf>
c01027b7: e8 71 04 00 00               	call	0xc0102c2d <vas_perform_page_replacement>
c01027bc: 5a                           	pop	edx
c01027bd: 59                           	pop	ecx
c01027be: 50                           	push	eax
c01027bf: 68 6a a7 10 c0               	push	3222316906
c01027c4: 89 45 f4                     	mov	dword ptr [ebp - 12], eax
c01027c7: e8 96 29 00 00               	call	0xc0105162 <kprintfnv>
c01027cc: 8b 45 f4                     	mov	eax, dword ptr [ebp - 12]
c01027cf: 83 c4 10                     	add	esp, 16
c01027d2: 8b 5d fc                     	mov	ebx, dword ptr [ebp - 4]
c01027d5: c9                           	leave
c01027d6: c3                           	ret

c01027d7 <phys_free_page>:
c01027d7: 55                           	push	ebp
c01027d8: 89 e5                        	mov	ebp, esp
c01027da: 53                           	push	ebx
c01027db: 83 ec 10                     	sub	esp, 16
c01027de: 8b 5d 08                     	mov	ebx, dword ptr [ebp + 8]
c01027e1: 68 e0 fa 10 c0               	push	3222338272
c01027e6: c1 eb 0c                     	shr	ebx, 12
c01027e9: e8 90 13 00 00               	call	0xc0103b7e <spinlock_acquire>
c01027ee: 58                           	pop	eax
c01027ef: 5a                           	pop	edx
c01027f0: 53                           	push	ebx
c01027f1: 68 40 fb 10 c0               	push	3222338368
c01027f6: ff 0d c8 fa 10 c0            	dec	dword ptr [-1072629048]
c01027fc: e8 49 27 00 00               	call	0xc0104f4a <bitarray_set>
c0102801: e8 37 fe ff ff               	call	0xc010263d <phys_set_new_checksum>
c0102806: c7 45 08 e0 fa 10 c0         	mov	dword ptr [ebp + 8], 3222338272
c010280d: 8b 5d fc                     	mov	ebx, dword ptr [ebp - 4]
c0102810: 83 c4 10                     	add	esp, 16
c0102813: c9                           	leave
c0102814: e9 6a 13 00 00               	jmp	0xc0103b83 <spinlock_release>

c0102819 <swapfile_init>:
c0102819: 55                           	push	ebp
c010281a: 89 e5                        	mov	ebp, esp
c010281c: 83 ec 08                     	sub	esp, 8
c010281f: c7 05 b8 0b 11 c0 40 0b 00 00	mov	dword ptr [-1072624712], 2880
c0102829: 68 ac 0b 11 c0               	push	3222342572
c010282e: 6a 00                        	push	0
c0102830: 6a 02                        	push	2
c0102832: 68 7f a7 10 c0               	push	3222316927
c0102837: c7 05 b0 0b 11 c0 00 02 00 00	mov	dword ptr [-1072624720], 512
c0102841: c7 05 b4 0b 11 c0 08 00 00 00	mov	dword ptr [-1072624716], 8
c010284b: e8 7b 3a 00 00               	call	0xc01062cb <vfs_open>
c0102850: 83 c4 10                     	add	esp, 16
c0102853: 85 c0                        	test	eax, eax
c0102855: 74 0d                        	je	0xc0102864 <swapfile_init+0x4b>
c0102857: 83 ec 0c                     	sub	esp, 12
c010285a: 68 87 a7 10 c0               	push	3222316935
c010285f: e8 e7 29 00 00               	call	0xc010524b <panic>
c0102864: 83 ec 0c                     	sub	esp, 12
c0102867: 68 00 02 00 00               	push	512
c010286c: e8 94 fb ff ff               	call	0xc0102405 <malloc>
c0102871: 83 c4 0c                     	add	esp, 12
c0102874: 68 00 02 00 00               	push	512
c0102879: 6a 00                        	push	0
c010287b: 50                           	push	eax
c010287c: a3 a8 0b 11 c0               	mov	dword ptr [3222342568], eax
c0102881: e8 f4 e9 ff ff               	call	0xc010127a <memset>
c0102886: 58                           	pop	eax
c0102887: 5a                           	pop	edx
c0102888: 68 a0 a7 10 c0               	push	3222316960
c010288d: 68 60 0b 11 c0               	push	3222342496
c0102892: e8 b8 12 00 00               	call	0xc0103b4f <spinlock_init>
c0102897: 83 c4 10                     	add	esp, 16
c010289a: c9                           	leave
c010289b: c3                           	ret

c010289c <swapfile_write>:
c010289c: 55                           	push	ebp
c010289d: 89 e5                        	mov	ebp, esp
c010289f: 57                           	push	edi
c01028a0: 56                           	push	esi
c01028a1: 53                           	push	ebx
c01028a2: 31 db                        	xor	ebx, ebx
c01028a4: 83 ec 38                     	sub	esp, 56
c01028a7: 8b 75 08                     	mov	esi, dword ptr [ebp + 8]
c01028aa: 68 60 0b 11 c0               	push	3222342496
c01028af: e8 ca 12 00 00               	call	0xc0103b7e <spinlock_acquire>
c01028b4: 83 c4 10                     	add	esp, 16
c01028b7: 50                           	push	eax
c01028b8: 50                           	push	eax
c01028b9: 53                           	push	ebx
c01028ba: ff 35 a8 0b 11 c0            	push	dword ptr [-1072624728]
c01028c0: e8 b7 26 00 00               	call	0xc0104f7c <bitarray_is_set>
c01028c5: 83 c4 10                     	add	esp, 16
c01028c8: 84 c0                        	test	al, al
c01028ca: 75 58                        	jne	0xc0102924 <swapfile_write+0x88>
c01028cc: 52                           	push	edx
c01028cd: 8d 7d d4                     	lea	edi, [ebp - 44]
c01028d0: 52                           	push	edx
c01028d1: 53                           	push	ebx
c01028d2: ff 35 a8 0b 11 c0            	push	dword ptr [-1072624728]
c01028d8: e8 6d 26 00 00               	call	0xc0104f4a <bitarray_set>
c01028dd: 59                           	pop	ecx
c01028de: 58                           	pop	eax
c01028df: 6a 00                        	push	0
c01028e1: 6a 01                        	push	1
c01028e3: a1 b4 0b 11 c0               	mov	eax, dword ptr [3222342580]
c01028e8: 0f af c3                     	imul	eax, ebx
c01028eb: 03 05 b8 0b 11 c0            	add	eax, dword ptr [-1072624712]
c01028f1: 0f af 05 b0 0b 11 c0         	imul	eax, dword ptr [-1072624720]
c01028f8: 50                           	push	eax
c01028f9: 68 00 10 00 00               	push	4096
c01028fe: 56                           	push	esi
c01028ff: 57                           	push	edi
c0102900: e8 1a 30 00 00               	call	0xc010591f <uio_construct>
c0102905: 89 3c 24                     	mov	dword ptr [esp], edi
c0102908: ff 35 ac 0b 11 c0            	push	dword ptr [-1072624724]
c010290e: e8 d6 35 00 00               	call	0xc0105ee9 <vfs_write>
c0102913: 83 c4 20                     	add	esp, 32
c0102916: 85 c0                        	test	eax, eax
c0102918: 74 20                        	je	0xc010293a <swapfile_write+0x9e>
c010291a: 83 ec 0c                     	sub	esp, 12
c010291d: 68 c5 a7 10 c0               	push	3222316997
c0102922: eb 11                        	jmp	0xc0102935 <swapfile_write+0x99>
c0102924: 43                           	inc	ebx
c0102925: 81 fb 00 10 00 00            	cmp	ebx, 4096
c010292b: 75 8a                        	jne	0xc01028b7 <swapfile_write+0x1b>
c010292d: 83 ec 0c                     	sub	esp, 12
c0102930: 68 ae a7 10 c0               	push	3222316974
c0102935: e8 11 29 00 00               	call	0xc010524b <panic>
c010293a: 50                           	push	eax
c010293b: 68 00 10 00 00               	push	4096
c0102940: 6a 00                        	push	0
c0102942: 56                           	push	esi
c0102943: e8 32 e9 ff ff               	call	0xc010127a <memset>
c0102948: c7 04 24 60 0b 11 c0         	mov	dword ptr [esp], 3222342496
c010294f: e8 2f 12 00 00               	call	0xc0103b83 <spinlock_release>
c0102954: 8d 65 f4                     	lea	esp, [ebp - 12]
c0102957: 89 d8                        	mov	eax, ebx
c0102959: 5b                           	pop	ebx
c010295a: 5e                           	pop	esi
c010295b: 5f                           	pop	edi
c010295c: 5d                           	pop	ebp
c010295d: c3                           	ret

c010295e <swapfile_read>:
c010295e: 55                           	push	ebp
c010295f: 89 e5                        	mov	ebp, esp
c0102961: 56                           	push	esi
c0102962: 53                           	push	ebx
c0102963: 83 ec 20                     	sub	esp, 32
c0102966: 8b 5d 0c                     	mov	ebx, dword ptr [ebp + 12]
c0102969: 81 fb ff 0f 00 00            	cmp	ebx, 4095
c010296f: 76 0a                        	jbe	0xc010297b <swapfile_read+0x1d>
c0102971: 83 ec 0c                     	sub	esp, 12
c0102974: 68 df a7 10 c0               	push	3222317023
c0102979: eb 4a                        	jmp	0xc01029c5 <swapfile_read+0x67>
c010297b: 52                           	push	edx
c010297c: 8d 75 e4                     	lea	esi, [ebp - 28]
c010297f: 52                           	push	edx
c0102980: 6a 00                        	push	0
c0102982: 6a 00                        	push	0
c0102984: a1 b4 0b 11 c0               	mov	eax, dword ptr [3222342580]
c0102989: 0f af c3                     	imul	eax, ebx
c010298c: 03 05 b8 0b 11 c0            	add	eax, dword ptr [-1072624712]
c0102992: 0f af 05 b0 0b 11 c0         	imul	eax, dword ptr [-1072624720]
c0102999: 50                           	push	eax
c010299a: 68 00 10 00 00               	push	4096
c010299f: ff 75 08                     	push	dword ptr [ebp + 8]
c01029a2: 56                           	push	esi
c01029a3: e8 77 2f 00 00               	call	0xc010591f <uio_construct>
c01029a8: 89 34 24                     	mov	dword ptr [esp], esi
c01029ab: ff 35 ac 0b 11 c0            	push	dword ptr [-1072624724]
c01029b1: e8 96 35 00 00               	call	0xc0105f4c <vfs_read>
c01029b6: 83 c4 20                     	add	esp, 32
c01029b9: 85 c0                        	test	eax, eax
c01029bb: 74 0d                        	je	0xc01029ca <swapfile_read+0x6c>
c01029bd: 83 ec 0c                     	sub	esp, 12
c01029c0: 68 fc a7 10 c0               	push	3222317052
c01029c5: e8 81 28 00 00               	call	0xc010524b <panic>
c01029ca: 50                           	push	eax
c01029cb: 50                           	push	eax
c01029cc: 53                           	push	ebx
c01029cd: ff 35 a8 0b 11 c0            	push	dword ptr [-1072624728]
c01029d3: e8 8e 25 00 00               	call	0xc0104f66 <bitarray_clear>
c01029d8: 83 c4 10                     	add	esp, 16
c01029db: 8d 65 f8                     	lea	esp, [ebp - 8]
c01029de: 5b                           	pop	ebx
c01029df: 5e                           	pop	esi
c01029e0: 5d                           	pop	ebp
c01029e1: c3                           	ret

c01029e2 <vas_create>:
c01029e2: 55                           	push	ebp
c01029e3: 89 e5                        	mov	ebp, esp
c01029e5: 53                           	push	ebx
c01029e6: 83 ec 10                     	sub	esp, 16
c01029e9: 6a 50                        	push	80
c01029eb: e8 15 fa ff ff               	call	0xc0102405 <malloc>
c01029f0: 89 c3                        	mov	ebx, eax
c01029f2: 31 c0                        	xor	eax, eax
c01029f4: 89 43 04                     	mov	dword ptr [ebx + 4], eax
c01029f7: 8d 43 08                     	lea	eax, [ebx + 8]
c01029fa: 5a                           	pop	edx
c01029fb: 59                           	pop	ecx
c01029fc: 68 15 a8 10 c0               	push	3222317077
c0102a01: 50                           	push	eax
c0102a02: e8 48 11 00 00               	call	0xc0103b4f <spinlock_init>
c0102a07: 89 1c 24                     	mov	dword ptr [esp], ebx
c0102a0a: e8 2b 61 00 00               	call	0xc0108b3a <arch_vas_create>
c0102a0f: 89 d8                        	mov	eax, ebx
c0102a11: 8b 5d fc                     	mov	ebx, dword ptr [ebp - 4]
c0102a14: c9                           	leave
c0102a15: c3                           	ret

c0102a16 <vas_get_current_vas>:
c0102a16: a1 18 0e 11 c0               	mov	eax, dword ptr [3222343192]
c0102a1b: 8b 40 04                     	mov	eax, dword ptr [eax + 4]
c0102a1e: c3                           	ret

c0102a1f <vas_flush_tlb>:
c0102a1f: e9 e5 66 00 00               	jmp	0xc0109109 <arch_flush_tlb>

c0102a24 <vas_destroy>:
c0102a24: 55                           	push	ebp
c0102a25: 89 e5                        	mov	ebp, esp
c0102a27: 56                           	push	esi
c0102a28: 53                           	push	ebx
c0102a29: 8b 5d 08                     	mov	ebx, dword ptr [ebp + 8]
c0102a2c: 8d 73 08                     	lea	esi, [ebx + 8]
c0102a2f: 83 ec 0c                     	sub	esp, 12
c0102a32: 56                           	push	esi
c0102a33: e8 46 11 00 00               	call	0xc0103b7e <spinlock_acquire>
c0102a38: a1 18 0e 11 c0               	mov	eax, dword ptr [3222343192]
c0102a3d: 83 c4 10                     	add	esp, 16
c0102a40: 39 58 04                     	cmp	dword ptr [eax + 4], ebx
c0102a43: 75 0d                        	jne	0xc0102a52 <vas_destroy+0x2e>
c0102a45: 83 ec 0c                     	sub	esp, 12
c0102a48: 68 22 a8 10 c0               	push	3222317090
c0102a4d: e8 f9 27 00 00               	call	0xc010524b <panic>
c0102a52: 83 ec 0c                     	sub	esp, 12
c0102a55: ff 33                        	push	dword ptr [ebx]
c0102a57: e8 3d 5d 00 00               	call	0xc0108799 <arch_vas_destroy>
c0102a5c: 89 34 24                     	mov	dword ptr [esp], esi
c0102a5f: e8 1f 11 00 00               	call	0xc0103b83 <spinlock_release>
c0102a64: 89 5d 08                     	mov	dword ptr [ebp + 8], ebx
c0102a67: 83 c4 10                     	add	esp, 16
c0102a6a: 8d 65 f8                     	lea	esp, [ebp - 8]
c0102a6d: 5b                           	pop	ebx
c0102a6e: 5e                           	pop	esi
c0102a6f: 5d                           	pop	ebp
c0102a70: e9 af fa ff ff               	jmp	0xc0102524 <free>

c0102a75 <vas_load>:
c0102a75: 55                           	push	ebp
c0102a76: 89 e5                        	mov	ebp, esp
c0102a78: 56                           	push	esi
c0102a79: 53                           	push	ebx
c0102a7a: 8b 5d 08                     	mov	ebx, dword ptr [ebp + 8]
c0102a7d: 8d 73 08                     	lea	esi, [ebx + 8]
c0102a80: 83 ec 0c                     	sub	esp, 12
c0102a83: 56                           	push	esi
c0102a84: e8 f5 10 00 00               	call	0xc0103b7e <spinlock_acquire>
c0102a89: 58                           	pop	eax
c0102a8a: ff 33                        	push	dword ptr [ebx]
c0102a8c: e8 0d 5d 00 00               	call	0xc010879e <arch_vas_load>
c0102a91: a1 18 0e 11 c0               	mov	eax, dword ptr [3222343192]
c0102a96: 83 c4 10                     	add	esp, 16
c0102a99: 89 58 04                     	mov	dword ptr [eax + 4], ebx
c0102a9c: 89 75 08                     	mov	dword ptr [ebp + 8], esi
c0102a9f: 8d 65 f8                     	lea	esp, [ebp - 8]
c0102aa2: 5b                           	pop	ebx
c0102aa3: 5e                           	pop	esi
c0102aa4: 5d                           	pop	ebp
c0102aa5: e9 d9 10 00 00               	jmp	0xc0103b83 <spinlock_release>

c0102aaa <vas_copy>:
c0102aaa: 55                           	push	ebp
c0102aab: 89 e5                        	mov	ebp, esp
c0102aad: 57                           	push	edi
c0102aae: 56                           	push	esi
c0102aaf: 53                           	push	ebx
c0102ab0: 83 ec 18                     	sub	esp, 24
c0102ab3: 8b 75 08                     	mov	esi, dword ptr [ebp + 8]
c0102ab6: 6a 50                        	push	80
c0102ab8: 8d 7e 08                     	lea	edi, [esi + 8]
c0102abb: e8 45 f9 ff ff               	call	0xc0102405 <malloc>
c0102ac0: 89 c3                        	mov	ebx, eax
c0102ac2: 58                           	pop	eax
c0102ac3: 5a                           	pop	edx
c0102ac4: 68 15 a8 10 c0               	push	3222317077
c0102ac9: 8d 43 08                     	lea	eax, [ebx + 8]
c0102acc: 50                           	push	eax
c0102acd: e8 7d 10 00 00               	call	0xc0103b4f <spinlock_init>
c0102ad2: 89 3c 24                     	mov	dword ptr [esp], edi
c0102ad5: e8 a4 10 00 00               	call	0xc0103b7e <spinlock_acquire>
c0102ada: 59                           	pop	ecx
c0102adb: 58                           	pop	eax
c0102adc: 53                           	push	ebx
c0102add: 56                           	push	esi
c0102ade: e8 dd 60 00 00               	call	0xc0108bc0 <arch_vas_copy>
c0102ae3: 89 73 04                     	mov	dword ptr [ebx + 4], esi
c0102ae6: 89 3c 24                     	mov	dword ptr [esp], edi
c0102ae9: e8 95 10 00 00               	call	0xc0103b83 <spinlock_release>
c0102aee: 8d 65 f4                     	lea	esp, [ebp - 12]
c0102af1: 89 d8                        	mov	eax, ebx
c0102af3: 5b                           	pop	ebx
c0102af4: 5e                           	pop	esi
c0102af5: 5f                           	pop	edi
c0102af6: 5d                           	pop	ebp
c0102af7: c3                           	ret

c0102af8 <vas_map>:
c0102af8: 55                           	push	ebp
c0102af9: 89 e5                        	mov	ebp, esp
c0102afb: 57                           	push	edi
c0102afc: 56                           	push	esi
c0102afd: 53                           	push	ebx
c0102afe: 83 ec 28                     	sub	esp, 40
c0102b01: 8b 7d 08                     	mov	edi, dword ptr [ebp + 8]
c0102b04: 8b 55 0c                     	mov	edx, dword ptr [ebp + 12]
c0102b07: 8b 45 10                     	mov	eax, dword ptr [ebp + 16]
c0102b0a: 8b 5d 14                     	mov	ebx, dword ptr [ebp + 20]
c0102b0d: 8d 77 08                     	lea	esi, [edi + 8]
c0102b10: 89 55 e0                     	mov	dword ptr [ebp - 32], edx
c0102b13: 89 45 e4                     	mov	dword ptr [ebp - 28], eax
c0102b16: 83 cb 14                     	or	ebx, 20
c0102b19: 56                           	push	esi
c0102b1a: e8 5f 10 00 00               	call	0xc0103b7e <spinlock_acquire>
c0102b1f: 53                           	push	ebx
c0102b20: 8b 55 e0                     	mov	edx, dword ptr [ebp - 32]
c0102b23: 52                           	push	edx
c0102b24: 8b 45 e4                     	mov	eax, dword ptr [ebp - 28]
c0102b27: 50                           	push	eax
c0102b28: 57                           	push	edi
c0102b29: e8 81 5c 00 00               	call	0xc01087af <arch_vas_set_entry>
c0102b2e: 89 75 08                     	mov	dword ptr [ebp + 8], esi
c0102b31: 83 c4 20                     	add	esp, 32
c0102b34: 8d 65 f4                     	lea	esp, [ebp - 12]
c0102b37: 5b                           	pop	ebx
c0102b38: 5e                           	pop	esi
c0102b39: 5f                           	pop	edi
c0102b3a: 5d                           	pop	ebp
c0102b3b: e9 43 10 00 00               	jmp	0xc0103b83 <spinlock_release>

c0102b40 <vas_reflag>:
c0102b40: 55                           	push	ebp
c0102b41: 89 e5                        	mov	ebp, esp
c0102b43: 57                           	push	edi
c0102b44: 56                           	push	esi
c0102b45: 53                           	push	ebx
c0102b46: 83 ec 28                     	sub	esp, 40
c0102b49: 8b 5d 08                     	mov	ebx, dword ptr [ebp + 8]
c0102b4c: 8b 7d 0c                     	mov	edi, dword ptr [ebp + 12]
c0102b4f: 8d 73 08                     	lea	esi, [ebx + 8]
c0102b52: 56                           	push	esi
c0102b53: e8 26 10 00 00               	call	0xc0103b7e <spinlock_acquire>
c0102b58: 8d 45 e0                     	lea	eax, [ebp - 32]
c0102b5b: 50                           	push	eax
c0102b5c: 8d 45 e4                     	lea	eax, [ebp - 28]
c0102b5f: 50                           	push	eax
c0102b60: 57                           	push	edi
c0102b61: 53                           	push	ebx
c0102b62: e8 ce 62 00 00               	call	0xc0108e35 <arch_vas_get_entry>
c0102b67: 83 c4 20                     	add	esp, 32
c0102b6a: ff 75 10                     	push	dword ptr [ebp + 16]
c0102b6d: ff 75 e4                     	push	dword ptr [ebp - 28]
c0102b70: 57                           	push	edi
c0102b71: 53                           	push	ebx
c0102b72: e8 38 5c 00 00               	call	0xc01087af <arch_vas_set_entry>
c0102b77: 89 34 24                     	mov	dword ptr [esp], esi
c0102b7a: e8 04 10 00 00               	call	0xc0103b83 <spinlock_release>
c0102b7f: 83 c4 10                     	add	esp, 16
c0102b82: 8d 65 f4                     	lea	esp, [ebp - 12]
c0102b85: 5b                           	pop	ebx
c0102b86: 5e                           	pop	esi
c0102b87: 5f                           	pop	edi
c0102b88: 5d                           	pop	ebp
c0102b89: c3                           	ret

c0102b8a <vas_virtual_to_physical>:
c0102b8a: 55                           	push	ebp
c0102b8b: 89 e5                        	mov	ebp, esp
c0102b8d: 56                           	push	esi
c0102b8e: 53                           	push	ebx
c0102b8f: 83 ec 1c                     	sub	esp, 28
c0102b92: 8b 75 08                     	mov	esi, dword ptr [ebp + 8]
c0102b95: 8d 5e 08                     	lea	ebx, [esi + 8]
c0102b98: 53                           	push	ebx
c0102b99: e8 e0 0f 00 00               	call	0xc0103b7e <spinlock_acquire>
c0102b9e: 8d 45 f0                     	lea	eax, [ebp - 16]
c0102ba1: 50                           	push	eax
c0102ba2: 8d 45 f4                     	lea	eax, [ebp - 12]
c0102ba5: 50                           	push	eax
c0102ba6: ff 75 0c                     	push	dword ptr [ebp + 12]
c0102ba9: 56                           	push	esi
c0102baa: e8 86 62 00 00               	call	0xc0108e35 <arch_vas_get_entry>
c0102baf: 83 c4 14                     	add	esp, 20
c0102bb2: 53                           	push	ebx
c0102bb3: e8 cb 0f 00 00               	call	0xc0103b83 <spinlock_release>
c0102bb8: 8b 45 f4                     	mov	eax, dword ptr [ebp - 12]
c0102bbb: 8d 65 f8                     	lea	esp, [ebp - 8]
c0102bbe: 5b                           	pop	ebx
c0102bbf: 5e                           	pop	esi
c0102bc0: 5d                           	pop	ebp
c0102bc1: c3                           	ret

c0102bc2 <vas_unmap>:
c0102bc2: 55                           	push	ebp
c0102bc3: 89 e5                        	mov	ebp, esp
c0102bc5: 57                           	push	edi
c0102bc6: 56                           	push	esi
c0102bc7: 53                           	push	ebx
c0102bc8: 83 ec 28                     	sub	esp, 40
c0102bcb: 8b 5d 08                     	mov	ebx, dword ptr [ebp + 8]
c0102bce: 8b 7d 0c                     	mov	edi, dword ptr [ebp + 12]
c0102bd1: 8d 73 08                     	lea	esi, [ebx + 8]
c0102bd4: 56                           	push	esi
c0102bd5: e8 a4 0f 00 00               	call	0xc0103b7e <spinlock_acquire>
c0102bda: 8d 45 e0                     	lea	eax, [ebp - 32]
c0102bdd: 50                           	push	eax
c0102bde: 8d 45 e4                     	lea	eax, [ebp - 28]
c0102be1: 50                           	push	eax
c0102be2: 57                           	push	edi
c0102be3: 53                           	push	ebx
c0102be4: e8 4c 62 00 00               	call	0xc0108e35 <arch_vas_get_entry>
c0102be9: 83 c4 20                     	add	esp, 32
c0102bec: 6a 00                        	push	0
c0102bee: 6a 00                        	push	0
c0102bf0: 57                           	push	edi
c0102bf1: 53                           	push	ebx
c0102bf2: e8 b8 5b 00 00               	call	0xc01087af <arch_vas_set_entry>
c0102bf7: 89 34 24                     	mov	dword ptr [esp], esi
c0102bfa: e8 84 0f 00 00               	call	0xc0103b83 <spinlock_release>
c0102bff: 8b 45 e0                     	mov	eax, dword ptr [ebp - 32]
c0102c02: 83 c4 10                     	add	esp, 16
c0102c05: a8 08                        	test	al, 8
c0102c07: 74 0d                        	je	0xc0102c16 <vas_unmap+0x54>
c0102c09: 83 ec 0c                     	sub	esp, 12
c0102c0c: 68 52 a8 10 c0               	push	3222317138
c0102c11: e8 35 26 00 00               	call	0xc010524b <panic>
c0102c16: 83 e0 50                     	and	eax, 80
c0102c19: 31 d2                        	xor	edx, edx
c0102c1b: 83 f8 10                     	cmp	eax, 16
c0102c1e: 75 03                        	jne	0xc0102c23 <vas_unmap+0x61>
c0102c20: 8b 55 e4                     	mov	edx, dword ptr [ebp - 28]
c0102c23: 8d 65 f4                     	lea	esp, [ebp - 12]
c0102c26: 89 d0                        	mov	eax, edx
c0102c28: 5b                           	pop	ebx
c0102c29: 5e                           	pop	esi
c0102c2a: 5f                           	pop	edi
c0102c2b: 5d                           	pop	ebp
c0102c2c: c3                           	ret

c0102c2d <vas_perform_page_replacement>:
c0102c2d: 55                           	push	ebp
c0102c2e: 89 e5                        	mov	ebp, esp
c0102c30: 57                           	push	edi
c0102c31: 56                           	push	esi
c0102c32: 53                           	push	ebx
c0102c33: 83 ec 38                     	sub	esp, 56
c0102c36: a1 18 0e 11 c0               	mov	eax, dword ptr [3222343192]
c0102c3b: 8b 70 04                     	mov	esi, dword ptr [eax + 4]
c0102c3e: 8d 56 08                     	lea	edx, [esi + 8]
c0102c41: 52                           	push	edx
c0102c42: 89 55 d0                     	mov	dword ptr [ebp - 48], edx
c0102c45: e8 3e 0f 00 00               	call	0xc0103b88 <spinlock_acquire_if_unlocked>
c0102c4a: 88 45 d7                     	mov	byte ptr [ebp - 41], al
c0102c4d: 89 34 24                     	mov	dword ptr [esp], esi
c0102c50: e8 45 62 00 00               	call	0xc0108e9a <arch_find_page_replacement_virt_address>
c0102c55: 5a                           	pop	edx
c0102c56: 59                           	pop	ecx
c0102c57: 50                           	push	eax
c0102c58: 89 c3                        	mov	ebx, eax
c0102c5a: 68 8c a8 10 c0               	push	3222317196
c0102c5f: e8 fe 24 00 00               	call	0xc0105162 <kprintfnv>
c0102c64: 8d 4d dc                     	lea	ecx, [ebp - 36]
c0102c67: 8d 45 e0                     	lea	eax, [ebp - 32]
c0102c6a: 51                           	push	ecx
c0102c6b: 50                           	push	eax
c0102c6c: 53                           	push	ebx
c0102c6d: 56                           	push	esi
c0102c6e: e8 c2 61 00 00               	call	0xc0108e35 <arch_vas_get_entry>
c0102c73: 83 c4 18                     	add	esp, 24
c0102c76: ff 75 e0                     	push	dword ptr [ebp - 32]
c0102c79: 68 9c a8 10 c0               	push	3222317212
c0102c7e: e8 df 24 00 00               	call	0xc0105162 <kprintfnv>
c0102c83: 8b 45 dc                     	mov	eax, dword ptr [ebp - 36]
c0102c86: 83 c8 20                     	or	eax, 32
c0102c89: 50                           	push	eax
c0102c8a: ff 75 e0                     	push	dword ptr [ebp - 32]
c0102c8d: 53                           	push	ebx
c0102c8e: 56                           	push	esi
c0102c8f: e8 1b 5b 00 00               	call	0xc01087af <arch_vas_set_entry>
c0102c94: 83 c4 18                     	add	esp, 24
c0102c97: ff 75 e0                     	push	dword ptr [ebp - 32]
c0102c9a: 68 9c a8 10 c0               	push	3222317212
c0102c9f: e8 be 24 00 00               	call	0xc0105162 <kprintfnv>
c0102ca4: 5f                           	pop	edi
c0102ca5: 58                           	pop	eax
c0102ca6: 53                           	push	ebx
c0102ca7: 68 ad a8 10 c0               	push	3222317229
c0102cac: e8 b1 24 00 00               	call	0xc0105162 <kprintfnv>
c0102cb1: 89 1c 24                     	mov	dword ptr [esp], ebx
c0102cb4: e8 e3 fb ff ff               	call	0xc010289c <swapfile_write>
c0102cb9: 5a                           	pop	edx
c0102cba: 59                           	pop	ecx
c0102cbb: 50                           	push	eax
c0102cbc: 89 c7                        	mov	edi, eax
c0102cbe: 68 c3 a8 10 c0               	push	3222317251
c0102cc3: c1 e7 0c                     	shl	edi, 12
c0102cc6: e8 97 24 00 00               	call	0xc0105162 <kprintfnv>
c0102ccb: 8b 45 dc                     	mov	eax, dword ptr [ebp - 36]
c0102cce: 83 e0 cf                     	and	eax, -49
c0102cd1: 50                           	push	eax
c0102cd2: 57                           	push	edi
c0102cd3: 53                           	push	ebx
c0102cd4: 56                           	push	esi
c0102cd5: e8 d5 5a 00 00               	call	0xc01087af <arch_vas_set_entry>
c0102cda: 83 c4 14                     	add	esp, 20
c0102cdd: 68 d9 a8 10 c0               	push	3222317273
c0102ce2: e8 7b 24 00 00               	call	0xc0105162 <kprintfnv>
c0102ce7: 8d 4d dc                     	lea	ecx, [ebp - 36]
c0102cea: 8d 45 e4                     	lea	eax, [ebp - 28]
c0102ced: 51                           	push	ecx
c0102cee: 50                           	push	eax
c0102cef: 53                           	push	ebx
c0102cf0: 56                           	push	esi
c0102cf1: e8 3f 61 00 00               	call	0xc0108e35 <arch_vas_get_entry>
c0102cf6: 83 c4 14                     	add	esp, 20
c0102cf9: 68 de a8 10 c0               	push	3222317278
c0102cfe: e8 5f 24 00 00               	call	0xc0105162 <kprintfnv>
c0102d03: 83 c4 10                     	add	esp, 16
c0102d06: 80 7d d7 00                  	cmp	byte ptr [ebp - 41], 0
c0102d0a: 8b 55 d0                     	mov	edx, dword ptr [ebp - 48]
c0102d0d: 74 0c                        	je	0xc0102d1b <vas_perform_page_replacement+0xee>
c0102d0f: 83 ec 0c                     	sub	esp, 12
c0102d12: 52                           	push	edx
c0102d13: e8 6b 0e 00 00               	call	0xc0103b83 <spinlock_release>
c0102d18: 83 c4 10                     	add	esp, 16
c0102d1b: 83 ec 0c                     	sub	esp, 12
c0102d1e: 68 e3 a8 10 c0               	push	3222317283
c0102d23: e8 3a 24 00 00               	call	0xc0105162 <kprintfnv>
c0102d28: 8b 45 e0                     	mov	eax, dword ptr [ebp - 32]
c0102d2b: 8d 65 f4                     	lea	esp, [ebp - 12]
c0102d2e: 5b                           	pop	ebx
c0102d2f: 5e                           	pop	esi
c0102d30: 5f                           	pop	edi
c0102d31: 5d                           	pop	ebp
c0102d32: c3                           	ret

c0102d33 <virt_init>:
c0102d33: 55                           	push	ebp
c0102d34: 89 e5                        	mov	ebp, esp
c0102d36: 83 ec 10                     	sub	esp, 16
c0102d39: 68 ee a8 10 c0               	push	3222317294
c0102d3e: 68 c0 0b 11 c0               	push	3222342592
c0102d43: e8 07 0e 00 00               	call	0xc0103b4f <spinlock_init>
c0102d48: 83 c4 10                     	add	esp, 16
c0102d4b: c9                           	leave
c0102d4c: c3                           	ret

c0102d4d <virt_bytes_to_pages>:
c0102d4d: 55                           	push	ebp
c0102d4e: 89 e5                        	mov	ebp, esp
c0102d50: 8b 45 08                     	mov	eax, dword ptr [ebp + 8]
c0102d53: 5d                           	pop	ebp
c0102d54: 05 ff 0f 00 00               	add	eax, 4095
c0102d59: c1 e8 0c                     	shr	eax, 12
c0102d5c: c3                           	ret

c0102d5d <virt_allocate_unbacked_krnl_region>:
c0102d5d: 55                           	push	ebp
c0102d5e: 89 e5                        	mov	ebp, esp
c0102d60: 53                           	push	ebx
c0102d61: 83 ec 10                     	sub	esp, 16
c0102d64: 68 c0 0b 11 c0               	push	3222342592
c0102d69: e8 10 0e 00 00               	call	0xc0103b7e <spinlock_acquire>
c0102d6e: 8b 1d 08 c0 10 c0            	mov	ebx, dword ptr [-1072644088]
c0102d74: 83 c4 10                     	add	esp, 16
c0102d77: 81 fb ff ff 7f ff            	cmp	ebx, 4286578687
c0102d7d: 76 0d                        	jbe	0xc0102d8c <virt_allocate_unbacked_krnl_region+0x2f>
c0102d7f: 83 ec 0c                     	sub	esp, 12
c0102d82: 68 f8 a8 10 c0               	push	3222317304
c0102d87: e8 bf 24 00 00               	call	0xc010524b <panic>
c0102d8c: 8b 45 08                     	mov	eax, dword ptr [ebp + 8]
c0102d8f: 83 ec 0c                     	sub	esp, 12
c0102d92: 68 c0 0b 11 c0               	push	3222342592
c0102d97: 05 ff 0f 00 00               	add	eax, 4095
c0102d9c: 25 00 f0 ff ff               	and	eax, 4294963200
c0102da1: 01 d8                        	add	eax, ebx
c0102da3: a3 08 c0 10 c0               	mov	dword ptr [3222323208], eax
c0102da8: e8 d6 0d 00 00               	call	0xc0103b83 <spinlock_release>
c0102dad: 89 d8                        	mov	eax, ebx
c0102daf: 8b 5d fc                     	mov	ebx, dword ptr [ebp - 4]
c0102db2: c9                           	leave
c0102db3: c3                           	ret

c0102db4 <virt_deallocate_unbacked_krnl_region>:
c0102db4: c3                           	ret

c0102db5 <virt_allocate_backed_pages>:
c0102db5: 55                           	push	ebp
c0102db6: 89 e5                        	mov	ebp, esp
c0102db8: 57                           	push	edi
c0102db9: 31 ff                        	xor	edi, edi
c0102dbb: 56                           	push	esi
c0102dbc: 53                           	push	ebx
c0102dbd: 83 ec 28                     	sub	esp, 40
c0102dc0: 8b 45 08                     	mov	eax, dword ptr [ebp + 8]
c0102dc3: c1 e0 0c                     	shl	eax, 12
c0102dc6: 50                           	push	eax
c0102dc7: e8 91 ff ff ff               	call	0xc0102d5d <virt_allocate_unbacked_krnl_region>
c0102dcc: 83 c4 10                     	add	esp, 16
c0102dcf: 89 45 e4                     	mov	dword ptr [ebp - 28], eax
c0102dd2: 89 c6                        	mov	esi, eax
c0102dd4: 3b 7d 08                     	cmp	edi, dword ptr [ebp + 8]
c0102dd7: 74 45                        	je	0xc0102e1e <virt_allocate_backed_pages+0x69>
c0102dd9: e8 45 f9 ff ff               	call	0xc0102723 <phys_allocate_page>
c0102dde: 89 c3                        	mov	ebx, eax
c0102de0: 50                           	push	eax
c0102de1: 50                           	push	eax
c0102de2: 53                           	push	ebx
c0102de3: 68 12 a9 10 c0               	push	3222317330
c0102de8: e8 75 23 00 00               	call	0xc0105162 <kprintfnv>
c0102ded: e8 24 fc ff ff               	call	0xc0102a16 <vas_get_current_vas>
c0102df2: ff 75 0c                     	push	dword ptr [ebp + 12]
c0102df5: 56                           	push	esi
c0102df6: 53                           	push	ebx
c0102df7: 50                           	push	eax
c0102df8: e8 fb fc ff ff               	call	0xc0102af8 <vas_map>
c0102dfd: 83 c4 20                     	add	esp, 32
c0102e00: 89 f2                        	mov	edx, esi
c0102e02: 31 c0                        	xor	eax, eax
c0102e04: 40                           	inc	eax
c0102e05: c7 02 ef be ad de            	mov	dword ptr [edx], 3735928559
c0102e0b: 83 c2 04                     	add	edx, 4
c0102e0e: 3d 00 04 00 00               	cmp	eax, 1024
c0102e13: 75 ef                        	jne	0xc0102e04 <virt_allocate_backed_pages+0x4f>
c0102e15: 47                           	inc	edi
c0102e16: 81 c6 00 10 00 00            	add	esi, 4096
c0102e1c: eb b6                        	jmp	0xc0102dd4 <virt_allocate_backed_pages+0x1f>
c0102e1e: e8 fc fb ff ff               	call	0xc0102a1f <vas_flush_tlb>
c0102e23: 8b 45 e4                     	mov	eax, dword ptr [ebp - 28]
c0102e26: 8d 65 f4                     	lea	esp, [ebp - 12]
c0102e29: 5b                           	pop	ebx
c0102e2a: 5e                           	pop	esi
c0102e2b: 5f                           	pop	edi
c0102e2c: 5d                           	pop	ebp
c0102e2d: c3                           	ret

c0102e2e <virt_free_backed_pages>:
c0102e2e: 55                           	push	ebp
c0102e2f: 89 e5                        	mov	ebp, esp
c0102e31: 56                           	push	esi
c0102e32: 53                           	push	ebx
c0102e33: 31 db                        	xor	ebx, ebx
c0102e35: 3b 5d 0c                     	cmp	ebx, dword ptr [ebp + 12]
c0102e38: 74 2c                        	je	0xc0102e66 <virt_free_backed_pages+0x38>
c0102e3a: 89 de                        	mov	esi, ebx
c0102e3c: c1 e6 0c                     	shl	esi, 12
c0102e3f: 03 75 08                     	add	esi, dword ptr [ebp + 8]
c0102e42: e8 cf fb ff ff               	call	0xc0102a16 <vas_get_current_vas>
c0102e47: 52                           	push	edx
c0102e48: 52                           	push	edx
c0102e49: 56                           	push	esi
c0102e4a: 50                           	push	eax
c0102e4b: e8 72 fd ff ff               	call	0xc0102bc2 <vas_unmap>
c0102e50: 83 c4 10                     	add	esp, 16
c0102e53: 85 c0                        	test	eax, eax
c0102e55: 74 0c                        	je	0xc0102e63 <virt_free_backed_pages+0x35>
c0102e57: 83 ec 0c                     	sub	esp, 12
c0102e5a: 50                           	push	eax
c0102e5b: e8 77 f9 ff ff               	call	0xc01027d7 <phys_free_page>
c0102e60: 83 c4 10                     	add	esp, 16
c0102e63: 43                           	inc	ebx
c0102e64: eb cf                        	jmp	0xc0102e35 <virt_free_backed_pages+0x7>
c0102e66: 8d 65 f8                     	lea	esp, [ebp - 8]
c0102e69: 5b                           	pop	ebx
c0102e6a: 5e                           	pop	esi
c0102e6b: 5d                           	pop	ebp
c0102e6c: c3                           	ret

c0102e6d <sys_close>:
c0102e6d: 55                           	push	ebp
c0102e6e: 89 e5                        	mov	ebp, esp
c0102e70: 53                           	push	ebx
c0102e71: 83 ec 0c                     	sub	esp, 12
c0102e74: 8b 45 08                     	mov	eax, dword ptr [ebp + 8]
c0102e77: ff 30                        	push	dword ptr [eax]
c0102e79: a1 18 0e 11 c0               	mov	eax, dword ptr [3222343192]
c0102e7e: 8b 00                        	mov	eax, dword ptr [eax]
c0102e80: 8b 40 4c                     	mov	eax, dword ptr [eax + 76]
c0102e83: ff 70 0c                     	push	dword ptr [eax + 12]
c0102e86: e8 c4 26 00 00               	call	0xc010554f <filedesc_get_open_file>
c0102e8b: 83 c4 10                     	add	esp, 16
c0102e8e: 85 c0                        	test	eax, eax
c0102e90: 74 2a                        	je	0xc0102ebc <sys_close+0x4f>
c0102e92: 89 c3                        	mov	ebx, eax
c0102e94: 50                           	push	eax
c0102e95: 50                           	push	eax
c0102e96: a1 18 0e 11 c0               	mov	eax, dword ptr [3222343192]
c0102e9b: 53                           	push	ebx
c0102e9c: 8b 00                        	mov	eax, dword ptr [eax]
c0102e9e: 8b 40 4c                     	mov	eax, dword ptr [eax + 76]
c0102ea1: ff 70 0c                     	push	dword ptr [eax + 12]
c0102ea4: e8 4a 27 00 00               	call	0xc01055f3 <filedesc_table_deregister_file>
c0102ea9: 83 c4 10                     	add	esp, 16
c0102eac: 85 c0                        	test	eax, eax
c0102eae: 75 11                        	jne	0xc0102ec1 <sys_close+0x54>
c0102eb0: 89 5d 08                     	mov	dword ptr [ebp + 8], ebx
c0102eb3: 8b 5d fc                     	mov	ebx, dword ptr [ebp - 4]
c0102eb6: c9                           	leave
c0102eb7: e9 a0 32 00 00               	jmp	0xc010615c <vfs_close>
c0102ebc: b8 14 00 00 00               	mov	eax, 20
c0102ec1: 8b 5d fc                     	mov	ebx, dword ptr [ebp - 4]
c0102ec4: c9                           	leave
c0102ec5: c3                           	ret

c0102ec6 <sys_dup>:
c0102ec6: 55                           	push	ebp
c0102ec7: 89 e5                        	mov	ebp, esp
c0102ec9: 83 ec 10                     	sub	esp, 16
c0102ecc: 8b 45 08                     	mov	eax, dword ptr [ebp + 8]
c0102ecf: ff 30                        	push	dword ptr [eax]
c0102ed1: a1 18 0e 11 c0               	mov	eax, dword ptr [3222343192]
c0102ed6: 8b 00                        	mov	eax, dword ptr [eax]
c0102ed8: 8b 40 4c                     	mov	eax, dword ptr [eax + 76]
c0102edb: ff 70 0c                     	push	dword ptr [eax + 12]
c0102ede: e8 b4 27 00 00               	call	0xc0105697 <filedesc_table_dup>
c0102ee3: c9                           	leave
c0102ee4: c3                           	ret

c0102ee5 <sys_dup2>:
c0102ee5: 55                           	push	ebp
c0102ee6: 89 e5                        	mov	ebp, esp
c0102ee8: 83 ec 0c                     	sub	esp, 12
c0102eeb: 8b 45 08                     	mov	eax, dword ptr [ebp + 8]
c0102eee: ff 70 04                     	push	dword ptr [eax + 4]
c0102ef1: ff 30                        	push	dword ptr [eax]
c0102ef3: a1 18 0e 11 c0               	mov	eax, dword ptr [3222343192]
c0102ef8: 8b 00                        	mov	eax, dword ptr [eax]
c0102efa: 8b 40 4c                     	mov	eax, dword ptr [eax + 76]
c0102efd: ff 70 0c                     	push	dword ptr [eax + 12]
c0102f00: e8 0f 28 00 00               	call	0xc0105714 <filedesc_table_dup2>
c0102f05: c9                           	leave
c0102f06: c3                           	ret

c0102f07 <sys_dup3>:
c0102f07: 55                           	push	ebp
c0102f08: 89 e5                        	mov	ebp, esp
c0102f0a: 83 ec 08                     	sub	esp, 8
c0102f0d: 8b 45 08                     	mov	eax, dword ptr [ebp + 8]
c0102f10: ff 70 08                     	push	dword ptr [eax + 8]
c0102f13: ff 70 04                     	push	dword ptr [eax + 4]
c0102f16: ff 30                        	push	dword ptr [eax]
c0102f18: a1 18 0e 11 c0               	mov	eax, dword ptr [3222343192]
c0102f1d: 8b 00                        	mov	eax, dword ptr [eax]
c0102f1f: 8b 40 4c                     	mov	eax, dword ptr [eax + 76]
c0102f22: ff 70 0c                     	push	dword ptr [eax + 12]
c0102f25: e8 6c 28 00 00               	call	0xc0105796 <filedesc_table_dup3>
c0102f2a: c9                           	leave
c0102f2b: c3                           	ret

c0102f2c <sys_isatty>:
c0102f2c: 55                           	push	ebp
c0102f2d: 89 e5                        	mov	ebp, esp
c0102f2f: 83 ec 10                     	sub	esp, 16
c0102f32: 8b 45 08                     	mov	eax, dword ptr [ebp + 8]
c0102f35: ff 30                        	push	dword ptr [eax]
c0102f37: a1 18 0e 11 c0               	mov	eax, dword ptr [3222343192]
c0102f3c: 8b 00                        	mov	eax, dword ptr [eax]
c0102f3e: 8b 40 4c                     	mov	eax, dword ptr [eax + 76]
c0102f41: ff 70 0c                     	push	dword ptr [eax + 12]
c0102f44: e8 06 26 00 00               	call	0xc010554f <filedesc_get_open_file>
c0102f49: 83 c4 10                     	add	esp, 16
c0102f4c: 89 c2                        	mov	edx, eax
c0102f4e: b8 14 00 00 00               	mov	eax, 20
c0102f53: 85 d2                        	test	edx, edx
c0102f55: 74 16                        	je	0xc0102f6d <sys_isatty+0x41>
c0102f57: 83 ec 0c                     	sub	esp, 12
c0102f5a: ff 72 5c                     	push	dword ptr [edx + 92]
c0102f5d: e8 4e 37 00 00               	call	0xc01066b0 <vnode_op_is_tty>
c0102f62: 83 c4 10                     	add	esp, 16
c0102f65: 83 f8 01                     	cmp	eax, 1
c0102f68: 19 c0                        	sbb	eax, eax
c0102f6a: 83 e0 15                     	and	eax, 21
c0102f6d: c9                           	leave
c0102f6e: c3                           	ret

c0102f6f <sys_lseek>:
c0102f6f: 55                           	push	ebp
c0102f70: 89 e5                        	mov	ebp, esp
c0102f72: 57                           	push	edi
c0102f73: 56                           	push	esi
c0102f74: 53                           	push	ebx
c0102f75: 8d 5d 8c                     	lea	ebx, [ebp - 116]
c0102f78: 81 ec 94 00 00 00            	sub	esp, 148
c0102f7e: 8b 7d 08                     	mov	edi, dword ptr [ebp + 8]
c0102f81: 6a 01                        	push	1
c0102f83: 6a 01                        	push	1
c0102f85: 6a 00                        	push	0
c0102f87: 6a 04                        	push	4
c0102f89: ff 77 04                     	push	dword ptr [edi + 4]
c0102f8c: 53                           	push	ebx
c0102f8d: e8 8d 29 00 00               	call	0xc010591f <uio_construct>
c0102f92: 58                           	pop	eax
c0102f93: 8d 45 88                     	lea	eax, [ebp - 120]
c0102f96: 5a                           	pop	edx
c0102f97: 6a 04                        	push	4
c0102f99: 53                           	push	ebx
c0102f9a: 50                           	push	eax
c0102f9b: e8 44 28 00 00               	call	0xc01057e4 <uio_move>
c0102fa0: 83 c4 20                     	add	esp, 32
c0102fa3: 85 c0                        	test	eax, eax
c0102fa5: 0f 85 b9 00 00 00            	jne	0xc0103064 <sys_lseek+0xf5>
c0102fab: 50                           	push	eax
c0102fac: 50                           	push	eax
c0102fad: ff 37                        	push	dword ptr [edi]
c0102faf: a1 18 0e 11 c0               	mov	eax, dword ptr [3222343192]
c0102fb4: 8b 00                        	mov	eax, dword ptr [eax]
c0102fb6: 8b 40 4c                     	mov	eax, dword ptr [eax + 76]
c0102fb9: ff 70 0c                     	push	dword ptr [eax + 12]
c0102fbc: e8 8e 25 00 00               	call	0xc010554f <filedesc_get_open_file>
c0102fc1: 83 c4 10                     	add	esp, 16
c0102fc4: 89 c6                        	mov	esi, eax
c0102fc6: 85 c0                        	test	eax, eax
c0102fc8: 75 0a                        	jne	0xc0102fd4 <sys_lseek+0x65>
c0102fca: b8 07 00 00 00               	mov	eax, 7
c0102fcf: e9 90 00 00 00               	jmp	0xc0103064 <sys_lseek+0xf5>
c0102fd4: 83 ec 0c                     	sub	esp, 12
c0102fd7: ff 70 5c                     	push	dword ptr [eax + 92]
c0102fda: e8 86 37 00 00               	call	0xc0106765 <vnode_op_dirent_type>
c0102fdf: 83 c4 10                     	add	esp, 16
c0102fe2: 0f b6 c0                     	movzx	eax, al
c0102fe5: 8d 50 fd                     	lea	edx, [eax - 3]
c0102fe8: b8 1b 00 00 00               	mov	eax, 27
c0102fed: 83 fa 01                     	cmp	edx, 1
c0102ff0: 76 72                        	jbe	0xc0103064 <sys_lseek+0xf5>
c0102ff2: 8b 47 08                     	mov	eax, dword ptr [edi + 8]
c0102ff5: 8b 56 08                     	mov	edx, dword ptr [esi + 8]
c0102ff8: 83 f8 01                     	cmp	eax, 1
c0102ffb: 75 05                        	jne	0xc0103002 <sys_lseek+0x93>
c0102ffd: 01 55 88                     	add	dword ptr [ebp - 120], edx
c0103000: eb 26                        	jmp	0xc0103028 <sys_lseek+0xb9>
c0103002: 83 f8 02                     	cmp	eax, 2
c0103005: 75 1d                        	jne	0xc0103024 <sys_lseek+0xb5>
c0103007: 50                           	push	eax
c0103008: 50                           	push	eax
c0103009: 8d 45 a0                     	lea	eax, [ebp - 96]
c010300c: 50                           	push	eax
c010300d: ff 76 5c                     	push	dword ptr [esi + 92]
c0103010: e8 6f 37 00 00               	call	0xc0106784 <vnode_op_stat>
c0103015: 83 c4 10                     	add	esp, 16
c0103018: 85 c0                        	test	eax, eax
c010301a: 75 48                        	jne	0xc0103064 <sys_lseek+0xf5>
c010301c: 8b 45 c4                     	mov	eax, dword ptr [ebp - 60]
c010301f: 01 45 88                     	add	dword ptr [ebp - 120], eax
c0103022: eb 04                        	jmp	0xc0103028 <sys_lseek+0xb9>
c0103024: 85 c0                        	test	eax, eax
c0103026: 75 a2                        	jne	0xc0102fca <sys_lseek+0x5b>
c0103028: 8b 45 88                     	mov	eax, dword ptr [ebp - 120]
c010302b: 89 46 08                     	mov	dword ptr [esi + 8], eax
c010302e: 8d b5 68 ff ff ff            	lea	esi, [ebp - 152]
c0103034: 50                           	push	eax
c0103035: 50                           	push	eax
c0103036: 6a 01                        	push	1
c0103038: 6a 00                        	push	0
c010303a: 6a 00                        	push	0
c010303c: 6a 04                        	push	4
c010303e: ff 77 04                     	push	dword ptr [edi + 4]
c0103041: 89 df                        	mov	edi, ebx
c0103043: 56                           	push	esi
c0103044: e8 d6 28 00 00               	call	0xc010591f <uio_construct>
c0103049: b9 05 00 00 00               	mov	ecx, 5
c010304e: 8d 45 8c                     	lea	eax, [ebp - 116]
c0103051: f3 a5                        	rep		movsd	dword ptr es:[edi], dword ptr [esi]
c0103053: 5a                           	pop	edx
c0103054: 59                           	pop	ecx
c0103055: 6a 04                        	push	4
c0103057: 50                           	push	eax
c0103058: 8d 45 88                     	lea	eax, [ebp - 120]
c010305b: 50                           	push	eax
c010305c: e8 83 27 00 00               	call	0xc01057e4 <uio_move>
c0103061: 83 c4 20                     	add	esp, 32
c0103064: 8d 65 f4                     	lea	esp, [ebp - 12]
c0103067: 5b                           	pop	ebx
c0103068: 5e                           	pop	esi
c0103069: 5f                           	pop	edi
c010306a: 5d                           	pop	ebp
c010306b: c3                           	ret

c010306c <sys_open>:
c010306c: 55                           	push	ebp
c010306d: 89 e5                        	mov	ebp, esp
c010306f: 56                           	push	esi
c0103070: 53                           	push	ebx
c0103071: 8d b5 f8 fd ff ff            	lea	esi, [ebp - 520]
c0103077: 81 ec 24 02 00 00            	sub	esp, 548
c010307d: 8b 5d 08                     	mov	ebx, dword ptr [ebp + 8]
c0103080: 68 ff 01 00 00               	push	511
c0103085: ff 33                        	push	dword ptr [ebx]
c0103087: 56                           	push	esi
c0103088: e8 37 28 00 00               	call	0xc01058c4 <uio_move_string_from_usermode>
c010308d: 83 c4 10                     	add	esp, 16
c0103090: 85 c0                        	test	eax, eax
c0103092: 75 74                        	jne	0xc0103108 <sys_open+0x9c>
c0103094: 8d 85 dc fd ff ff            	lea	eax, [ebp - 548]
c010309a: 50                           	push	eax
c010309b: ff 73 08                     	push	dword ptr [ebx + 8]
c010309e: ff 73 04                     	push	dword ptr [ebx + 4]
c01030a1: 56                           	push	esi
c01030a2: e8 24 32 00 00               	call	0xc01062cb <vfs_open>
c01030a7: 83 c4 10                     	add	esp, 16
c01030aa: 85 c0                        	test	eax, eax
c01030ac: 75 5a                        	jne	0xc0103108 <sys_open+0x9c>
c01030ae: 56                           	push	esi
c01030af: 56                           	push	esi
c01030b0: ff b5 dc fd ff ff            	push	dword ptr [ebp - 548]
c01030b6: a1 18 0e 11 c0               	mov	eax, dword ptr [3222343192]
c01030bb: 8b 00                        	mov	eax, dword ptr [eax]
c01030bd: 8b 40 4c                     	mov	eax, dword ptr [eax + 76]
c01030c0: ff 70 0c                     	push	dword ptr [eax + 12]
c01030c3: e8 cf 24 00 00               	call	0xc0105597 <filedesc_table_register_file>
c01030c8: 83 c4 10                     	add	esp, 16
c01030cb: 89 c2                        	mov	edx, eax
c01030cd: 89 85 e0 fd ff ff            	mov	dword ptr [ebp - 544], eax
c01030d3: b8 18 00 00 00               	mov	eax, 24
c01030d8: 42                           	inc	edx
c01030d9: 74 2d                        	je	0xc0103108 <sys_open+0x9c>
c01030db: 8d b5 e4 fd ff ff            	lea	esi, [ebp - 540]
c01030e1: 50                           	push	eax
c01030e2: 50                           	push	eax
c01030e3: 6a 01                        	push	1
c01030e5: 6a 00                        	push	0
c01030e7: 6a 00                        	push	0
c01030e9: 6a 04                        	push	4
c01030eb: ff 73 0c                     	push	dword ptr [ebx + 12]
c01030ee: 56                           	push	esi
c01030ef: e8 2b 28 00 00               	call	0xc010591f <uio_construct>
c01030f4: 8d 85 e0 fd ff ff            	lea	eax, [ebp - 544]
c01030fa: 5a                           	pop	edx
c01030fb: 59                           	pop	ecx
c01030fc: 6a 04                        	push	4
c01030fe: 56                           	push	esi
c01030ff: 50                           	push	eax
c0103100: e8 df 26 00 00               	call	0xc01057e4 <uio_move>
c0103105: 83 c4 20                     	add	esp, 32
c0103108: 8d 65 f8                     	lea	esp, [ebp - 8]
c010310b: 5b                           	pop	ebx
c010310c: 5e                           	pop	esi
c010310d: 5d                           	pop	ebp
c010310e: c3                           	ret

c010310f <sys_read>:
c010310f: 55                           	push	ebp
c0103110: 89 e5                        	mov	ebp, esp
c0103112: 57                           	push	edi
c0103113: 56                           	push	esi
c0103114: 53                           	push	ebx
c0103115: 83 ec 54                     	sub	esp, 84
c0103118: 8b 7d 08                     	mov	edi, dword ptr [ebp + 8]
c010311b: ff 77 08                     	push	dword ptr [edi + 8]
c010311e: a1 18 0e 11 c0               	mov	eax, dword ptr [3222343192]
c0103123: 8b 00                        	mov	eax, dword ptr [eax]
c0103125: 8b 40 4c                     	mov	eax, dword ptr [eax + 76]
c0103128: ff 70 0c                     	push	dword ptr [eax + 12]
c010312b: e8 1f 24 00 00               	call	0xc010554f <filedesc_get_open_file>
c0103130: 83 c4 10                     	add	esp, 16
c0103133: 89 c6                        	mov	esi, eax
c0103135: b8 14 00 00 00               	mov	eax, 20
c010313a: 85 f6                        	test	esi, esi
c010313c: 74 63                        	je	0xc01031a1 <sys_read+0x92>
c010313e: 8d 5d d4                     	lea	ebx, [ebp - 44]
c0103141: 50                           	push	eax
c0103142: 50                           	push	eax
c0103143: 6a 01                        	push	1
c0103145: 6a 00                        	push	0
c0103147: ff 76 08                     	push	dword ptr [esi + 8]
c010314a: ff 77 04                     	push	dword ptr [edi + 4]
c010314d: ff 37                        	push	dword ptr [edi]
c010314f: 53                           	push	ebx
c0103150: e8 ca 27 00 00               	call	0xc010591f <uio_construct>
c0103155: 89 1c 24                     	mov	dword ptr [esp], ebx
c0103158: 56                           	push	esi
c0103159: e8 ee 2d 00 00               	call	0xc0105f4c <vfs_read>
c010315e: 83 c4 20                     	add	esp, 32
c0103161: 85 c0                        	test	eax, eax
c0103163: 75 3c                        	jne	0xc01031a1 <sys_read+0x92>
c0103165: 8b 47 04                     	mov	eax, dword ptr [edi + 4]
c0103168: 2b 45 d8                     	sub	eax, dword ptr [ebp - 40]
c010316b: 01 46 08                     	add	dword ptr [esi + 8], eax
c010316e: 8d 75 a8                     	lea	esi, [ebp - 88]
c0103171: 89 45 d0                     	mov	dword ptr [ebp - 48], eax
c0103174: 50                           	push	eax
c0103175: 50                           	push	eax
c0103176: 6a 01                        	push	1
c0103178: 6a 00                        	push	0
c010317a: 6a 00                        	push	0
c010317c: 6a 04                        	push	4
c010317e: ff 77 0c                     	push	dword ptr [edi + 12]
c0103181: 89 df                        	mov	edi, ebx
c0103183: 56                           	push	esi
c0103184: e8 96 27 00 00               	call	0xc010591f <uio_construct>
c0103189: b9 05 00 00 00               	mov	ecx, 5
c010318e: 8d 45 d0                     	lea	eax, [ebp - 48]
c0103191: f3 a5                        	rep		movsd	dword ptr es:[edi], dword ptr [esi]
c0103193: 5a                           	pop	edx
c0103194: 59                           	pop	ecx
c0103195: 6a 04                        	push	4
c0103197: 53                           	push	ebx
c0103198: 50                           	push	eax
c0103199: e8 46 26 00 00               	call	0xc01057e4 <uio_move>
c010319e: 83 c4 20                     	add	esp, 32
c01031a1: 8d 65 f4                     	lea	esp, [ebp - 12]
c01031a4: 5b                           	pop	ebx
c01031a5: 5e                           	pop	esi
c01031a6: 5f                           	pop	edi
c01031a7: 5d                           	pop	ebp
c01031a8: c3                           	ret

c01031a9 <sys_sbrk>:
c01031a9: 55                           	push	ebp
c01031aa: b8 01 00 00 00               	mov	eax, 1
c01031af: 89 e5                        	mov	ebp, esp
c01031b1: 57                           	push	edi
c01031b2: 56                           	push	esi
c01031b3: 53                           	push	ebx
c01031b4: 83 ec 5c                     	sub	esp, 92
c01031b7: 8b 7d 08                     	mov	edi, dword ptr [ebp + 8]
c01031ba: 8b 5f 04                     	mov	ebx, dword ptr [edi + 4]
c01031bd: 85 db                        	test	ebx, ebx
c01031bf: 0f 85 d0 00 00 00            	jne	0xc0103295 <sys_sbrk+0xec>
c01031c5: 8d 45 d4                     	lea	eax, [ebp - 44]
c01031c8: 51                           	push	ecx
c01031c9: 51                           	push	ecx
c01031ca: 6a 01                        	push	1
c01031cc: 6a 00                        	push	0
c01031ce: 6a 00                        	push	0
c01031d0: 6a 04                        	push	4
c01031d2: ff 77 08                     	push	dword ptr [edi + 8]
c01031d5: 50                           	push	eax
c01031d6: e8 44 27 00 00               	call	0xc010591f <uio_construct>
c01031db: a1 18 0e 11 c0               	mov	eax, dword ptr [3222343192]
c01031e0: 8b 00                        	mov	eax, dword ptr [eax]
c01031e2: 8b 40 4c                     	mov	eax, dword ptr [eax + 76]
c01031e5: 8b 40 58                     	mov	eax, dword ptr [eax + 88]
c01031e8: 89 45 cc                     	mov	dword ptr [ebp - 52], eax
c01031eb: 5e                           	pop	esi
c01031ec: 58                           	pop	eax
c01031ed: 8d 45 d4                     	lea	eax, [ebp - 44]
c01031f0: 6a 04                        	push	4
c01031f2: 50                           	push	eax
c01031f3: 8d 45 cc                     	lea	eax, [ebp - 52]
c01031f6: 50                           	push	eax
c01031f7: e8 e8 25 00 00               	call	0xc01057e4 <uio_move>
c01031fc: 83 c4 20                     	add	esp, 32
c01031ff: 85 c0                        	test	eax, eax
c0103201: 0f 85 8e 00 00 00            	jne	0xc0103295 <sys_sbrk+0xec>
c0103207: 83 ec 0c                     	sub	esp, 12
c010320a: ff 37                        	push	dword ptr [edi]
c010320c: e8 3c fb ff ff               	call	0xc0102d4d <virt_bytes_to_pages>
c0103211: 83 c4 10                     	add	esp, 16
c0103214: 89 c2                        	mov	edx, eax
c0103216: a1 18 0e 11 c0               	mov	eax, dword ptr [3222343192]
c010321b: 8b 00                        	mov	eax, dword ptr [eax]
c010321d: 8b 40 4c                     	mov	eax, dword ptr [eax + 76]
c0103220: 8b 48 58                     	mov	ecx, dword ptr [eax + 88]
c0103223: 39 d3                        	cmp	ebx, edx
c0103225: 74 22                        	je	0xc0103249 <sys_sbrk+0xa0>
c0103227: 89 de                        	mov	esi, ebx
c0103229: 89 55 a4                     	mov	dword ptr [ebp - 92], edx
c010322c: 43                           	inc	ebx
c010322d: c1 e6 0c                     	shl	esi, 12
c0103230: 01 ce                        	add	esi, ecx
c0103232: e8 df f7 ff ff               	call	0xc0102a16 <vas_get_current_vas>
c0103237: 52                           	push	edx
c0103238: 6a 45                        	push	69
c010323a: 56                           	push	esi
c010323b: 50                           	push	eax
c010323c: e8 ff f8 ff ff               	call	0xc0102b40 <vas_reflag>
c0103241: 8b 55 a4                     	mov	edx, dword ptr [ebp - 92]
c0103244: 83 c4 10                     	add	esp, 16
c0103247: eb cd                        	jmp	0xc0103216 <sys_sbrk+0x6d>
c0103249: c1 e3 0c                     	shl	ebx, 12
c010324c: 8d 75 a8                     	lea	esi, [ebp - 88]
c010324f: 01 cb                        	add	ebx, ecx
c0103251: 89 58 58                     	mov	dword ptr [eax + 88], ebx
c0103254: 50                           	push	eax
c0103255: 50                           	push	eax
c0103256: 6a 01                        	push	1
c0103258: 6a 00                        	push	0
c010325a: 6a 00                        	push	0
c010325c: 6a 04                        	push	4
c010325e: ff 77 0c                     	push	dword ptr [edi + 12]
c0103261: 8d 7d d4                     	lea	edi, [ebp - 44]
c0103264: 56                           	push	esi
c0103265: e8 b5 26 00 00               	call	0xc010591f <uio_construct>
c010326a: a1 18 0e 11 c0               	mov	eax, dword ptr [3222343192]
c010326f: b9 05 00 00 00               	mov	ecx, 5
c0103274: f3 a5                        	rep		movsd	dword ptr es:[edi], dword ptr [esi]
c0103276: 8b 00                        	mov	eax, dword ptr [eax]
c0103278: 8b 40 4c                     	mov	eax, dword ptr [eax + 76]
c010327b: 8b 40 58                     	mov	eax, dword ptr [eax + 88]
c010327e: 89 45 d0                     	mov	dword ptr [ebp - 48], eax
c0103281: 8d 45 d4                     	lea	eax, [ebp - 44]
c0103284: 5a                           	pop	edx
c0103285: 59                           	pop	ecx
c0103286: 6a 04                        	push	4
c0103288: 50                           	push	eax
c0103289: 8d 45 d0                     	lea	eax, [ebp - 48]
c010328c: 50                           	push	eax
c010328d: e8 52 25 00 00               	call	0xc01057e4 <uio_move>
c0103292: 83 c4 20                     	add	esp, 32
c0103295: 8d 65 f4                     	lea	esp, [ebp - 12]
c0103298: 5b                           	pop	ebx
c0103299: 5e                           	pop	esi
c010329a: 5f                           	pop	edi
c010329b: 5d                           	pop	ebp
c010329c: c3                           	ret

c010329d <syscall_init>:
c010329d: 55                           	push	ebp
c010329e: 89 e5                        	mov	ebp, esp
c01032a0: 83 ec 0c                     	sub	esp, 12
c01032a3: 6a 40                        	push	64
c01032a5: 6a 00                        	push	0
c01032a7: 68 20 0c 11 c0               	push	3222342688
c01032ac: e8 c9 df ff ff               	call	0xc010127a <memset>
c01032b1: 83 c4 10                     	add	esp, 16
c01032b4: c7 05 20 0c 11 c0 36 35 10 c0	mov	dword ptr [-1072624608], 3222287670
c01032be: c7 05 24 0c 11 c0 5c 34 10 c0	mov	dword ptr [-1072624604], 3222287452
c01032c8: c7 05 28 0c 11 c0 6c 30 10 c0	mov	dword ptr [-1072624600], 3222286444
c01032d2: c7 05 2c 0c 11 c0 0f 31 10 c0	mov	dword ptr [-1072624596], 3222286607
c01032dc: c7 05 30 0c 11 c0 74 34 10 c0	mov	dword ptr [-1072624592], 3222287476
c01032e6: c7 05 34 0c 11 c0 6d 2e 10 c0	mov	dword ptr [-1072624588], 3222285933
c01032f0: c7 05 38 0c 11 c0 6f 2f 10 c0	mov	dword ptr [-1072624584], 3222286191
c01032fa: c7 05 3c 0c 11 c0 a9 31 10 c0	mov	dword ptr [-1072624580], 3222286761
c0103304: c7 05 40 0c 11 c0 2c 2f 10 c0	mov	dword ptr [-1072624576], 3222286124
c010330e: c7 05 44 0c 11 c0 c6 2e 10 c0	mov	dword ptr [-1072624572], 3222286022
c0103318: c7 05 48 0c 11 c0 e5 2e 10 c0	mov	dword ptr [-1072624568], 3222286053
c0103322: c7 05 4c 0c 11 c0 07 2f 10 c0	mov	dword ptr [-1072624564], 3222286087
c010332c: c7 05 50 0c 11 c0 68 33 10 c0	mov	dword ptr [-1072624560], 3222287208
c0103336: c7 05 54 0c 11 c0 d3 33 10 c0	mov	dword ptr [-1072624556], 3222287315
c0103340: c9                           	leave
c0103341: c3                           	ret

c0103342 <syscall_perform>:
c0103342: 55                           	push	ebp
c0103343: 89 e5                        	mov	ebp, esp
c0103345: 8b 45 08                     	mov	eax, dword ptr [ebp + 8]
c0103348: 8b 55 0c                     	mov	edx, dword ptr [ebp + 12]
c010334b: 83 f8 0f                     	cmp	eax, 15
c010334e: 77 11                        	ja	0xc0103361 <syscall_perform+0x1f>
c0103350: 8b 04 85 20 0c 11 c0         	mov	eax, dword ptr [4*eax - 1072624608]
c0103357: 85 c0                        	test	eax, eax
c0103359: 74 06                        	je	0xc0103361 <syscall_perform+0x1f>
c010335b: 89 55 08                     	mov	dword ptr [ebp + 8], edx
c010335e: 5d                           	pop	ebp
c010335f: ff e0                        	jmp	eax
c0103361: b8 01 00 00 00               	mov	eax, 1
c0103366: 5d                           	pop	ebp
c0103367: c3                           	ret

c0103368 <sys_tcgetattr>:
c0103368: 55                           	push	ebp
c0103369: 89 e5                        	mov	ebp, esp
c010336b: 57                           	push	edi
c010336c: 56                           	push	esi
c010336d: 53                           	push	ebx
c010336e: 83 ec 34                     	sub	esp, 52
c0103371: 8b 5d 08                     	mov	ebx, dword ptr [ebp + 8]
c0103374: ff 33                        	push	dword ptr [ebx]
c0103376: a1 18 0e 11 c0               	mov	eax, dword ptr [3222343192]
c010337b: 8b 00                        	mov	eax, dword ptr [eax]
c010337d: 8b 40 4c                     	mov	eax, dword ptr [eax + 76]
c0103380: ff 70 0c                     	push	dword ptr [eax + 12]
c0103383: e8 c7 21 00 00               	call	0xc010554f <filedesc_get_open_file>
c0103388: 83 c4 10                     	add	esp, 16
c010338b: 89 c2                        	mov	edx, eax
c010338d: b8 14 00 00 00               	mov	eax, 20
c0103392: 85 d2                        	test	edx, edx
c0103394: 74 35                        	je	0xc01033cb <sys_tcgetattr+0x63>
c0103396: 8b 42 5c                     	mov	eax, dword ptr [edx + 92]
c0103399: 8b 00                        	mov	eax, dword ptr [eax]
c010339b: 8b 70 0c                     	mov	esi, dword ptr [eax + 12]
c010339e: b8 15 00 00 00               	mov	eax, 21
c01033a3: 85 f6                        	test	esi, esi
c01033a5: 74 24                        	je	0xc01033cb <sys_tcgetattr+0x63>
c01033a7: 8d 7d d4                     	lea	edi, [ebp - 44]
c01033aa: 50                           	push	eax
c01033ab: 50                           	push	eax
c01033ac: 6a 01                        	push	1
c01033ae: 6a 00                        	push	0
c01033b0: 6a 00                        	push	0
c01033b2: 6a 50                        	push	80
c01033b4: ff 73 04                     	push	dword ptr [ebx + 4]
c01033b7: 57                           	push	edi
c01033b8: e8 62 25 00 00               	call	0xc010591f <uio_construct>
c01033bd: 5a                           	pop	edx
c01033be: 59                           	pop	ecx
c01033bf: 6a 50                        	push	80
c01033c1: 57                           	push	edi
c01033c2: 56                           	push	esi
c01033c3: e8 1c 24 00 00               	call	0xc01057e4 <uio_move>
c01033c8: 83 c4 20                     	add	esp, 32
c01033cb: 8d 65 f4                     	lea	esp, [ebp - 12]
c01033ce: 5b                           	pop	ebx
c01033cf: 5e                           	pop	esi
c01033d0: 5f                           	pop	edi
c01033d1: 5d                           	pop	ebp
c01033d2: c3                           	ret

c01033d3 <sys_tcsetattr>:
c01033d3: 55                           	push	ebp
c01033d4: 89 e5                        	mov	ebp, esp
c01033d6: 57                           	push	edi
c01033d7: 56                           	push	esi
c01033d8: 53                           	push	ebx
c01033d9: 81 ec 84 00 00 00            	sub	esp, 132
c01033df: 8b 5d 08                     	mov	ebx, dword ptr [ebp + 8]
c01033e2: ff 33                        	push	dword ptr [ebx]
c01033e4: a1 18 0e 11 c0               	mov	eax, dword ptr [3222343192]
c01033e9: 8b 00                        	mov	eax, dword ptr [eax]
c01033eb: 8b 40 4c                     	mov	eax, dword ptr [eax + 76]
c01033ee: ff 70 0c                     	push	dword ptr [eax + 12]
c01033f1: e8 59 21 00 00               	call	0xc010554f <filedesc_get_open_file>
c01033f6: 83 c4 10                     	add	esp, 16
c01033f9: 89 c2                        	mov	edx, eax
c01033fb: b8 14 00 00 00               	mov	eax, 20
c0103400: 85 d2                        	test	edx, edx
c0103402: 74 50                        	je	0xc0103454 <sys_tcsetattr+0x81>
c0103404: 83 7b 08 01                  	cmp	dword ptr [ebx + 8], 1
c0103408: b8 07 00 00 00               	mov	eax, 7
c010340d: 75 45                        	jne	0xc0103454 <sys_tcsetattr+0x81>
c010340f: 8b 42 5c                     	mov	eax, dword ptr [edx + 92]
c0103412: 8b 00                        	mov	eax, dword ptr [eax]
c0103414: 8b 70 0c                     	mov	esi, dword ptr [eax + 12]
c0103417: b8 15 00 00 00               	mov	eax, 21
c010341c: 85 f6                        	test	esi, esi
c010341e: 74 34                        	je	0xc0103454 <sys_tcsetattr+0x81>
c0103420: 8d 7d 84                     	lea	edi, [ebp - 124]
c0103423: 50                           	push	eax
c0103424: 50                           	push	eax
c0103425: 6a 01                        	push	1
c0103427: 6a 01                        	push	1
c0103429: 6a 00                        	push	0
c010342b: 6a 50                        	push	80
c010342d: ff 73 04                     	push	dword ptr [ebx + 4]
c0103430: 57                           	push	edi
c0103431: e8 e9 24 00 00               	call	0xc010591f <uio_construct>
c0103436: 8d 45 98                     	lea	eax, [ebp - 104]
c0103439: 5a                           	pop	edx
c010343a: 59                           	pop	ecx
c010343b: 6a 50                        	push	80
c010343d: 57                           	push	edi
c010343e: 50                           	push	eax
c010343f: e8 a0 23 00 00               	call	0xc01057e4 <uio_move>
c0103444: 83 c4 20                     	add	esp, 32
c0103447: 85 c0                        	test	eax, eax
c0103449: 75 09                        	jne	0xc0103454 <sys_tcsetattr+0x81>
c010344b: 8b 55 a4                     	mov	edx, dword ptr [ebp - 92]
c010344e: 83 e2 03                     	and	edx, 3
c0103451: 89 56 0c                     	mov	dword ptr [esi + 12], edx
c0103454: 8d 65 f4                     	lea	esp, [ebp - 12]
c0103457: 5b                           	pop	ebx
c0103458: 5e                           	pop	esi
c0103459: 5f                           	pop	edi
c010345a: 5d                           	pop	ebp
c010345b: c3                           	ret

c010345c <sys_terminate>:
c010345c: 55                           	push	ebp
c010345d: 89 e5                        	mov	ebp, esp
c010345f: 83 ec 08                     	sub	esp, 8
c0103462: e8 06 11 00 00               	call	0xc010456d <thread_terminate>
c0103467: 83 ec 0c                     	sub	esp, 12
c010346a: 68 1f a9 10 c0               	push	3222317343
c010346f: e8 d7 1d 00 00               	call	0xc010524b <panic>

c0103474 <sys_write>:
c0103474: 55                           	push	ebp
c0103475: 89 e5                        	mov	ebp, esp
c0103477: 57                           	push	edi
c0103478: 56                           	push	esi
c0103479: 53                           	push	ebx
c010347a: 81 ec 84 00 00 00            	sub	esp, 132
c0103480: 8b 7d 08                     	mov	edi, dword ptr [ebp + 8]
c0103483: ff 77 08                     	push	dword ptr [edi + 8]
c0103486: a1 18 0e 11 c0               	mov	eax, dword ptr [3222343192]
c010348b: 8b 00                        	mov	eax, dword ptr [eax]
c010348d: 8b 40 4c                     	mov	eax, dword ptr [eax + 76]
c0103490: ff 70 0c                     	push	dword ptr [eax + 12]
c0103493: e8 b7 20 00 00               	call	0xc010554f <filedesc_get_open_file>
c0103498: 83 c4 10                     	add	esp, 16
c010349b: 89 c6                        	mov	esi, eax
c010349d: b8 14 00 00 00               	mov	eax, 20
c01034a2: 85 f6                        	test	esi, esi
c01034a4: 0f 84 84 00 00 00            	je	0xc010352e <sys_write+0xba>
c01034aa: f6 46 0c 40                  	test	byte ptr [esi + 12], 64
c01034ae: 8d 5d a0                     	lea	ebx, [ebp - 96]
c01034b1: 74 18                        	je	0xc01034cb <sys_write+0x57>
c01034b3: 50                           	push	eax
c01034b4: 50                           	push	eax
c01034b5: 53                           	push	ebx
c01034b6: ff 76 5c                     	push	dword ptr [esi + 92]
c01034b9: e8 c6 32 00 00               	call	0xc0106784 <vnode_op_stat>
c01034be: 83 c4 10                     	add	esp, 16
c01034c1: 85 c0                        	test	eax, eax
c01034c3: 75 69                        	jne	0xc010352e <sys_write+0xba>
c01034c5: 8b 45 c4                     	mov	eax, dword ptr [ebp - 60]
c01034c8: 89 46 08                     	mov	dword ptr [esi + 8], eax
c01034cb: 50                           	push	eax
c01034cc: 50                           	push	eax
c01034cd: 6a 01                        	push	1
c01034cf: 6a 01                        	push	1
c01034d1: ff 76 08                     	push	dword ptr [esi + 8]
c01034d4: ff 77 04                     	push	dword ptr [edi + 4]
c01034d7: ff 37                        	push	dword ptr [edi]
c01034d9: 53                           	push	ebx
c01034da: e8 40 24 00 00               	call	0xc010591f <uio_construct>
c01034df: 89 1c 24                     	mov	dword ptr [esp], ebx
c01034e2: 56                           	push	esi
c01034e3: e8 01 2a 00 00               	call	0xc0105ee9 <vfs_write>
c01034e8: 83 c4 20                     	add	esp, 32
c01034eb: 85 c0                        	test	eax, eax
c01034ed: 75 3f                        	jne	0xc010352e <sys_write+0xba>
c01034ef: 8b 47 04                     	mov	eax, dword ptr [edi + 4]
c01034f2: 2b 45 a4                     	sub	eax, dword ptr [ebp - 92]
c01034f5: 01 46 08                     	add	dword ptr [esi + 8], eax
c01034f8: 8d b5 78 ff ff ff            	lea	esi, [ebp - 136]
c01034fe: 89 45 9c                     	mov	dword ptr [ebp - 100], eax
c0103501: 50                           	push	eax
c0103502: 50                           	push	eax
c0103503: 6a 01                        	push	1
c0103505: 6a 00                        	push	0
c0103507: 6a 00                        	push	0
c0103509: 6a 04                        	push	4
c010350b: ff 77 0c                     	push	dword ptr [edi + 12]
c010350e: 89 df                        	mov	edi, ebx
c0103510: 56                           	push	esi
c0103511: e8 09 24 00 00               	call	0xc010591f <uio_construct>
c0103516: b9 05 00 00 00               	mov	ecx, 5
c010351b: 8d 45 9c                     	lea	eax, [ebp - 100]
c010351e: f3 a5                        	rep		movsd	dword ptr es:[edi], dword ptr [esi]
c0103520: 5a                           	pop	edx
c0103521: 59                           	pop	ecx
c0103522: 6a 04                        	push	4
c0103524: 53                           	push	ebx
c0103525: 50                           	push	eax
c0103526: e8 b9 22 00 00               	call	0xc01057e4 <uio_move>
c010352b: 83 c4 20                     	add	esp, 32
c010352e: 8d 65 f4                     	lea	esp, [ebp - 12]
c0103531: 5b                           	pop	ebx
c0103532: 5e                           	pop	esi
c0103533: 5f                           	pop	edi
c0103534: 5d                           	pop	ebp
c0103535: c3                           	ret

c0103536 <sys_yield>:
c0103536: 55                           	push	ebp
c0103537: 89 e5                        	mov	ebp, esp
c0103539: 83 ec 08                     	sub	esp, 8
c010353c: e8 06 10 00 00               	call	0xc0104547 <thread_yield>
c0103541: 31 c0                        	xor	eax, eax
c0103543: c9                           	leave
c0103544: c3                           	ret

c0103545 <test_run>:
c0103545: 55                           	push	ebp
c0103546: 89 e5                        	mov	ebp, esp
c0103548: 56                           	push	esi
c0103549: 53                           	push	ebx
c010354a: 8b 75 08                     	mov	esi, dword ptr [ebp + 8]
c010354d: 31 db                        	xor	ebx, ebx
c010354f: 50                           	push	eax
c0103550: 50                           	push	eax
c0103551: 56                           	push	esi
c0103552: ff 34 dd 10 c0 10 c0         	push	dword ptr [8*ebx - 1072644080]
c0103559: e8 70 dd ff ff               	call	0xc01012ce <strcmp>
c010355e: 83 c4 10                     	add	esp, 16
c0103561: 85 c0                        	test	eax, eax
c0103563: 75 0f                        	jne	0xc0103574 <test_run+0x2f>
c0103565: 8b 04 dd 0c c0 10 c0         	mov	eax, dword ptr [8*ebx - 1072644084]
c010356c: 8d 65 f8                     	lea	esp, [ebp - 8]
c010356f: 5b                           	pop	ebx
c0103570: 5e                           	pop	esi
c0103571: 5d                           	pop	ebp
c0103572: ff e0                        	jmp	eax
c0103574: 43                           	inc	ebx
c0103575: 83 fb 03                     	cmp	ebx, 3
c0103578: 75 d5                        	jne	0xc010354f <test_run+0xa>
c010357a: c7 45 08 44 a9 10 c0         	mov	dword ptr [ebp + 8], 3222317380
c0103581: 8d 65 f8                     	lea	esp, [ebp - 8]
c0103584: 5b                           	pop	ebx
c0103585: 5e                           	pop	esi
c0103586: 5d                           	pop	ebp
c0103587: e9 f7 1a 00 00               	jmp	0xc0105083 <kprintf>

c010358c <cleaner_thread_task>:
c010358c: 55                           	push	ebp
c010358d: 89 e5                        	mov	ebp, esp
c010358f: 56                           	push	esi
c0103590: 53                           	push	ebx
c0103591: 83 ec 0c                     	sub	esp, 12
c0103594: 68 67 a9 10 c0               	push	3222317415
c0103599: e8 e5 1a 00 00               	call	0xc0105083 <kprintf>
c010359e: c7 04 24 00 0d 11 c0         	mov	dword ptr [esp], 3222342912
c01035a5: e8 d4 05 00 00               	call	0xc0103b7e <spinlock_acquire>
c01035aa: c7 04 24 04 00 00 00         	mov	dword ptr [esp], 4
c01035b1: e8 0f 0e 00 00               	call	0xc01043c5 <thread_block>
c01035b6: c7 04 24 7c a9 10 c0         	mov	dword ptr [esp], 3222317436
c01035bd: e8 c1 1a 00 00               	call	0xc0105083 <kprintf>
c01035c2: 8b 1d e0 0c 11 c0            	mov	ebx, dword ptr [-1072624416]
c01035c8: 83 c4 10                     	add	esp, 16
c01035cb: 85 db                        	test	ebx, ebx
c01035cd: 74 6e                        	je	0xc010363d <cleaner_thread_task+0xb1>
c01035cf: 83 ec 0c                     	sub	esp, 12
c01035d2: 8b 43 24                     	mov	eax, dword ptr [ebx + 36]
c01035d5: ff 73 48                     	push	dword ptr [ebx + 72]
c01035d8: a3 e0 0c 11 c0               	mov	dword ptr [3222342880], eax
c01035dd: e8 6b f7 ff ff               	call	0xc0102d4d <virt_bytes_to_pages>
c01035e2: 5e                           	pop	esi
c01035e3: 5a                           	pop	edx
c01035e4: 50                           	push	eax
c01035e5: 8b 43 04                     	mov	eax, dword ptr [ebx + 4]
c01035e8: 2b 43 48                     	sub	eax, dword ptr [ebx + 72]
c01035eb: 50                           	push	eax
c01035ec: e8 3d f8 ff ff               	call	0xc0102e2e <virt_free_backed_pages>
c01035f1: 8b 73 4c                     	mov	esi, dword ptr [ebx + 76]
c01035f4: 83 c4 10                     	add	esp, 16
c01035f7: 85 f6                        	test	esi, esi
c01035f9: 74 37                        	je	0xc0103632 <cleaner_thread_task+0xa6>
c01035fb: 52                           	push	edx
c01035fc: 52                           	push	edx
c01035fd: 53                           	push	ebx
c01035fe: ff 36                        	push	dword ptr [esi]
c0103600: e8 63 18 00 00               	call	0xc0104e68 <adt_list_remove_element>
c0103605: 59                           	pop	ecx
c0103606: ff 36                        	push	dword ptr [esi]
c0103608: e8 bd 17 00 00               	call	0xc0104dca <adt_list_size>
c010360d: 83 c4 10                     	add	esp, 16
c0103610: 85 c0                        	test	eax, eax
c0103612: 75 1e                        	jne	0xc0103632 <cleaner_thread_task+0xa6>
c0103614: 83 ec 0c                     	sub	esp, 12
c0103617: ff 76 08                     	push	dword ptr [esi + 8]
c010361a: e8 05 f4 ff ff               	call	0xc0102a24 <vas_destroy>
c010361f: 58                           	pop	eax
c0103620: ff 36                        	push	dword ptr [esi]
c0103622: e8 d5 16 00 00               	call	0xc0104cfc <adt_list_destroy>
c0103627: 89 34 24                     	mov	dword ptr [esp], esi
c010362a: e8 f5 ee ff ff               	call	0xc0102524 <free>
c010362f: 83 c4 10                     	add	esp, 16
c0103632: 83 ec 0c                     	sub	esp, 12
c0103635: 53                           	push	ebx
c0103636: e8 e9 ee ff ff               	call	0xc0102524 <free>
c010363b: eb 85                        	jmp	0xc01035c2 <cleaner_thread_task+0x36>
c010363d: 83 ec 0c                     	sub	esp, 12
c0103640: 68 00 0d 11 c0               	push	3222342912
c0103645: e8 39 05 00 00               	call	0xc0103b83 <spinlock_release>
c010364a: 83 c4 10                     	add	esp, 16
c010364d: e9 3f ff ff ff               	jmp	0xc0103591 <cleaner_thread_task+0x5>

c0103652 <cleaner_thread_init>:
c0103652: 55                           	push	ebp
c0103653: 89 e5                        	mov	ebp, esp
c0103655: 83 ec 08                     	sub	esp, 8
c0103658: e8 b9 f3 ff ff               	call	0xc0102a16 <vas_get_current_vas>
c010365d: 52                           	push	edx
c010365e: 50                           	push	eax
c010365f: 6a 00                        	push	0
c0103661: 68 8c 35 10 c0               	push	3222287756
c0103666: e8 3f 0b 00 00               	call	0xc01041aa <thread_create>
c010366b: 83 c4 10                     	add	esp, 16
c010366e: a3 60 0c 11 c0               	mov	dword ptr [3222342752], eax
c0103673: c9                           	leave
c0103674: c3                           	ret

c0103675 <cleaner_thread_awaken>:
c0103675: a1 60 0c 11 c0               	mov	eax, dword ptr [3222342752]
c010367a: 83 78 14 04                  	cmp	dword ptr [eax + 20], 4
c010367e: 75 11                        	jne	0xc0103691 <cleaner_thread_awaken+0x1c>
c0103680: 55                           	push	ebp
c0103681: 89 e5                        	mov	ebp, esp
c0103683: 83 ec 14                     	sub	esp, 20
c0103686: 50                           	push	eax
c0103687: e8 4f 0d 00 00               	call	0xc01043db <thread_unblock>
c010368c: 83 c4 10                     	add	esp, 16
c010368f: c9                           	leave
c0103690: c3                           	ret
c0103691: c3                           	ret

c0103692 <idle_function>:
c0103692: 55                           	push	ebp
c0103693: 89 e5                        	mov	ebp, esp
c0103695: 83 ec 14                     	sub	esp, 20
c0103698: 68 ff 00 00 00               	push	255
c010369d: e8 b8 11 00 00               	call	0xc010485a <thread_set_priority>
c01036a2: 83 c4 10                     	add	esp, 16
c01036a5: e8 5d 5a 00 00               	call	0xc0109107 <arch_stall_processor>
c01036aa: eb f9                        	jmp	0xc01036a5 <idle_function+0x13>

c01036ac <idle_thread_init>:
c01036ac: 55                           	push	ebp
c01036ad: 89 e5                        	mov	ebp, esp
c01036af: 83 ec 0c                     	sub	esp, 12
c01036b2: a1 18 0e 11 c0               	mov	eax, dword ptr [3222343192]
c01036b7: ff 70 04                     	push	dword ptr [eax + 4]
c01036ba: 6a 00                        	push	0
c01036bc: 68 92 36 10 c0               	push	3222288018
c01036c1: e8 e4 0a 00 00               	call	0xc01041aa <thread_create>
c01036c6: 83 c4 10                     	add	esp, 16
c01036c9: c9                           	leave
c01036ca: c3                           	ret

c01036cb <load_program>:
c01036cb: 55                           	push	ebp
c01036cc: 89 e5                        	mov	ebp, esp
c01036ce: 56                           	push	esi
c01036cf: 53                           	push	ebx
c01036d0: 8d 45 98                     	lea	eax, [ebp - 104]
c01036d3: 83 ec 60                     	sub	esp, 96
c01036d6: 50                           	push	eax
c01036d7: 6a 00                        	push	0
c01036d9: 6a 00                        	push	0
c01036db: ff 75 08                     	push	dword ptr [ebp + 8]
c01036de: e8 e8 2b 00 00               	call	0xc01062cb <vfs_open>
c01036e3: 83 c4 10                     	add	esp, 16
c01036e6: 89 c3                        	mov	ebx, eax
c01036e8: 85 c0                        	test	eax, eax
c01036ea: 0f 85 8e 00 00 00            	jne	0xc010377e <load_program+0xb3>
c01036f0: 8d 45 b0                     	lea	eax, [ebp - 80]
c01036f3: 53                           	push	ebx
c01036f4: 53                           	push	ebx
c01036f5: 50                           	push	eax
c01036f6: 8b 45 98                     	mov	eax, dword ptr [ebp - 104]
c01036f9: ff 70 5c                     	push	dword ptr [eax + 92]
c01036fc: e8 83 30 00 00               	call	0xc0106784 <vnode_op_stat>
c0103701: 83 c4 10                     	add	esp, 16
c0103704: 89 c3                        	mov	ebx, eax
c0103706: 85 c0                        	test	eax, eax
c0103708: 74 05                        	je	0xc010370f <load_program+0x44>
c010370a: 83 ec 0c                     	sub	esp, 12
c010370d: eb 64                        	jmp	0xc0103773 <load_program+0xa8>
c010370f: 83 ec 0c                     	sub	esp, 12
c0103712: ff 75 d4                     	push	dword ptr [ebp - 44]
c0103715: 8d 5d 9c                     	lea	ebx, [ebp - 100]
c0103718: e8 e8 ec ff ff               	call	0xc0102405 <malloc>
c010371d: 83 c4 0c                     	add	esp, 12
c0103720: ff 75 d4                     	push	dword ptr [ebp - 44]
c0103723: 6a 00                        	push	0
c0103725: 89 c6                        	mov	esi, eax
c0103727: 50                           	push	eax
c0103728: e8 4d db ff ff               	call	0xc010127a <memset>
c010372d: 5a                           	pop	edx
c010372e: 59                           	pop	ecx
c010372f: 6a 00                        	push	0
c0103731: 6a 00                        	push	0
c0103733: 6a 00                        	push	0
c0103735: ff 75 d4                     	push	dword ptr [ebp - 44]
c0103738: 56                           	push	esi
c0103739: 53                           	push	ebx
c010373a: e8 e0 21 00 00               	call	0xc010591f <uio_construct>
c010373f: 89 1c 24                     	mov	dword ptr [esp], ebx
c0103742: ff 75 98                     	push	dword ptr [ebp - 104]
c0103745: e8 02 28 00 00               	call	0xc0105f4c <vfs_read>
c010374a: 83 c4 20                     	add	esp, 32
c010374d: 89 c3                        	mov	ebx, eax
c010374f: 85 c0                        	test	eax, eax
c0103751: 74 06                        	je	0xc0103759 <load_program+0x8e>
c0103753: 83 ec 0c                     	sub	esp, 12
c0103756: 56                           	push	esi
c0103757: eb 14                        	jmp	0xc010376d <load_program+0xa2>
c0103759: ff 75 10                     	push	dword ptr [ebp + 16]
c010375c: ff 75 0c                     	push	dword ptr [ebp + 12]
c010375f: ff 75 d4                     	push	dword ptr [ebp - 44]
c0103762: 56                           	push	esi
c0103763: e8 f4 47 00 00               	call	0xc0107f5c <arch_exec>
c0103768: 89 34 24                     	mov	dword ptr [esp], esi
c010376b: 89 c3                        	mov	ebx, eax
c010376d: e8 b2 ed ff ff               	call	0xc0102524 <free>
c0103772: 58                           	pop	eax
c0103773: ff 75 98                     	push	dword ptr [ebp - 104]
c0103776: e8 e1 29 00 00               	call	0xc010615c <vfs_close>
c010377b: 83 c4 10                     	add	esp, 16
c010377e: 8d 65 f8                     	lea	esp, [ebp - 8]
c0103781: 89 d8                        	mov	eax, ebx
c0103783: 5b                           	pop	ebx
c0103784: 5e                           	pop	esi
c0103785: 5d                           	pop	ebp
c0103786: c3                           	ret

c0103787 <load_driver>:
c0103787: 55                           	push	ebp
c0103788: 89 e5                        	mov	ebp, esp
c010378a: 57                           	push	edi
c010378b: 56                           	push	esi
c010378c: 53                           	push	ebx
c010378d: 83 ec 6c                     	sub	esp, 108
c0103790: 8b 7d 0c                     	mov	edi, dword ptr [ebp + 12]
c0103793: 8b 5d 08                     	mov	ebx, dword ptr [ebp + 8]
c0103796: 89 f8                        	mov	eax, edi
c0103798: 84 c0                        	test	al, al
c010379a: 75 10                        	jne	0xc01037ac <load_driver+0x25>
c010379c: 56                           	push	esi
c010379d: 56                           	push	esi
c010379e: 53                           	push	ebx
c010379f: 68 90 a9 10 c0               	push	3222317456
c01037a4: e8 da 18 00 00               	call	0xc0105083 <kprintf>
c01037a9: 83 c4 10                     	add	esp, 16
c01037ac: 8d 45 88                     	lea	eax, [ebp - 120]
c01037af: 50                           	push	eax
c01037b0: 6a 00                        	push	0
c01037b2: 6a 00                        	push	0
c01037b4: 53                           	push	ebx
c01037b5: e8 11 2b 00 00               	call	0xc01062cb <vfs_open>
c01037ba: 83 c4 10                     	add	esp, 16
c01037bd: 89 c3                        	mov	ebx, eax
c01037bf: 85 c0                        	test	eax, eax
c01037c1: 0f 85 c2 00 00 00            	jne	0xc0103889 <load_driver+0x102>
c01037c7: 8d 45 a0                     	lea	eax, [ebp - 96]
c01037ca: 51                           	push	ecx
c01037cb: 51                           	push	ecx
c01037cc: 50                           	push	eax
c01037cd: 8b 45 88                     	mov	eax, dword ptr [ebp - 120]
c01037d0: ff 70 5c                     	push	dword ptr [eax + 92]
c01037d3: e8 ac 2f 00 00               	call	0xc0106784 <vnode_op_stat>
c01037d8: 83 c4 10                     	add	esp, 16
c01037db: 89 c3                        	mov	ebx, eax
c01037dd: 85 c0                        	test	eax, eax
c01037df: 74 05                        	je	0xc01037e6 <load_driver+0x5f>
c01037e1: 83 ec 0c                     	sub	esp, 12
c01037e4: eb 4e                        	jmp	0xc0103834 <load_driver+0xad>
c01037e6: 83 ec 0c                     	sub	esp, 12
c01037e9: ff 75 c4                     	push	dword ptr [ebp - 60]
c01037ec: 8d 5d 8c                     	lea	ebx, [ebp - 116]
c01037ef: e8 11 ec ff ff               	call	0xc0102405 <malloc>
c01037f4: 83 c4 0c                     	add	esp, 12
c01037f7: ff 75 c4                     	push	dword ptr [ebp - 60]
c01037fa: 6a 00                        	push	0
c01037fc: 89 c6                        	mov	esi, eax
c01037fe: 50                           	push	eax
c01037ff: e8 76 da ff ff               	call	0xc010127a <memset>
c0103804: 58                           	pop	eax
c0103805: 5a                           	pop	edx
c0103806: 6a 00                        	push	0
c0103808: 6a 00                        	push	0
c010380a: 6a 00                        	push	0
c010380c: ff 75 c4                     	push	dword ptr [ebp - 60]
c010380f: 56                           	push	esi
c0103810: 53                           	push	ebx
c0103811: e8 09 21 00 00               	call	0xc010591f <uio_construct>
c0103816: 89 1c 24                     	mov	dword ptr [esp], ebx
c0103819: ff 75 88                     	push	dword ptr [ebp - 120]
c010381c: e8 2b 27 00 00               	call	0xc0105f4c <vfs_read>
c0103821: 83 c4 20                     	add	esp, 32
c0103824: 89 c3                        	mov	ebx, eax
c0103826: 85 c0                        	test	eax, eax
c0103828: 74 14                        	je	0xc010383e <load_driver+0xb7>
c010382a: 83 ec 0c                     	sub	esp, 12
c010382d: 56                           	push	esi
c010382e: e8 f1 ec ff ff               	call	0xc0102524 <free>
c0103833: 58                           	pop	eax
c0103834: ff 75 88                     	push	dword ptr [ebp - 120]
c0103837: e8 20 29 00 00               	call	0xc010615c <vfs_close>
c010383c: eb 48                        	jmp	0xc0103886 <load_driver+0xff>
c010383e: 83 ec 0c                     	sub	esp, 12
c0103841: ff 75 c4                     	push	dword ptr [ebp - 60]
c0103844: e8 04 f5 ff ff               	call	0xc0102d4d <virt_bytes_to_pages>
c0103849: 5a                           	pop	edx
c010384a: 89 fa                        	mov	edx, edi
c010384c: 59                           	pop	ecx
c010384d: 0f b6 fa                     	movzx	edi, dl
c0103850: c1 e7 05                     	shl	edi, 5
c0103853: 57                           	push	edi
c0103854: 50                           	push	eax
c0103855: e8 5b f5 ff ff               	call	0xc0102db5 <virt_allocate_backed_pages>
c010385a: 83 c4 0c                     	add	esp, 12
c010385d: 50                           	push	eax
c010385e: ff 75 c4                     	push	dword ptr [ebp - 60]
c0103861: 56                           	push	esi
c0103862: e8 bb 46 00 00               	call	0xc0107f22 <arch_load_driver>
c0103867: 89 34 24                     	mov	dword ptr [esp], esi
c010386a: 89 c3                        	mov	ebx, eax
c010386c: e8 b3 ec ff ff               	call	0xc0102524 <free>
c0103871: 5e                           	pop	esi
c0103872: ff 75 88                     	push	dword ptr [ebp - 120]
c0103875: e8 e2 28 00 00               	call	0xc010615c <vfs_close>
c010387a: 5f                           	pop	edi
c010387b: 58                           	pop	eax
c010387c: 6a 00                        	push	0
c010387e: 53                           	push	ebx
c010387f: e8 b7 46 00 00               	call	0xc0107f3b <arch_start_driver>
c0103884: 89 c3                        	mov	ebx, eax
c0103886: 83 c4 10                     	add	esp, 16
c0103889: 8d 65 f4                     	lea	esp, [ebp - 12]
c010388c: 89 d8                        	mov	eax, ebx
c010388e: 5b                           	pop	ebx
c010388f: 5e                           	pop	esi
c0103890: 5f                           	pop	edi
c0103891: 5d                           	pop	ebp
c0103892: c3                           	ret

c0103893 <process_create_child>:
c0103893: 55                           	push	ebp
c0103894: 89 e5                        	mov	ebp, esp
c0103896: 53                           	push	ebx
c0103897: 83 ec 10                     	sub	esp, 16
c010389a: 6a 5c                        	push	92
c010389c: e8 64 eb ff ff               	call	0xc0102405 <malloc>
c01038a1: 89 c3                        	mov	ebx, eax
c01038a3: e8 75 13 00 00               	call	0xc0104c1d <adt_list_create>
c01038a8: 89 03                        	mov	dword ptr [ebx], eax
c01038aa: 8b 45 08                     	mov	eax, dword ptr [ebp + 8]
c01038ad: 89 43 08                     	mov	dword ptr [ebx + 8], eax
c01038b0: 58                           	pop	eax
c01038b1: ff 75 0c                     	push	dword ptr [ebp + 12]
c01038b4: e8 58 1c 00 00               	call	0xc0105511 <filedes_table_copy>
c01038b9: 89 43 0c                     	mov	dword ptr [ebx + 12], eax
c01038bc: c7 04 24 80 0c 11 c0         	mov	dword ptr [esp], 3222342784
c01038c3: e8 b6 02 00 00               	call	0xc0103b7e <spinlock_acquire>
c01038c8: a1 24 c0 10 c0               	mov	eax, dword ptr [3222323236]
c01038cd: 89 43 04                     	mov	dword ptr [ebx + 4], eax
c01038d0: 8d 50 01                     	lea	edx, [eax + 1]
c01038d3: c7 04 24 80 0c 11 c0         	mov	dword ptr [esp], 3222342784
c01038da: 89 15 24 c0 10 c0            	mov	dword ptr [-1072644060], edx
c01038e0: e8 9e 02 00 00               	call	0xc0103b83 <spinlock_release>
c01038e5: 8d 43 10                     	lea	eax, [ebx + 16]
c01038e8: 5a                           	pop	edx
c01038e9: 59                           	pop	ecx
c01038ea: 68 ef a9 10 c0               	push	3222317551
c01038ef: 50                           	push	eax
c01038f0: e8 5a 02 00 00               	call	0xc0103b4f <spinlock_init>
c01038f5: 89 d8                        	mov	eax, ebx
c01038f7: 8b 5d fc                     	mov	ebx, dword ptr [ebp - 4]
c01038fa: c9                           	leave
c01038fb: c3                           	ret

c01038fc <process_create>:
c01038fc: 55                           	push	ebp
c01038fd: 89 e5                        	mov	ebp, esp
c01038ff: 53                           	push	ebx
c0103900: 50                           	push	eax
c0103901: e8 d1 1b 00 00               	call	0xc01054d7 <filedes_table_create>
c0103906: 89 c3                        	mov	ebx, eax
c0103908: e8 d5 f0 ff ff               	call	0xc01029e2 <vas_create>
c010390d: 52                           	push	edx
c010390e: 52                           	push	edx
c010390f: 53                           	push	ebx
c0103910: 50                           	push	eax
c0103911: e8 7d ff ff ff               	call	0xc0103893 <process_create_child>
c0103916: 8b 5d fc                     	mov	ebx, dword ptr [ebp - 4]
c0103919: c9                           	leave
c010391a: c3                           	ret

c010391b <process_kill>:
c010391b: b8 01 00 00 00               	mov	eax, 1
c0103920: c3                           	ret

c0103921 <process_add_thread>:
c0103921: 55                           	push	ebp
c0103922: 89 e5                        	mov	ebp, esp
c0103924: 57                           	push	edi
c0103925: 56                           	push	esi
c0103926: 53                           	push	ebx
c0103927: 83 ec 18                     	sub	esp, 24
c010392a: 8b 5d 08                     	mov	ebx, dword ptr [ebp + 8]
c010392d: 8b 7d 0c                     	mov	edi, dword ptr [ebp + 12]
c0103930: 8d 73 10                     	lea	esi, [ebx + 16]
c0103933: 56                           	push	esi
c0103934: e8 45 02 00 00               	call	0xc0103b7e <spinlock_acquire>
c0103939: 89 5f 4c                     	mov	dword ptr [edi + 76], ebx
c010393c: 58                           	pop	eax
c010393d: 5a                           	pop	edx
c010393e: 57                           	push	edi
c010393f: ff 33                        	push	dword ptr [ebx]
c0103941: e8 33 13 00 00               	call	0xc0104c79 <adt_list_add_back>
c0103946: 89 75 08                     	mov	dword ptr [ebp + 8], esi
c0103949: 83 c4 10                     	add	esp, 16
c010394c: 8d 65 f4                     	lea	esp, [ebp - 12]
c010394f: 5b                           	pop	ebx
c0103950: 5e                           	pop	esi
c0103951: 5f                           	pop	edi
c0103952: 5d                           	pop	ebp
c0103953: e9 2b 02 00 00               	jmp	0xc0103b83 <spinlock_release>

c0103958 <process_create_thread>:
c0103958: 55                           	push	ebp
c0103959: 89 e5                        	mov	ebp, esp
c010395b: 56                           	push	esi
c010395c: 83 ec 14                     	sub	esp, 20
c010395f: 8b 75 08                     	mov	esi, dword ptr [ebp + 8]
c0103962: e8 28 09 00 00               	call	0xc010428f <thread_postpone_switches>
c0103967: 50                           	push	eax
c0103968: ff 76 08                     	push	dword ptr [esi + 8]
c010396b: ff 75 10                     	push	dword ptr [ebp + 16]
c010396e: ff 75 0c                     	push	dword ptr [ebp + 12]
c0103971: e8 34 08 00 00               	call	0xc01041aa <thread_create>
c0103976: 5a                           	pop	edx
c0103977: 59                           	pop	ecx
c0103978: 50                           	push	eax
c0103979: 56                           	push	esi
c010397a: 89 45 f4                     	mov	dword ptr [ebp - 12], eax
c010397d: e8 9f ff ff ff               	call	0xc0103921 <process_add_thread>
c0103982: e8 94 0a 00 00               	call	0xc010441b <thread_end_postpone_switches>
c0103987: 8b 45 f4                     	mov	eax, dword ptr [ebp - 12]
c010398a: 8b 75 fc                     	mov	esi, dword ptr [ebp - 4]
c010398d: c9                           	leave
c010398e: c3                           	ret

c010398f <process_init>:
c010398f: 55                           	push	ebp
c0103990: 89 e5                        	mov	ebp, esp
c0103992: 83 ec 10                     	sub	esp, 16
c0103995: 68 fc a9 10 c0               	push	3222317564
c010399a: 68 80 0c 11 c0               	push	3222342784
c010399f: e8 ab 01 00 00               	call	0xc0103b4f <spinlock_init>
c01039a4: 83 c4 10                     	add	esp, 16
c01039a7: c9                           	leave
c01039a8: c3                           	ret

c01039a9 <signal_create_state>:
c01039a9: 55                           	push	ebp
c01039aa: 89 e5                        	mov	ebp, esp
c01039ac: 53                           	push	ebx
c01039ad: 83 ec 10                     	sub	esp, 16
c01039b0: 68 10 02 00 00               	push	528
c01039b5: e8 4b ea ff ff               	call	0xc0102405 <malloc>
c01039ba: 83 c4 0c                     	add	esp, 12
c01039bd: 68 10 02 00 00               	push	528
c01039c2: 89 c3                        	mov	ebx, eax
c01039c4: 6a 00                        	push	0
c01039c6: 50                           	push	eax
c01039c7: e8 ae d8 ff ff               	call	0xc010127a <memset>
c01039cc: 89 d8                        	mov	eax, ebx
c01039ce: 8b 5d fc                     	mov	ebx, dword ptr [ebp - 4]
c01039d1: c9                           	leave
c01039d2: c3                           	ret

c01039d3 <signal_install_handler>:
c01039d3: 55                           	push	ebp
c01039d4: b8 07 00 00 00               	mov	eax, 7
c01039d9: 89 e5                        	mov	ebp, esp
c01039db: 53                           	push	ebx
c01039dc: 8b 55 0c                     	mov	edx, dword ptr [ebp + 12]
c01039df: 8b 4d 10                     	mov	ecx, dword ptr [ebp + 16]
c01039e2: 89 d3                        	mov	ebx, edx
c01039e4: 83 e3 fb                     	and	ebx, -5
c01039e7: 83 fb 09                     	cmp	ebx, 9
c01039ea: 74 37                        	je	0xc0103a23 <signal_install_handler+0x50>
c01039ec: 83 fa 1b                     	cmp	edx, 27
c01039ef: 77 32                        	ja	0xc0103a23 <signal_install_handler+0x50>
c01039f1: 8b 45 08                     	mov	eax, dword ptr [ebp + 8]
c01039f4: 85 c9                        	test	ecx, ecx
c01039f6: 8d 5a 04                     	lea	ebx, [edx + 4]
c01039f9: 8b 40 50                     	mov	eax, dword ptr [eax + 80]
c01039fc: 75 07                        	jne	0xc0103a05 <signal_install_handler+0x32>
c01039fe: 31 d2                        	xor	edx, edx
c0103a00: 89 14 98                     	mov	dword ptr [eax + 4*ebx], edx
c0103a03: eb 1c                        	jmp	0xc0103a21 <signal_install_handler+0x4e>
c0103a05: 83 f9 01                     	cmp	ecx, 1
c0103a08: 75 09                        	jne	0xc0103a13 <signal_install_handler+0x40>
c0103a0a: c7 04 98 01 00 00 00         	mov	dword ptr [eax + 4*ebx], 1
c0103a11: eb 0e                        	jmp	0xc0103a21 <signal_install_handler+0x4e>
c0103a13: c7 04 98 02 00 00 00         	mov	dword ptr [eax + 4*ebx], 2
c0103a1a: 89 8c 90 10 01 00 00         	mov	dword ptr [eax + 4*edx + 272], ecx
c0103a21: 31 c0                        	xor	eax, eax
c0103a23: 5b                           	pop	ebx
c0103a24: 5d                           	pop	ebp
c0103a25: c3                           	ret

c0103a26 <signal_check>:
c0103a26: 55                           	push	ebp
c0103a27: 89 e5                        	mov	ebp, esp
c0103a29: 57                           	push	edi
c0103a2a: 56                           	push	esi
c0103a2b: 53                           	push	ebx
c0103a2c: 31 db                        	xor	ebx, ebx
c0103a2e: 83 ec 0c                     	sub	esp, 12
c0103a31: 8b 75 08                     	mov	esi, dword ptr [ebp + 8]
c0103a34: 8b 7e 50                     	mov	edi, dword ptr [esi + 80]
c0103a37: 8b 47 08                     	mov	eax, dword ptr [edi + 8]
c0103a3a: 8b 57 0c                     	mov	edx, dword ptr [edi + 12]
c0103a3d: 89 c1                        	mov	ecx, eax
c0103a3f: 83 e1 10                     	and	ecx, 16
c0103a42: 85 db                        	test	ebx, ebx
c0103a44: 75 04                        	jne	0xc0103a4a <signal_check+0x24>
c0103a46: 85 c9                        	test	ecx, ecx
c0103a48: 74 24                        	je	0xc0103a6e <signal_check+0x48>
c0103a4a: 25 ef df ff ff               	and	eax, 4294959087
c0103a4f: 89 57 0c                     	mov	dword ptr [edi + 12], edx
c0103a52: 89 47 08                     	mov	dword ptr [edi + 8], eax
c0103a55: 83 7e 14 03                  	cmp	dword ptr [esi + 20], 3
c0103a59: 75 0c                        	jne	0xc0103a67 <signal_check+0x41>
c0103a5b: 83 ec 0c                     	sub	esp, 12
c0103a5e: 56                           	push	esi
c0103a5f: e8 77 09 00 00               	call	0xc01043db <thread_unblock>
c0103a64: 83 c4 10                     	add	esp, 16
c0103a67: ba 04 00 00 00               	mov	edx, 4
c0103a6c: eb 36                        	jmp	0xc0103aa4 <signal_check+0x7e>
c0103a6e: 89 c1                        	mov	ecx, eax
c0103a70: 31 db                        	xor	ebx, ebx
c0103a72: 81 e1 00 20 00 00            	and	ecx, 8192
c0103a78: 85 db                        	test	ebx, ebx
c0103a7a: 75 04                        	jne	0xc0103a80 <signal_check+0x5a>
c0103a7c: 85 c9                        	test	ecx, ecx
c0103a7e: 74 09                        	je	0xc0103a89 <signal_check+0x63>
c0103a80: 83 e0 ef                     	and	eax, -17
c0103a83: 89 57 0c                     	mov	dword ptr [edi + 12], edx
c0103a86: 89 47 08                     	mov	dword ptr [edi + 8], eax
c0103a89: 8b 07                        	mov	eax, dword ptr [edi]
c0103a8b: 0b 47 04                     	or	eax, dword ptr [edi + 4]
c0103a8e: 0f 94 c0                     	sete	al
c0103a91: 31 d2                        	xor	edx, edx
c0103a93: 0f b6 c0                     	movzx	eax, al
c0103a96: 23 47 08                     	and	eax, dword ptr [edi + 8]
c0103a99: 23 57 0c                     	and	edx, dword ptr [edi + 12]
c0103a9c: 75 04                        	jne	0xc0103aa2 <signal_check+0x7c>
c0103a9e: 85 c0                        	test	eax, eax
c0103aa0: 74 0d                        	je	0xc0103aaf <signal_check+0x89>
c0103aa2: 31 d2                        	xor	edx, edx
c0103aa4: 8d 65 f4                     	lea	esp, [ebp - 12]
c0103aa7: 89 f0                        	mov	eax, esi
c0103aa9: 5b                           	pop	ebx
c0103aaa: 5e                           	pop	esi
c0103aab: 5f                           	pop	edi
c0103aac: 5d                           	pop	ebp
c0103aad: eb 0a                        	jmp	0xc0103ab9 <signal_get_handler>
c0103aaf: 8d 65 f4                     	lea	esp, [ebp - 12]
c0103ab2: 31 c0                        	xor	eax, eax
c0103ab4: 5b                           	pop	ebx
c0103ab5: 5e                           	pop	esi
c0103ab6: 5f                           	pop	edi
c0103ab7: 5d                           	pop	ebp
c0103ab8: c3                           	ret

c0103ab9 <signal_get_handler>:
c0103ab9: 55                           	push	ebp
c0103aba: 89 d1                        	mov	ecx, edx
c0103abc: 89 e5                        	mov	ebp, esp
c0103abe: 57                           	push	edi
c0103abf: 56                           	push	esi
c0103ac0: 53                           	push	ebx
c0103ac1: 89 c3                        	mov	ebx, eax
c0103ac3: 83 ec 0c                     	sub	esp, 12
c0103ac6: 8b 50 50                     	mov	edx, dword ptr [eax + 80]
c0103ac9: 8b 44 8a 10                  	mov	eax, dword ptr [edx + 4*ecx + 16]
c0103acd: 85 c0                        	test	eax, eax
c0103acf: 75 05                        	jne	0xc0103ad6 <signal_get_handler+0x1d>
c0103ad1: b8 05 00 00 00               	mov	eax, 5
c0103ad6: be fe ff ff ff               	mov	esi, 4294967294
c0103adb: d3 c6                        	rol	esi, cl
c0103add: 21 72 08                     	and	dword ptr [edx + 8], esi
c0103ae0: 89 f7                        	mov	edi, esi
c0103ae2: c1 ff 1f                     	sar	edi, 31
c0103ae5: 21 7a 0c                     	and	dword ptr [edx + 12], edi
c0103ae8: 83 f8 01                     	cmp	eax, 1
c0103aeb: 75 0d                        	jne	0xc0103afa <signal_get_handler+0x41>
c0103aed: 83 ec 0c                     	sub	esp, 12
c0103af0: 53                           	push	ebx
c0103af1: e8 30 ff ff ff               	call	0xc0103a26 <signal_check>
c0103af6: 89 c6                        	mov	esi, eax
c0103af8: eb 16                        	jmp	0xc0103b10 <signal_get_handler+0x57>
c0103afa: 83 f8 02                     	cmp	eax, 2
c0103afd: 75 16                        	jne	0xc0103b15 <signal_get_handler+0x5c>
c0103aff: 8b b4 8a 10 01 00 00         	mov	esi, dword ptr [edx + 4*ecx + 272]
c0103b06: 50                           	push	eax
c0103b07: 6a 00                        	push	0
c0103b09: 51                           	push	ecx
c0103b0a: 53                           	push	ebx
c0103b0b: e8 c3 fe ff ff               	call	0xc01039d3 <signal_install_handler>
c0103b10: 83 c4 10                     	add	esp, 16
c0103b13: eb 21                        	jmp	0xc0103b36 <signal_get_handler+0x7d>
c0103b15: be 3b 94 10 c0               	mov	esi, 3222311995
c0103b1a: 83 f8 05                     	cmp	eax, 5
c0103b1d: 74 17                        	je	0xc0103b36 <signal_get_handler+0x7d>
c0103b1f: be 3a 94 10 c0               	mov	esi, 3222311994
c0103b24: 83 f8 04                     	cmp	eax, 4
c0103b27: 74 0d                        	je	0xc0103b36 <signal_get_handler+0x7d>
c0103b29: 83 ec 0c                     	sub	esp, 12
c0103b2c: 68 0a aa 10 c0               	push	3222317578
c0103b31: e8 15 17 00 00               	call	0xc010524b <panic>
c0103b36: 8d 65 f4                     	lea	esp, [ebp - 12]
c0103b39: 89 f0                        	mov	eax, esi
c0103b3b: 5b                           	pop	ebx
c0103b3c: 5e                           	pop	esi
c0103b3d: 5f                           	pop	edi
c0103b3e: 5d                           	pop	ebp
c0103b3f: c3                           	ret

c0103b40 <spinlock_is_held>:
c0103b40: 55                           	push	ebp
c0103b41: 89 e5                        	mov	ebp, esp
c0103b43: 8b 45 08                     	mov	eax, dword ptr [ebp + 8]
c0103b46: 5d                           	pop	ebp
c0103b47: 8b 00                        	mov	eax, dword ptr [eax]
c0103b49: 85 c0                        	test	eax, eax
c0103b4b: 0f 95 c0                     	setne	al
c0103b4e: c3                           	ret

c0103b4f <spinlock_init>:
c0103b4f: 55                           	push	ebp
c0103b50: 31 d2                        	xor	edx, edx
c0103b52: 89 e5                        	mov	ebp, esp
c0103b54: 53                           	push	ebx
c0103b55: 83 ec 08                     	sub	esp, 8
c0103b58: 8b 5d 08                     	mov	ebx, dword ptr [ebp + 8]
c0103b5b: 8d 43 08                     	lea	eax, [ebx + 8]
c0103b5e: 89 13                        	mov	dword ptr [ebx], edx
c0103b60: c7 43 04 ff ff ff ff         	mov	dword ptr [ebx + 4], 4294967295
c0103b67: 6a 3f                        	push	63
c0103b69: ff 75 0c                     	push	dword ptr [ebp + 12]
c0103b6c: 50                           	push	eax
c0103b6d: e8 c2 d7 ff ff               	call	0xc0101334 <strncpy>
c0103b72: c6 43 47 00                  	mov	byte ptr [ebx + 71], 0
c0103b76: 83 c4 10                     	add	esp, 16
c0103b79: 8b 5d fc                     	mov	ebx, dword ptr [ebp - 4]
c0103b7c: c9                           	leave
c0103b7d: c3                           	ret

c0103b7e <spinlock_acquire>:
c0103b7e: e9 01 57 00 00               	jmp	0xc0109284 <arch_irq_spinlock_acquire>

c0103b83 <spinlock_release>:
c0103b83: e9 1b 57 00 00               	jmp	0xc01092a3 <arch_irq_spinlock_release>

c0103b88 <spinlock_acquire_if_unlocked>:
c0103b88: 55                           	push	ebp
c0103b89: 31 c0                        	xor	eax, eax
c0103b8b: 89 e5                        	mov	ebp, esp
c0103b8d: 83 ec 08                     	sub	esp, 8
c0103b90: 8b 55 08                     	mov	edx, dword ptr [ebp + 8]
c0103b93: 8b 0a                        	mov	ecx, dword ptr [edx]
c0103b95: 85 c9                        	test	ecx, ecx
c0103b97: 75 0e                        	jne	0xc0103ba7 <spinlock_acquire_if_unlocked+0x1f>
c0103b99: 83 ec 0c                     	sub	esp, 12
c0103b9c: 52                           	push	edx
c0103b9d: e8 e2 56 00 00               	call	0xc0109284 <arch_irq_spinlock_acquire>
c0103ba2: 83 c4 10                     	add	esp, 16
c0103ba5: b0 01                        	mov	al, 1
c0103ba7: c9                           	leave
c0103ba8: c3                           	ret

c0103ba9 <semaphore_create>:
c0103ba9: 55                           	push	ebp
c0103baa: 89 e5                        	mov	ebp, esp
c0103bac: 83 ec 14                     	sub	esp, 20
c0103baf: 6a 10                        	push	16
c0103bb1: e8 4f e8 ff ff               	call	0xc0102405 <malloc>
c0103bb6: 31 d2                        	xor	edx, edx
c0103bb8: 31 c9                        	xor	ecx, ecx
c0103bba: 89 50 04                     	mov	dword ptr [eax + 4], edx
c0103bbd: 8b 55 08                     	mov	edx, dword ptr [ebp + 8]
c0103bc0: 89 48 08                     	mov	dword ptr [eax + 8], ecx
c0103bc3: 89 10                        	mov	dword ptr [eax], edx
c0103bc5: 89 48 0c                     	mov	dword ptr [eax + 12], ecx
c0103bc8: c9                           	leave
c0103bc9: c3                           	ret

c0103bca <semaphore_destory>:
c0103bca: e9 55 e9 ff ff               	jmp	0xc0102524 <free>

c0103bcf <semaphore_acquire>:
c0103bcf: 55                           	push	ebp
c0103bd0: 89 e5                        	mov	ebp, esp
c0103bd2: 53                           	push	ebx
c0103bd3: 83 ec 10                     	sub	esp, 16
c0103bd6: 8b 5d 08                     	mov	ebx, dword ptr [ebp + 8]
c0103bd9: 68 00 0d 11 c0               	push	3222342912
c0103bde: e8 9b ff ff ff               	call	0xc0103b7e <spinlock_acquire>
c0103be3: 8b 43 04                     	mov	eax, dword ptr [ebx + 4]
c0103be6: 83 c4 10                     	add	esp, 16
c0103be9: 3b 03                        	cmp	eax, dword ptr [ebx]
c0103beb: 7d 06                        	jge	0xc0103bf3 <semaphore_acquire+0x24>
c0103bed: 40                           	inc	eax
c0103bee: 89 43 04                     	mov	dword ptr [ebx + 4], eax
c0103bf1: eb 3b                        	jmp	0xc0103c2e <semaphore_acquire+0x5f>
c0103bf3: e8 97 06 00 00               	call	0xc010428f <thread_postpone_switches>
c0103bf8: a1 18 0e 11 c0               	mov	eax, dword ptr [3222343192]
c0103bfd: 31 c9                        	xor	ecx, ecx
c0103bff: 8b 10                        	mov	edx, dword ptr [eax]
c0103c01: 89 4a 24                     	mov	dword ptr [edx + 36], ecx
c0103c04: 83 7b 08 00                  	cmp	dword ptr [ebx + 8], 0
c0103c08: 8b 10                        	mov	edx, dword ptr [eax]
c0103c0a: 75 05                        	jne	0xc0103c11 <semaphore_acquire+0x42>
c0103c0c: 89 53 08                     	mov	dword ptr [ebx + 8], edx
c0103c0f: eb 06                        	jmp	0xc0103c17 <semaphore_acquire+0x48>
c0103c11: 8b 4b 0c                     	mov	ecx, dword ptr [ebx + 12]
c0103c14: 89 51 24                     	mov	dword ptr [ecx + 36], edx
c0103c17: 8b 00                        	mov	eax, dword ptr [eax]
c0103c19: 83 ec 0c                     	sub	esp, 12
c0103c1c: 89 43 0c                     	mov	dword ptr [ebx + 12], eax
c0103c1f: 6a 05                        	push	5
c0103c21: e8 9f 07 00 00               	call	0xc01043c5 <thread_block>
c0103c26: e8 f0 07 00 00               	call	0xc010441b <thread_end_postpone_switches>
c0103c2b: 83 c4 10                     	add	esp, 16
c0103c2e: c7 45 08 00 0d 11 c0         	mov	dword ptr [ebp + 8], 3222342912
c0103c35: 8b 5d fc                     	mov	ebx, dword ptr [ebp - 4]
c0103c38: c9                           	leave
c0103c39: e9 45 ff ff ff               	jmp	0xc0103b83 <spinlock_release>

c0103c3e <semaphore_try_acquire>:
c0103c3e: 55                           	push	ebp
c0103c3f: 89 e5                        	mov	ebp, esp
c0103c41: 53                           	push	ebx
c0103c42: 83 ec 10                     	sub	esp, 16
c0103c45: 8b 5d 08                     	mov	ebx, dword ptr [ebp + 8]
c0103c48: 68 00 0d 11 c0               	push	3222342912
c0103c4d: e8 2c ff ff ff               	call	0xc0103b7e <spinlock_acquire>
c0103c52: 8b 43 04                     	mov	eax, dword ptr [ebx + 4]
c0103c55: 83 c4 10                     	add	esp, 16
c0103c58: 3b 03                        	cmp	eax, dword ptr [ebx]
c0103c5a: 7d 18                        	jge	0xc0103c74 <semaphore_try_acquire+0x36>
c0103c5c: 40                           	inc	eax
c0103c5d: 83 ec 0c                     	sub	esp, 12
c0103c60: 89 43 04                     	mov	dword ptr [ebx + 4], eax
c0103c63: 68 00 0d 11 c0               	push	3222342912
c0103c68: e8 16 ff ff ff               	call	0xc0103b83 <spinlock_release>
c0103c6d: 83 c4 10                     	add	esp, 16
c0103c70: 31 c0                        	xor	eax, eax
c0103c72: eb 15                        	jmp	0xc0103c89 <semaphore_try_acquire+0x4b>
c0103c74: 83 ec 0c                     	sub	esp, 12
c0103c77: 68 00 0d 11 c0               	push	3222342912
c0103c7c: e8 02 ff ff ff               	call	0xc0103b83 <spinlock_release>
c0103c81: 83 c4 10                     	add	esp, 16
c0103c84: b8 12 00 00 00               	mov	eax, 18
c0103c89: 8b 5d fc                     	mov	ebx, dword ptr [ebp - 4]
c0103c8c: c9                           	leave
c0103c8d: c3                           	ret

c0103c8e <semaphore_release>:
c0103c8e: 55                           	push	ebp
c0103c8f: 89 e5                        	mov	ebp, esp
c0103c91: 53                           	push	ebx
c0103c92: 83 ec 10                     	sub	esp, 16
c0103c95: 8b 5d 08                     	mov	ebx, dword ptr [ebp + 8]
c0103c98: 68 00 0d 11 c0               	push	3222342912
c0103c9d: e8 dc fe ff ff               	call	0xc0103b7e <spinlock_acquire>
c0103ca2: e8 e8 05 00 00               	call	0xc010428f <thread_postpone_switches>
c0103ca7: 8b 43 08                     	mov	eax, dword ptr [ebx + 8]
c0103caa: 83 c4 10                     	add	esp, 16
c0103cad: 85 c0                        	test	eax, eax
c0103caf: 74 19                        	je	0xc0103cca <semaphore_release+0x3c>
c0103cb1: 8b 50 24                     	mov	edx, dword ptr [eax + 36]
c0103cb4: 83 ec 0c                     	sub	esp, 12
c0103cb7: 89 53 08                     	mov	dword ptr [ebx + 8], edx
c0103cba: 31 d2                        	xor	edx, edx
c0103cbc: 89 50 24                     	mov	dword ptr [eax + 36], edx
c0103cbf: 50                           	push	eax
c0103cc0: e8 16 07 00 00               	call	0xc01043db <thread_unblock>
c0103cc5: 83 c4 10                     	add	esp, 16
c0103cc8: eb 03                        	jmp	0xc0103ccd <semaphore_release+0x3f>
c0103cca: ff 4b 04                     	dec	dword ptr [ebx + 4]
c0103ccd: e8 49 07 00 00               	call	0xc010441b <thread_end_postpone_switches>
c0103cd2: c7 45 08 00 0d 11 c0         	mov	dword ptr [ebp + 8], 3222342912
c0103cd9: 8b 5d fc                     	mov	ebx, dword ptr [ebp - 4]
c0103cdc: c9                           	leave
c0103cdd: e9 a1 fe ff ff               	jmp	0xc0103b83 <spinlock_release>

c0103ce2 <semaphore_set_count>:
c0103ce2: 55                           	push	ebp
c0103ce3: 89 e5                        	mov	ebp, esp
c0103ce5: 56                           	push	esi
c0103ce6: 53                           	push	ebx
c0103ce7: 8b 5d 08                     	mov	ebx, dword ptr [ebp + 8]
c0103cea: 8b 75 0c                     	mov	esi, dword ptr [ebp + 12]
c0103ced: 83 ec 0c                     	sub	esp, 12
c0103cf0: 68 00 0d 11 c0               	push	3222342912
c0103cf5: e8 84 fe ff ff               	call	0xc0103b7e <spinlock_acquire>
c0103cfa: 83 c4 10                     	add	esp, 16
c0103cfd: 83 7b 04 00                  	cmp	dword ptr [ebx + 4], 0
c0103d01: 74 0d                        	je	0xc0103d10 <semaphore_set_count+0x2e>
c0103d03: 83 ec 0c                     	sub	esp, 12
c0103d06: 68 1f aa 10 c0               	push	3222317599
c0103d0b: e8 3b 15 00 00               	call	0xc010524b <panic>
c0103d10: 89 73 04                     	mov	dword ptr [ebx + 4], esi
c0103d13: c7 45 08 00 0d 11 c0         	mov	dword ptr [ebp + 8], 3222342912
c0103d1a: 8d 65 f8                     	lea	esp, [ebp - 8]
c0103d1d: 5b                           	pop	ebx
c0103d1e: 5e                           	pop	esi
c0103d1f: 5d                           	pop	ebp
c0103d20: e9 5e fe ff ff               	jmp	0xc0103b83 <spinlock_release>

c0103d25 <rw_lock_create>:
c0103d25: 55                           	push	ebp
c0103d26: 89 e5                        	mov	ebp, esp
c0103d28: 53                           	push	ebx
c0103d29: 83 ec 10                     	sub	esp, 16
c0103d2c: 6a 0c                        	push	12
c0103d2e: e8 d2 e6 ff ff               	call	0xc0102405 <malloc>
c0103d33: 89 c3                        	mov	ebx, eax
c0103d35: 31 c0                        	xor	eax, eax
c0103d37: 89 43 08                     	mov	dword ptr [ebx + 8], eax
c0103d3a: c7 04 24 01 00 00 00         	mov	dword ptr [esp], 1
c0103d41: e8 63 fe ff ff               	call	0xc0103ba9 <semaphore_create>
c0103d46: 89 03                        	mov	dword ptr [ebx], eax
c0103d48: c7 04 24 01 00 00 00         	mov	dword ptr [esp], 1
c0103d4f: e8 55 fe ff ff               	call	0xc0103ba9 <semaphore_create>
c0103d54: 89 43 04                     	mov	dword ptr [ebx + 4], eax
c0103d57: 89 d8                        	mov	eax, ebx
c0103d59: 8b 5d fc                     	mov	ebx, dword ptr [ebp - 4]
c0103d5c: c9                           	leave
c0103d5d: c3                           	ret

c0103d5e <rw_lock_destroy>:
c0103d5e: 55                           	push	ebp
c0103d5f: 89 e5                        	mov	ebp, esp
c0103d61: 53                           	push	ebx
c0103d62: 83 ec 10                     	sub	esp, 16
c0103d65: 8b 5d 08                     	mov	ebx, dword ptr [ebp + 8]
c0103d68: ff 33                        	push	dword ptr [ebx]
c0103d6a: e8 b5 e7 ff ff               	call	0xc0102524 <free>
c0103d6f: 58                           	pop	eax
c0103d70: ff 73 04                     	push	dword ptr [ebx + 4]
c0103d73: e8 ac e7 ff ff               	call	0xc0102524 <free>
c0103d78: 89 5d 08                     	mov	dword ptr [ebp + 8], ebx
c0103d7b: 83 c4 10                     	add	esp, 16
c0103d7e: 8b 5d fc                     	mov	ebx, dword ptr [ebp - 4]
c0103d81: c9                           	leave
c0103d82: e9 9d e7 ff ff               	jmp	0xc0102524 <free>

c0103d87 <rw_lock_acquire_read>:
c0103d87: 55                           	push	ebp
c0103d88: 89 e5                        	mov	ebp, esp
c0103d8a: 53                           	push	ebx
c0103d8b: 83 ec 10                     	sub	esp, 16
c0103d8e: 8b 5d 08                     	mov	ebx, dword ptr [ebp + 8]
c0103d91: ff 73 04                     	push	dword ptr [ebx + 4]
c0103d94: e8 36 fe ff ff               	call	0xc0103bcf <semaphore_acquire>
c0103d99: 8b 43 08                     	mov	eax, dword ptr [ebx + 8]
c0103d9c: 83 c4 10                     	add	esp, 16
c0103d9f: 40                           	inc	eax
c0103da0: 89 43 08                     	mov	dword ptr [ebx + 8], eax
c0103da3: 48                           	dec	eax
c0103da4: 75 0d                        	jne	0xc0103db3 <rw_lock_acquire_read+0x2c>
c0103da6: 83 ec 0c                     	sub	esp, 12
c0103da9: ff 33                        	push	dword ptr [ebx]
c0103dab: e8 1f fe ff ff               	call	0xc0103bcf <semaphore_acquire>
c0103db0: 83 c4 10                     	add	esp, 16
c0103db3: 8b 43 04                     	mov	eax, dword ptr [ebx + 4]
c0103db6: 8b 5d fc                     	mov	ebx, dword ptr [ebp - 4]
c0103db9: 89 45 08                     	mov	dword ptr [ebp + 8], eax
c0103dbc: c9                           	leave
c0103dbd: e9 cc fe ff ff               	jmp	0xc0103c8e <semaphore_release>

c0103dc2 <rw_lock_release_read>:
c0103dc2: 55                           	push	ebp
c0103dc3: 89 e5                        	mov	ebp, esp
c0103dc5: 53                           	push	ebx
c0103dc6: 83 ec 10                     	sub	esp, 16
c0103dc9: 8b 5d 08                     	mov	ebx, dword ptr [ebp + 8]
c0103dcc: ff 73 04                     	push	dword ptr [ebx + 4]
c0103dcf: e8 fb fd ff ff               	call	0xc0103bcf <semaphore_acquire>
c0103dd4: 8b 43 08                     	mov	eax, dword ptr [ebx + 8]
c0103dd7: 83 c4 10                     	add	esp, 16
c0103dda: 48                           	dec	eax
c0103ddb: 89 43 08                     	mov	dword ptr [ebx + 8], eax
c0103dde: 85 c0                        	test	eax, eax
c0103de0: 75 0d                        	jne	0xc0103def <rw_lock_release_read+0x2d>
c0103de2: 83 ec 0c                     	sub	esp, 12
c0103de5: ff 33                        	push	dword ptr [ebx]
c0103de7: e8 a2 fe ff ff               	call	0xc0103c8e <semaphore_release>
c0103dec: 83 c4 10                     	add	esp, 16
c0103def: 8b 43 04                     	mov	eax, dword ptr [ebx + 4]
c0103df2: 8b 5d fc                     	mov	ebx, dword ptr [ebp - 4]
c0103df5: 89 45 08                     	mov	dword ptr [ebp + 8], eax
c0103df8: c9                           	leave
c0103df9: e9 90 fe ff ff               	jmp	0xc0103c8e <semaphore_release>

c0103dfe <rw_lock_acquire_write>:
c0103dfe: 55                           	push	ebp
c0103dff: 89 e5                        	mov	ebp, esp
c0103e01: 8b 45 08                     	mov	eax, dword ptr [ebp + 8]
c0103e04: 8b 00                        	mov	eax, dword ptr [eax]
c0103e06: 89 45 08                     	mov	dword ptr [ebp + 8], eax
c0103e09: 5d                           	pop	ebp
c0103e0a: e9 c0 fd ff ff               	jmp	0xc0103bcf <semaphore_acquire>

c0103e0f <rw_lock_release_write>:
c0103e0f: 55                           	push	ebp
c0103e10: 89 e5                        	mov	ebp, esp
c0103e12: 8b 45 08                     	mov	eax, dword ptr [ebp + 8]
c0103e15: 8b 00                        	mov	eax, dword ptr [eax]
c0103e17: 89 45 08                     	mov	dword ptr [ebp + 8], eax
c0103e1a: 5d                           	pop	ebp
c0103e1b: e9 6e fe ff ff               	jmp	0xc0103c8e <semaphore_release>

c0103e20 <thread_reset_timeslice>:
c0103e20: 55                           	push	ebp
c0103e21: 89 e5                        	mov	ebp, esp
c0103e23: 83 ec 14                     	sub	esp, 20
c0103e26: 68 60 0d 11 c0               	push	3222343008
c0103e2b: e8 4e fd ff ff               	call	0xc0103b7e <spinlock_acquire>
c0103e30: a1 18 0e 11 c0               	mov	eax, dword ptr [3222343192]
c0103e35: 8b 15 ac 0d 11 c0            	mov	edx, dword ptr [-1072624212]
c0103e3b: 8b 08                        	mov	ecx, dword ptr [eax]
c0103e3d: a1 a8 0d 11 c0               	mov	eax, dword ptr [3222343080]
c0103e42: 05 40 78 7d 01               	add	eax, 25000000
c0103e47: 83 d2 00                     	adc	edx, 0
c0103e4a: 89 41 40                     	mov	dword ptr [ecx + 64], eax
c0103e4d: 89 51 44                     	mov	dword ptr [ecx + 68], edx
c0103e50: c7 04 24 60 0d 11 c0         	mov	dword ptr [esp], 3222343008
c0103e57: e8 27 fd ff ff               	call	0xc0103b83 <spinlock_release>
c0103e5c: 83 c4 10                     	add	esp, 16
c0103e5f: c9                           	leave
c0103e60: c3                           	ret

c0103e61 <thread_create_kernel_stack>:
c0103e61: 55                           	push	ebp
c0103e62: 89 e5                        	mov	ebp, esp
c0103e64: 56                           	push	esi
c0103e65: 89 d6                        	mov	esi, edx
c0103e67: 53                           	push	ebx
c0103e68: 83 ec 0c                     	sub	esp, 12
c0103e6b: 50                           	push	eax
c0103e6c: e8 dc ee ff ff               	call	0xc0102d4d <virt_bytes_to_pages>
c0103e71: c7 04 24 00 20 00 00         	mov	dword ptr [esp], 8192
c0103e78: 89 c3                        	mov	ebx, eax
c0103e7a: e8 ce ee ff ff               	call	0xc0102d4d <virt_bytes_to_pages>
c0103e7f: 01 c3                        	add	ebx, eax
c0103e81: 58                           	pop	eax
c0103e82: 5a                           	pop	edx
c0103e83: 6a 21                        	push	33
c0103e85: 53                           	push	ebx
c0103e86: c1 e3 0c                     	shl	ebx, 12
c0103e89: e8 27 ef ff ff               	call	0xc0102db5 <virt_allocate_backed_pages>
c0103e8e: 83 c4 10                     	add	esp, 16
c0103e91: 89 06                        	mov	dword ptr [esi], eax
c0103e93: 01 c3                        	add	ebx, eax
c0103e95: 8d 90 00 20 00 00            	lea	edx, [eax + 8192]
c0103e9b: 89 c1                        	mov	ecx, eax
c0103e9d: 83 c0 04                     	add	eax, 4
c0103ea0: c7 01 0d f0 ad 8b            	mov	dword ptr [ecx], 2343432205
c0103ea6: 39 d0                        	cmp	eax, edx
c0103ea8: 75 f1                        	jne	0xc0103e9b <thread_create_kernel_stack+0x3a>
c0103eaa: 8d 65 f8                     	lea	esp, [ebp - 8]
c0103ead: 89 d8                        	mov	eax, ebx
c0103eaf: 5b                           	pop	ebx
c0103eb0: 5e                           	pop	esi
c0103eb1: 5d                           	pop	ebp
c0103eb2: c3                           	ret

c0103eb3 <thread_add_to_ready_list>:
c0103eb3: 31 c9                        	xor	ecx, ecx
c0103eb5: c7 40 14 01 00 00 00         	mov	dword ptr [eax + 20], 1
c0103ebc: 89 48 24                     	mov	dword ptr [eax + 36], ecx
c0103ebf: 8b 0d 14 0e 11 c0            	mov	ecx, dword ptr [-1072624108]
c0103ec5: 85 c9                        	test	ecx, ecx
c0103ec7: 75 07                        	jne	0xc0103ed0 <thread_add_to_ready_list+0x1d>
c0103ec9: a3 14 0e 11 c0               	mov	dword ptr [3222343188], eax
c0103ece: eb 16                        	jmp	0xc0103ee6 <thread_add_to_ready_list+0x33>
c0103ed0: 84 d2                        	test	dl, dl
c0103ed2: 74 09                        	je	0xc0103edd <thread_add_to_ready_list+0x2a>
c0103ed4: 89 48 24                     	mov	dword ptr [eax + 36], ecx
c0103ed7: a3 14 0e 11 c0               	mov	dword ptr [3222343188], eax
c0103edc: c3                           	ret
c0103edd: 8b 15 10 0e 11 c0            	mov	edx, dword ptr [-1072624112]
c0103ee3: 89 42 24                     	mov	dword ptr [edx + 36], eax
c0103ee6: a3 10 0e 11 c0               	mov	dword ptr [3222343184], eax
c0103eeb: c3                           	ret

c0103eec <thread_stack_check_canary>:
c0103eec: 55                           	push	ebp
c0103eed: 89 e5                        	mov	ebp, esp
c0103eef: 83 ec 08                     	sub	esp, 8
c0103ef2: 8b 45 08                     	mov	eax, dword ptr [ebp + 8]
c0103ef5: 8d 90 00 20 00 00            	lea	edx, [eax + 8192]
c0103efb: 89 c1                        	mov	ecx, eax
c0103efd: 83 c0 04                     	add	eax, 4
c0103f00: 81 39 0d f0 ad 8b            	cmp	dword ptr [ecx], 2343432205
c0103f06: 74 0d                        	je	0xc0103f15 <thread_stack_check_canary+0x29>
c0103f08: 83 ec 0c                     	sub	esp, 12
c0103f0b: 68 66 aa 10 c0               	push	3222317670
c0103f10: e8 36 13 00 00               	call	0xc010524b <panic>
c0103f15: 39 d0                        	cmp	eax, edx
c0103f17: 75 e2                        	jne	0xc0103efb <thread_stack_check_canary+0xf>
c0103f19: c9                           	leave
c0103f1a: c3                           	ret

c0103f1b <thread_execve>:
c0103f1b: 55                           	push	ebp
c0103f1c: 89 e5                        	mov	ebp, esp
c0103f1e: 56                           	push	esi
c0103f1f: 53                           	push	ebx
c0103f20: a1 18 0e 11 c0               	mov	eax, dword ptr [3222343192]
c0103f25: 8b 5d 08                     	mov	ebx, dword ptr [ebp + 8]
c0103f28: 8b 75 14                     	mov	esi, dword ptr [ebp + 20]
c0103f2b: 8b 00                        	mov	eax, dword ptr [eax]
c0103f2d: 83 ec 0c                     	sub	esp, 12
c0103f30: 8b 40 4c                     	mov	eax, dword ptr [eax + 76]
c0103f33: ff 70 0c                     	push	dword ptr [eax + 12]
c0103f36: e8 0a 17 00 00               	call	0xc0105645 <filedes_handle_exec>
c0103f3b: 83 c4 10                     	add	esp, 16
c0103f3e: 85 c0                        	test	eax, eax
c0103f40: 75 21                        	jne	0xc0103f63 <thread_execve+0x48>
c0103f42: a1 18 0e 11 c0               	mov	eax, dword ptr [3222343192]
c0103f47: 8b 00                        	mov	eax, dword ptr [eax]
c0103f49: 8b 40 4c                     	mov	eax, dword ptr [eax + 76]
c0103f4c: 89 75 0c                     	mov	dword ptr [ebp + 12], esi
c0103f4f: 89 5d 08                     	mov	dword ptr [ebp + 8], ebx
c0103f52: 83 c0 58                     	add	eax, 88
c0103f55: 89 45 10                     	mov	dword ptr [ebp + 16], eax
c0103f58: 8d 65 f8                     	lea	esp, [ebp - 8]
c0103f5b: 5b                           	pop	ebx
c0103f5c: 5e                           	pop	esi
c0103f5d: 5d                           	pop	ebp
c0103f5e: e9 68 f7 ff ff               	jmp	0xc01036cb <load_program>
c0103f63: 8d 65 f8                     	lea	esp, [ebp - 8]
c0103f66: 5b                           	pop	ebx
c0103f67: 5e                           	pop	esi
c0103f68: 5d                           	pop	ebp
c0103f69: c3                           	ret

c0103f6a <thread_init>:
c0103f6a: 55                           	push	ebp
c0103f6b: 89 e5                        	mov	ebp, esp
c0103f6d: 56                           	push	esi
c0103f6e: 53                           	push	ebx
c0103f6f: 50                           	push	eax
c0103f70: 50                           	push	eax
c0103f71: 68 86 aa 10 c0               	push	3222317702
c0103f76: 68 00 0d 11 c0               	push	3222342912
c0103f7b: e8 cf fb ff ff               	call	0xc0103b4f <spinlock_init>
c0103f80: 5a                           	pop	edx
c0103f81: 59                           	pop	ecx
c0103f82: 68 99 aa 10 c0               	push	3222317721
c0103f87: 68 c0 0d 11 c0               	push	3222343104
c0103f8c: e8 be fb ff ff               	call	0xc0103b4f <spinlock_init>
c0103f91: 5b                           	pop	ebx
c0103f92: 5e                           	pop	esi
c0103f93: 68 b5 aa 10 c0               	push	3222317749
c0103f98: 68 60 0d 11 c0               	push	3222343008
c0103f9d: e8 ad fb ff ff               	call	0xc0103b4f <spinlock_init>
c0103fa2: c7 04 24 54 00 00 00         	mov	dword ptr [esp], 84
c0103fa9: e8 57 e4 ff ff               	call	0xc0102405 <malloc>
c0103fae: c7 40 08 be ba fe ca         	mov	dword ptr [eax + 8], 3405691582
c0103fb5: 89 c3                        	mov	ebx, eax
c0103fb7: c7 40 18 de c0 ad de         	mov	dword ptr [eax + 24], 3735929054
c0103fbe: e8 53 ea ff ff               	call	0xc0102a16 <vas_get_current_vas>
c0103fc3: 89 43 0c                     	mov	dword ptr [ebx + 12], eax
c0103fc6: c7 04 24 00 20 00 00         	mov	dword ptr [esp], 8192
c0103fcd: e8 7b ed ff ff               	call	0xc0102d4d <virt_bytes_to_pages>
c0103fd2: 8d 53 3c                     	lea	edx, [ebx + 60]
c0103fd5: c1 e0 0c                     	shl	eax, 12
c0103fd8: e8 84 fe ff ff               	call	0xc0103e61 <thread_create_kernel_stack>
c0103fdd: 89 43 04                     	mov	dword ptr [ebx + 4], eax
c0103fe0: c7 04 24 00 20 00 00         	mov	dword ptr [esp], 8192
c0103fe7: e8 61 ed ff ff               	call	0xc0102d4d <virt_bytes_to_pages>
c0103fec: c7 04 24 00 20 00 00         	mov	dword ptr [esp], 8192
c0103ff3: 89 c6                        	mov	esi, eax
c0103ff5: e8 53 ed ff ff               	call	0xc0102d4d <virt_bytes_to_pages>
c0103ffa: c7 43 28 ca aa 10 c0         	mov	dword ptr [ebx + 40], 3222317770
c0104001: 01 c6                        	add	esi, eax
c0104003: 31 c0                        	xor	eax, eax
c0104005: c7 43 34 80 00 00 00         	mov	dword ptr [ebx + 52], 128
c010400c: 89 43 14                     	mov	dword ptr [ebx + 20], eax
c010400f: c1 e6 0c                     	shl	esi, 12
c0104012: 89 43 1c                     	mov	dword ptr [ebx + 28], eax
c0104015: 89 43 20                     	mov	dword ptr [ebx + 32], eax
c0104018: 89 43 24                     	mov	dword ptr [ebx + 36], eax
c010401b: 31 c0                        	xor	eax, eax
c010401d: 89 43 2c                     	mov	dword ptr [ebx + 44], eax
c0104020: 89 43 30                     	mov	dword ptr [ebx + 48], eax
c0104023: 31 c0                        	xor	eax, eax
c0104025: 89 73 48                     	mov	dword ptr [ebx + 72], esi
c0104028: c7 43 40 01 00 00 00         	mov	dword ptr [ebx + 64], 1
c010402f: 89 43 44                     	mov	dword ptr [ebx + 68], eax
c0104032: 89 43 4c                     	mov	dword ptr [ebx + 76], eax
c0104035: 89 43 38                     	mov	dword ptr [ebx + 56], eax
c0104038: e8 6c f9 ff ff               	call	0xc01039a9 <signal_create_state>
c010403d: 89 43 50                     	mov	dword ptr [ebx + 80], eax
c0104040: c7 04 24 00 0d 11 c0         	mov	dword ptr [esp], 3222342912
c0104047: e8 32 fb ff ff               	call	0xc0103b7e <spinlock_acquire>
c010404c: a1 28 c0 10 c0               	mov	eax, dword ptr [3222323240]
c0104051: 89 43 10                     	mov	dword ptr [ebx + 16], eax
c0104054: 8d 50 01                     	lea	edx, [eax + 1]
c0104057: a1 18 0e 11 c0               	mov	eax, dword ptr [3222343192]
c010405c: 89 15 28 c0 10 c0            	mov	dword ptr [-1072644056], edx
c0104062: 89 18                        	mov	dword ptr [eax], ebx
c0104064: c7 04 24 00 0d 11 c0         	mov	dword ptr [esp], 3222342912
c010406b: e8 13 fb ff ff               	call	0xc0103b83 <spinlock_release>
c0104070: e8 37 f6 ff ff               	call	0xc01036ac <idle_thread_init>
c0104075: e8 d8 f5 ff ff               	call	0xc0103652 <cleaner_thread_init>
c010407a: 8d 65 f8                     	lea	esp, [ebp - 8]
c010407d: 89 d8                        	mov	eax, ebx
c010407f: 5b                           	pop	ebx
c0104080: 5e                           	pop	esi
c0104081: 5d                           	pop	ebp
c0104082: c3                           	ret

c0104083 <thread_fork>:
c0104083: 55                           	push	ebp
c0104084: 89 e5                        	mov	ebp, esp
c0104086: 57                           	push	edi
c0104087: 56                           	push	esi
c0104088: 53                           	push	ebx
c0104089: 83 ec 28                     	sub	esp, 40
c010408c: 6a 54                        	push	84
c010408e: e8 72 e3 ff ff               	call	0xc0102405 <malloc>
c0104093: 89 c3                        	mov	ebx, eax
c0104095: a1 18 0e 11 c0               	mov	eax, dword ptr [3222343192]
c010409a: 89 df                        	mov	edi, ebx
c010409c: 8b 00                        	mov	eax, dword ptr [eax]
c010409e: 89 45 e4                     	mov	dword ptr [ebp - 28], eax
c01040a1: c7 04 24 00 0d 11 c0         	mov	dword ptr [esp], 3222342912
c01040a8: e8 d1 fa ff ff               	call	0xc0103b7e <spinlock_acquire>
c01040ad: a1 28 c0 10 c0               	mov	eax, dword ptr [3222323240]
c01040b2: 8b 75 e4                     	mov	esi, dword ptr [ebp - 28]
c01040b5: b9 15 00 00 00               	mov	ecx, 21
c01040ba: f3 a5                        	rep		movsd	dword ptr es:[edi], dword ptr [esi]
c01040bc: 8d 50 01                     	lea	edx, [eax + 1]
c01040bf: 89 43 10                     	mov	dword ptr [ebx + 16], eax
c01040c2: 89 15 28 c0 10 c0            	mov	dword ptr [-1072644056], edx
c01040c8: c7 04 24 00 0d 11 c0         	mov	dword ptr [esp], 3222342912
c01040cf: e8 af fa ff ff               	call	0xc0103b83 <spinlock_release>
c01040d4: 31 c0                        	xor	eax, eax
c01040d6: c7 43 14 01 00 00 00         	mov	dword ptr [ebx + 20], 1
c01040dd: 89 43 24                     	mov	dword ptr [ebx + 36], eax
c01040e0: 89 43 1c                     	mov	dword ptr [ebx + 28], eax
c01040e3: 89 43 20                     	mov	dword ptr [ebx + 32], eax
c01040e6: c7 04 24 d1 aa 10 c0         	mov	dword ptr [esp], 3222317777
c01040ed: e8 91 0f 00 00               	call	0xc0105083 <kprintf>
c01040f2: 5a                           	pop	edx
c01040f3: ff 73 0c                     	push	dword ptr [ebx + 12]
c01040f6: e8 af e9 ff ff               	call	0xc0102aaa <vas_copy>
c01040fb: 8b 53 4c                     	mov	edx, dword ptr [ebx + 76]
c01040fe: 89 43 0c                     	mov	dword ptr [ebx + 12], eax
c0104101: 59                           	pop	ecx
c0104102: 5e                           	pop	esi
c0104103: ff 72 0c                     	push	dword ptr [edx + 12]
c0104106: 50                           	push	eax
c0104107: e8 87 f7 ff ff               	call	0xc0103893 <process_create_child>
c010410c: c7 04 24 00 20 00 00         	mov	dword ptr [esp], 8192
c0104113: 89 c7                        	mov	edi, eax
c0104115: e8 33 ec ff ff               	call	0xc0102d4d <virt_bytes_to_pages>
c010411a: 8d 53 3c                     	lea	edx, [ebx + 60]
c010411d: c1 e0 0c                     	shl	eax, 12
c0104120: e8 3c fd ff ff               	call	0xc0103e61 <thread_create_kernel_stack>
c0104125: 89 43 04                     	mov	dword ptr [ebx + 4], eax
c0104128: c7 04 24 00 20 00 00         	mov	dword ptr [esp], 8192
c010412f: e8 19 ec ff ff               	call	0xc0102d4d <virt_bytes_to_pages>
c0104134: c7 04 24 00 20 00 00         	mov	dword ptr [esp], 8192
c010413b: 89 c6                        	mov	esi, eax
c010413d: e8 0b ec ff ff               	call	0xc0102d4d <virt_bytes_to_pages>
c0104142: 01 c6                        	add	esi, eax
c0104144: c1 e6 0c                     	shl	esi, 12
c0104147: 89 73 48                     	mov	dword ptr [ebx + 72], esi
c010414a: 58                           	pop	eax
c010414b: 5a                           	pop	edx
c010414c: 53                           	push	ebx
c010414d: 57                           	push	edi
c010414e: e8 ce f7 ff ff               	call	0xc0103921 <process_add_thread>
c0104153: 89 7b 4c                     	mov	dword ptr [ebx + 76], edi
c0104156: c7 04 24 00 0d 11 c0         	mov	dword ptr [esp], 3222342912
c010415d: e8 1c fa ff ff               	call	0xc0103b7e <spinlock_acquire>
c0104162: 89 d8                        	mov	eax, ebx
c0104164: 31 d2                        	xor	edx, edx
c0104166: e8 48 fd ff ff               	call	0xc0103eb3 <thread_add_to_ready_list>
c010416b: 59                           	pop	ecx
c010416c: 5e                           	pop	esi
c010416d: 53                           	push	ebx
c010416e: ff 75 e4                     	push	dword ptr [ebp - 28]
c0104171: e8 82 4d 00 00               	call	0xc0108ef8 <arch_set_forked_kernel_stack>
c0104176: a1 18 0e 11 c0               	mov	eax, dword ptr [3222343192]
c010417b: 8b 18                        	mov	ebx, dword ptr [eax]
c010417d: c7 04 24 00 0d 11 c0         	mov	dword ptr [esp], 3222342912
c0104184: e8 fa f9 ff ff               	call	0xc0103b83 <spinlock_release>
c0104189: 8b 4d e4                     	mov	ecx, dword ptr [ebp - 28]
c010418c: 83 c4 10                     	add	esp, 16
c010418f: 31 c0                        	xor	eax, eax
c0104191: 39 cb                        	cmp	ebx, ecx
c0104193: 74 0d                        	je	0xc01041a2 <thread_fork+0x11f>
c0104195: a1 18 0e 11 c0               	mov	eax, dword ptr [3222343192]
c010419a: 8b 00                        	mov	eax, dword ptr [eax]
c010419c: 8b 40 4c                     	mov	eax, dword ptr [eax + 76]
c010419f: 8b 40 04                     	mov	eax, dword ptr [eax + 4]
c01041a2: 8d 65 f4                     	lea	esp, [ebp - 12]
c01041a5: 5b                           	pop	ebx
c01041a6: 5e                           	pop	esi
c01041a7: 5f                           	pop	edi
c01041a8: 5d                           	pop	ebp
c01041a9: c3                           	ret

c01041aa <thread_create>:
c01041aa: 55                           	push	ebp
c01041ab: 89 e5                        	mov	ebp, esp
c01041ad: 56                           	push	esi
c01041ae: 53                           	push	ebx
c01041af: 83 ec 0c                     	sub	esp, 12
c01041b2: 6a 54                        	push	84
c01041b4: e8 4c e2 ff ff               	call	0xc0102405 <malloc>
c01041b9: 31 c9                        	xor	ecx, ecx
c01041bb: 31 d2                        	xor	edx, edx
c01041bd: 89 c3                        	mov	ebx, eax
c01041bf: c7 40 14 01 00 00 00         	mov	dword ptr [eax + 20], 1
c01041c6: 8b 45 08                     	mov	eax, dword ptr [ebp + 8]
c01041c9: 89 4b 44                     	mov	dword ptr [ebx + 68], ecx
c01041cc: 89 43 18                     	mov	dword ptr [ebx + 24], eax
c01041cf: 8b 45 0c                     	mov	eax, dword ptr [ebp + 12]
c01041d2: 89 4b 4c                     	mov	dword ptr [ebx + 76], ecx
c01041d5: 89 43 38                     	mov	dword ptr [ebx + 56], eax
c01041d8: 31 c0                        	xor	eax, eax
c01041da: 89 53 2c                     	mov	dword ptr [ebx + 44], edx
c01041dd: 89 53 30                     	mov	dword ptr [ebx + 48], edx
c01041e0: 89 43 1c                     	mov	dword ptr [ebx + 28], eax
c01041e3: 89 43 20                     	mov	dword ptr [ebx + 32], eax
c01041e6: 89 43 24                     	mov	dword ptr [ebx + 36], eax
c01041e9: c7 43 28 48 ab 10 c0         	mov	dword ptr [ebx + 40], 3222317896
c01041f0: c7 43 34 80 00 00 00         	mov	dword ptr [ebx + 52], 128
c01041f7: c7 43 40 01 00 00 00         	mov	dword ptr [ebx + 64], 1
c01041fe: e8 a6 f7 ff ff               	call	0xc01039a9 <signal_create_state>
c0104203: 89 43 50                     	mov	dword ptr [ebx + 80], eax
c0104206: c7 04 24 00 20 00 00         	mov	dword ptr [esp], 8192
c010420d: e8 3b eb ff ff               	call	0xc0102d4d <virt_bytes_to_pages>
c0104212: 8d 53 3c                     	lea	edx, [ebx + 60]
c0104215: c1 e0 0c                     	shl	eax, 12
c0104218: e8 44 fc ff ff               	call	0xc0103e61 <thread_create_kernel_stack>
c010421d: 89 43 04                     	mov	dword ptr [ebx + 4], eax
c0104220: c7 04 24 00 20 00 00         	mov	dword ptr [esp], 8192
c0104227: e8 21 eb ff ff               	call	0xc0102d4d <virt_bytes_to_pages>
c010422c: c7 04 24 00 20 00 00         	mov	dword ptr [esp], 8192
c0104233: 89 c6                        	mov	esi, eax
c0104235: e8 13 eb ff ff               	call	0xc0102d4d <virt_bytes_to_pages>
c010423a: 01 c6                        	add	esi, eax
c010423c: c1 e6 0c                     	shl	esi, 12
c010423f: 89 73 48                     	mov	dword ptr [ebx + 72], esi
c0104242: 5e                           	pop	esi
c0104243: ff 73 04                     	push	dword ptr [ebx + 4]
c0104246: e8 75 50 00 00               	call	0xc01092c0 <arch_prepare_stack>
c010424b: 89 43 08                     	mov	dword ptr [ebx + 8], eax
c010424e: 8b 45 10                     	mov	eax, dword ptr [ebp + 16]
c0104251: 89 43 0c                     	mov	dword ptr [ebx + 12], eax
c0104254: c7 04 24 00 0d 11 c0         	mov	dword ptr [esp], 3222342912
c010425b: e8 1e f9 ff ff               	call	0xc0103b7e <spinlock_acquire>
c0104260: a1 28 c0 10 c0               	mov	eax, dword ptr [3222323240]
c0104265: 89 43 10                     	mov	dword ptr [ebx + 16], eax
c0104268: 8d 50 01                     	lea	edx, [eax + 1]
c010426b: 89 d8                        	mov	eax, ebx
c010426d: 89 15 28 c0 10 c0            	mov	dword ptr [-1072644056], edx
c0104273: 31 d2                        	xor	edx, edx
c0104275: e8 39 fc ff ff               	call	0xc0103eb3 <thread_add_to_ready_list>
c010427a: c7 04 24 00 0d 11 c0         	mov	dword ptr [esp], 3222342912
c0104281: e8 fd f8 ff ff               	call	0xc0103b83 <spinlock_release>
c0104286: 8d 65 f8                     	lea	esp, [ebp - 8]
c0104289: 89 d8                        	mov	eax, ebx
c010428b: 5b                           	pop	ebx
c010428c: 5e                           	pop	esi
c010428d: 5d                           	pop	ebp
c010428e: c3                           	ret

c010428f <thread_postpone_switches>:
c010428f: 55                           	push	ebp
c0104290: 89 e5                        	mov	ebp, esp
c0104292: 83 ec 14                     	sub	esp, 20
c0104295: 68 c0 0d 11 c0               	push	3222343104
c010429a: e8 df f8 ff ff               	call	0xc0103b7e <spinlock_acquire>
c010429f: c6 05 08 0e 11 c0 01         	mov	byte ptr [-1072624120], 1
c01042a6: 83 c4 10                     	add	esp, 16
c01042a9: c6 05 09 0e 11 c0 00         	mov	byte ptr [-1072624119], 0
c01042b0: c9                           	leave
c01042b1: c3                           	ret

c01042b2 <thread_schedule>:
c01042b2: 55                           	push	ebp
c01042b3: 89 e5                        	mov	ebp, esp
c01042b5: 56                           	push	esi
c01042b6: 53                           	push	ebx
c01042b7: e8 44 4e 00 00               	call	0xc0109100 <arch_read_timestamp>
c01042bc: 8b 35 18 0e 11 c0            	mov	esi, dword ptr [-1072624104]
c01042c2: 8b 0d 48 0d 11 c0            	mov	ecx, dword ptr [-1072624312]
c01042c8: 8b 1d 4c 0d 11 c0            	mov	ebx, dword ptr [-1072624308]
c01042ce: a3 48 0d 11 c0               	mov	dword ptr [3222342984], eax
c01042d3: 8b 36                        	mov	esi, dword ptr [esi]
c01042d5: 89 15 4c 0d 11 c0            	mov	dword ptr [-1072624308], edx
c01042db: 03 46 1c                     	add	eax, dword ptr [esi + 28]
c01042de: 13 56 20                     	adc	edx, dword ptr [esi + 32]
c01042e1: 29 c8                        	sub	eax, ecx
c01042e3: 19 da                        	sbb	edx, ebx
c01042e5: 83 ec 0c                     	sub	esp, 12
c01042e8: 89 46 1c                     	mov	dword ptr [esi + 28], eax
c01042eb: 89 56 20                     	mov	dword ptr [esi + 32], edx
c01042ee: 68 c0 0d 11 c0               	push	3222343104
c01042f3: e8 48 f8 ff ff               	call	0xc0103b40 <spinlock_is_held>
c01042f8: 83 c4 10                     	add	esp, 16
c01042fb: 84 c0                        	test	al, al
c01042fd: 74 17                        	je	0xc0104316 <thread_schedule+0x64>
c01042ff: 80 3d 08 0e 11 c0 00         	cmp	byte ptr [-1072624120], 0
c0104306: 74 0e                        	je	0xc0104316 <thread_schedule+0x64>
c0104308: c6 05 09 0e 11 c0 01         	mov	byte ptr [-1072624119], 1
c010430f: 8d 65 f8                     	lea	esp, [ebp - 8]
c0104312: 5b                           	pop	ebx
c0104313: 5e                           	pop	esi
c0104314: 5d                           	pop	ebp
c0104315: c3                           	ret
c0104316: 8b 1d 14 0e 11 c0            	mov	ebx, dword ptr [-1072624108]
c010431c: 85 db                        	test	ebx, ebx
c010431e: 0f 84 96 00 00 00            	je	0xc01043ba <thread_schedule+0x108>
c0104324: 8b 43 24                     	mov	eax, dword ptr [ebx + 36]
c0104327: a3 14 0e 11 c0               	mov	dword ptr [3222343188], eax
c010432c: 85 c0                        	test	eax, eax
c010432e: 75 08                        	jne	0xc0104338 <thread_schedule+0x86>
c0104330: 31 c9                        	xor	ecx, ecx
c0104332: 89 0d 10 0e 11 c0            	mov	dword ptr [-1072624112], ecx
c0104338: 81 7b 34 ff 00 00 00         	cmp	dword ptr [ebx + 52], 255
c010433f: 75 4a                        	jne	0xc010438b <thread_schedule+0xd9>
c0104341: 85 c0                        	test	eax, eax
c0104343: 74 25                        	je	0xc010436a <thread_schedule+0xb8>
c0104345: 89 d8                        	mov	eax, ebx
c0104347: 31 d2                        	xor	edx, edx
c0104349: e8 65 fb ff ff               	call	0xc0103eb3 <thread_add_to_ready_list>
c010434e: 8b 1d 14 0e 11 c0            	mov	ebx, dword ptr [-1072624108]
c0104354: 8b 43 24                     	mov	eax, dword ptr [ebx + 36]
c0104357: a3 14 0e 11 c0               	mov	dword ptr [3222343188], eax
c010435c: 85 c0                        	test	eax, eax
c010435e: 75 2b                        	jne	0xc010438b <thread_schedule+0xd9>
c0104360: 31 d2                        	xor	edx, edx
c0104362: 89 15 10 0e 11 c0            	mov	dword ptr [-1072624112], edx
c0104368: eb 21                        	jmp	0xc010438b <thread_schedule+0xd9>
c010436a: a1 18 0e 11 c0               	mov	eax, dword ptr [3222343192]
c010436f: 8b 00                        	mov	eax, dword ptr [eax]
c0104371: 83 78 14 00                  	cmp	dword ptr [eax + 20], 0
c0104375: 75 14                        	jne	0xc010438b <thread_schedule+0xd9>
c0104377: e8 a4 fa ff ff               	call	0xc0103e20 <thread_reset_timeslice>
c010437c: 8d 65 f8                     	lea	esp, [ebp - 8]
c010437f: 89 d8                        	mov	eax, ebx
c0104381: 31 d2                        	xor	edx, edx
c0104383: 5b                           	pop	ebx
c0104384: 5e                           	pop	esi
c0104385: 5d                           	pop	ebp
c0104386: e9 28 fb ff ff               	jmp	0xc0103eb3 <thread_add_to_ready_list>
c010438b: a1 18 0e 11 c0               	mov	eax, dword ptr [3222343192]
c0104390: 8b 00                        	mov	eax, dword ptr [eax]
c0104392: 83 78 14 00                  	cmp	dword ptr [eax + 20], 0
c0104396: 75 07                        	jne	0xc010439f <thread_schedule+0xed>
c0104398: 31 d2                        	xor	edx, edx
c010439a: e8 14 fb ff ff               	call	0xc0103eb3 <thread_add_to_ready_list>
c010439f: 31 c0                        	xor	eax, eax
c01043a1: 83 ec 0c                     	sub	esp, 12
c01043a4: 89 43 14                     	mov	dword ptr [ebx + 20], eax
c01043a7: ff 73 0c                     	push	dword ptr [ebx + 12]
c01043aa: e8 c6 e6 ff ff               	call	0xc0102a75 <vas_load>
c01043af: 89 1c 24                     	mov	dword ptr [esp], ebx
c01043b2: e8 18 4f 00 00               	call	0xc01092cf <arch_switch_thread>
c01043b7: 83 c4 10                     	add	esp, 16
c01043ba: 8d 65 f8                     	lea	esp, [ebp - 8]
c01043bd: 5b                           	pop	ebx
c01043be: 5e                           	pop	esi
c01043bf: 5d                           	pop	ebp
c01043c0: e9 5b fa ff ff               	jmp	0xc0103e20 <thread_reset_timeslice>

c01043c5 <thread_block>:
c01043c5: 55                           	push	ebp
c01043c6: a1 18 0e 11 c0               	mov	eax, dword ptr [3222343192]
c01043cb: 8b 00                        	mov	eax, dword ptr [eax]
c01043cd: 89 e5                        	mov	ebp, esp
c01043cf: 8b 55 08                     	mov	edx, dword ptr [ebp + 8]
c01043d2: 89 50 14                     	mov	dword ptr [eax + 20], edx
c01043d5: 5d                           	pop	ebp
c01043d6: e9 d7 fe ff ff               	jmp	0xc01042b2 <thread_schedule>

c01043db <thread_unblock>:
c01043db: 55                           	push	ebp
c01043dc: 89 e5                        	mov	ebp, esp
c01043de: 53                           	push	ebx
c01043df: bb 01 00 00 00               	mov	ebx, 1
c01043e4: 51                           	push	ecx
c01043e5: 8b 15 18 0e 11 c0            	mov	edx, dword ptr [-1072624104]
c01043eb: 8b 45 08                     	mov	eax, dword ptr [ebp + 8]
c01043ee: 8b 12                        	mov	edx, dword ptr [edx]
c01043f0: 8b 4a 34                     	mov	ecx, dword ptr [edx + 52]
c01043f3: 39 48 34                     	cmp	dword ptr [eax + 52], ecx
c01043f6: 7c 0c                        	jl	0xc0104404 <thread_unblock+0x29>
c01043f8: 31 db                        	xor	ebx, ebx
c01043fa: 83 3d 14 0e 11 c0 00         	cmp	dword ptr [-1072624108], 0
c0104401: 0f 94 c3                     	sete	bl
c0104404: 89 da                        	mov	edx, ebx
c0104406: e8 a8 fa ff ff               	call	0xc0103eb3 <thread_add_to_ready_list>
c010440b: 85 db                        	test	ebx, ebx
c010440d: 74 08                        	je	0xc0104417 <thread_unblock+0x3c>
c010440f: 5a                           	pop	edx
c0104410: 5b                           	pop	ebx
c0104411: 5d                           	pop	ebp
c0104412: e9 9b fe ff ff               	jmp	0xc01042b2 <thread_schedule>
c0104417: 58                           	pop	eax
c0104418: 5b                           	pop	ebx
c0104419: 5d                           	pop	ebp
c010441a: c3                           	ret

c010441b <thread_end_postpone_switches>:
c010441b: 55                           	push	ebp
c010441c: 89 e5                        	mov	ebp, esp
c010441e: 83 ec 08                     	sub	esp, 8
c0104421: 80 3d 09 0e 11 c0 00         	cmp	byte ptr [-1072624119], 0
c0104428: c6 05 08 0e 11 c0 00         	mov	byte ptr [-1072624120], 0
c010442f: 74 1d                        	je	0xc010444e <thread_end_postpone_switches+0x33>
c0104431: 83 ec 0c                     	sub	esp, 12
c0104434: c6 05 09 0e 11 c0 00         	mov	byte ptr [-1072624119], 0
c010443b: 68 c0 0d 11 c0               	push	3222343104
c0104440: e8 3e f7 ff ff               	call	0xc0103b83 <spinlock_release>
c0104445: 83 c4 10                     	add	esp, 16
c0104448: c9                           	leave
c0104449: e9 64 fe ff ff               	jmp	0xc01042b2 <thread_schedule>
c010444e: 83 ec 0c                     	sub	esp, 12
c0104451: 68 c0 0d 11 c0               	push	3222343104
c0104456: e8 28 f7 ff ff               	call	0xc0103b83 <spinlock_release>
c010445b: 83 c4 10                     	add	esp, 16
c010445e: c9                           	leave
c010445f: c3                           	ret

c0104460 <get_time_since_boot>:
c0104460: 55                           	push	ebp
c0104461: 89 e5                        	mov	ebp, esp
c0104463: 57                           	push	edi
c0104464: 56                           	push	esi
c0104465: 83 ec 0c                     	sub	esp, 12
c0104468: 68 60 0d 11 c0               	push	3222343008
c010446d: e8 0c f7 ff ff               	call	0xc0103b7e <spinlock_acquire>
c0104472: 8b 35 a8 0d 11 c0            	mov	esi, dword ptr [-1072624216]
c0104478: 8b 3d ac 0d 11 c0            	mov	edi, dword ptr [-1072624212]
c010447e: c7 04 24 60 0d 11 c0         	mov	dword ptr [esp], 3222343008
c0104485: e8 f9 f6 ff ff               	call	0xc0103b83 <spinlock_release>
c010448a: 8d 65 f8                     	lea	esp, [ebp - 8]
c010448d: 89 f0                        	mov	eax, esi
c010448f: 89 fa                        	mov	edx, edi
c0104491: 5e                           	pop	esi
c0104492: 5f                           	pop	edi
c0104493: 5d                           	pop	ebp
c0104494: c3                           	ret

c0104495 <thread_nano_sleep_until>:
c0104495: 55                           	push	ebp
c0104496: 89 e5                        	mov	ebp, esp
c0104498: 56                           	push	esi
c0104499: 53                           	push	ebx
c010449a: 8b 75 08                     	mov	esi, dword ptr [ebp + 8]
c010449d: 8b 5d 0c                     	mov	ebx, dword ptr [ebp + 12]
c01044a0: 83 ec 0c                     	sub	esp, 12
c01044a3: 68 00 0d 11 c0               	push	3222342912
c01044a8: e8 d1 f6 ff ff               	call	0xc0103b7e <spinlock_acquire>
c01044ad: e8 ae ff ff ff               	call	0xc0104460 <get_time_since_boot>
c01044b2: 83 c4 10                     	add	esp, 16
c01044b5: 39 c6                        	cmp	esi, eax
c01044b7: 89 d8                        	mov	eax, ebx
c01044b9: 19 d0                        	sbb	eax, edx
c01044bb: 73 10                        	jae	0xc01044cd <thread_nano_sleep_until+0x38>
c01044bd: 83 ec 0c                     	sub	esp, 12
c01044c0: 68 00 0d 11 c0               	push	3222342912
c01044c5: e8 b9 f6 ff ff               	call	0xc0103b83 <spinlock_release>
c01044ca: 83 c4 10                     	add	esp, 16
c01044cd: a1 18 0e 11 c0               	mov	eax, dword ptr [3222343192]
c01044d2: 8b 0d 0c 0e 11 c0            	mov	ecx, dword ptr [-1072624116]
c01044d8: 83 ec 0c                     	sub	esp, 12
c01044db: 8b 10                        	mov	edx, dword ptr [eax]
c01044dd: 89 72 2c                     	mov	dword ptr [edx + 44], esi
c01044e0: 89 5a 30                     	mov	dword ptr [edx + 48], ebx
c01044e3: 8b 10                        	mov	edx, dword ptr [eax]
c01044e5: 89 4a 24                     	mov	dword ptr [edx + 36], ecx
c01044e8: 8b 00                        	mov	eax, dword ptr [eax]
c01044ea: a3 0c 0e 11 c0               	mov	dword ptr [3222343180], eax
c01044ef: 6a 02                        	push	2
c01044f1: e8 cf fe ff ff               	call	0xc01043c5 <thread_block>
c01044f6: c7 45 08 00 0d 11 c0         	mov	dword ptr [ebp + 8], 3222342912
c01044fd: 83 c4 10                     	add	esp, 16
c0104500: 8d 65 f8                     	lea	esp, [ebp - 8]
c0104503: 5b                           	pop	ebx
c0104504: 5e                           	pop	esi
c0104505: 5d                           	pop	ebp
c0104506: e9 78 f6 ff ff               	jmp	0xc0103b83 <spinlock_release>

c010450b <thread_nano_sleep>:
c010450b: 55                           	push	ebp
c010450c: 89 e5                        	mov	ebp, esp
c010450e: 57                           	push	edi
c010450f: 56                           	push	esi
c0104510: 8b 75 08                     	mov	esi, dword ptr [ebp + 8]
c0104513: 8b 7d 0c                     	mov	edi, dword ptr [ebp + 12]
c0104516: e8 45 ff ff ff               	call	0xc0104460 <get_time_since_boot>
c010451b: 01 f0                        	add	eax, esi
c010451d: 5e                           	pop	esi
c010451e: 11 fa                        	adc	edx, edi
c0104520: 89 45 08                     	mov	dword ptr [ebp + 8], eax
c0104523: 5f                           	pop	edi
c0104524: 89 55 0c                     	mov	dword ptr [ebp + 12], edx
c0104527: 5d                           	pop	ebp
c0104528: e9 68 ff ff ff               	jmp	0xc0104495 <thread_nano_sleep_until>

c010452d <thread_sleep>:
c010452d: 55                           	push	ebp
c010452e: b8 00 ca 9a 3b               	mov	eax, 1000000000
c0104533: 89 e5                        	mov	ebp, esp
c0104535: 83 ec 10                     	sub	esp, 16
c0104538: f7 6d 08                     	imul	dword ptr [ebp + 8]
c010453b: 52                           	push	edx
c010453c: 50                           	push	eax
c010453d: e8 c9 ff ff ff               	call	0xc010450b <thread_nano_sleep>
c0104542: 83 c4 10                     	add	esp, 16
c0104545: c9                           	leave
c0104546: c3                           	ret

c0104547 <thread_yield>:
c0104547: 55                           	push	ebp
c0104548: 89 e5                        	mov	ebp, esp
c010454a: 83 ec 14                     	sub	esp, 20
c010454d: 68 00 0d 11 c0               	push	3222342912
c0104552: e8 27 f6 ff ff               	call	0xc0103b7e <spinlock_acquire>
c0104557: e8 56 fd ff ff               	call	0xc01042b2 <thread_schedule>
c010455c: c7 04 24 00 0d 11 c0         	mov	dword ptr [esp], 3222342912
c0104563: e8 1b f6 ff ff               	call	0xc0103b83 <spinlock_release>
c0104568: 83 c4 10                     	add	esp, 16
c010456b: c9                           	leave
c010456c: c3                           	ret

c010456d <thread_terminate>:
c010456d: 55                           	push	ebp
c010456e: 89 e5                        	mov	ebp, esp
c0104570: 53                           	push	ebx
c0104571: bb 00 00 01 00               	mov	ebx, 65536
c0104576: 83 ec 10                     	sub	esp, 16
c0104579: 68 00 00 40 00               	push	4194304
c010457e: e8 ca e7 ff ff               	call	0xc0102d4d <virt_bytes_to_pages>
c0104583: 83 c4 10                     	add	esp, 16
c0104586: 29 c3                        	sub	ebx, eax
c0104588: c1 e3 0c                     	shl	ebx, 12
c010458b: 81 fb ff ff ff 0f            	cmp	ebx, 268435455
c0104591: 77 2d                        	ja	0xc01045c0 <thread_terminate+0x53>
c0104593: e8 7e e4 ff ff               	call	0xc0102a16 <vas_get_current_vas>
c0104598: 51                           	push	ecx
c0104599: 51                           	push	ecx
c010459a: 53                           	push	ebx
c010459b: 50                           	push	eax
c010459c: e8 21 e6 ff ff               	call	0xc0102bc2 <vas_unmap>
c01045a1: 83 c4 10                     	add	esp, 16
c01045a4: 85 c0                        	test	eax, eax
c01045a6: 74 10                        	je	0xc01045b8 <thread_terminate+0x4b>
c01045a8: 52                           	push	edx
c01045a9: 52                           	push	edx
c01045aa: 50                           	push	eax
c01045ab: 68 56 ab 10 c0               	push	3222317910
c01045b0: e8 ce 0a 00 00               	call	0xc0105083 <kprintf>
c01045b5: 83 c4 10                     	add	esp, 16
c01045b8: 81 c3 00 10 00 00            	add	ebx, 4096
c01045be: eb cb                        	jmp	0xc010458b <thread_terminate+0x1e>
c01045c0: 83 ec 0c                     	sub	esp, 12
c01045c3: 68 92 ab 10 c0               	push	3222317970
c01045c8: e8 b6 0a 00 00               	call	0xc0105083 <kprintf>
c01045cd: c7 04 24 00 0d 11 c0         	mov	dword ptr [esp], 3222342912
c01045d4: e8 a5 f5 ff ff               	call	0xc0103b7e <spinlock_acquire>
c01045d9: e8 b1 fc ff ff               	call	0xc010428f <thread_postpone_switches>
c01045de: a1 18 0e 11 c0               	mov	eax, dword ptr [3222343192]
c01045e3: 8b 0d e0 0c 11 c0            	mov	ecx, dword ptr [-1072624416]
c01045e9: 8b 10                        	mov	edx, dword ptr [eax]
c01045eb: 89 4a 24                     	mov	dword ptr [edx + 36], ecx
c01045ee: 8b 00                        	mov	eax, dword ptr [eax]
c01045f0: c7 04 24 a2 ab 10 c0         	mov	dword ptr [esp], 3222317986
c01045f7: a3 e0 0c 11 c0               	mov	dword ptr [3222342880], eax
c01045fc: e8 82 0a 00 00               	call	0xc0105083 <kprintf>
c0104601: c7 04 24 06 00 00 00         	mov	dword ptr [esp], 6
c0104608: e8 b8 fd ff ff               	call	0xc01043c5 <thread_block>
c010460d: c7 04 24 b2 ab 10 c0         	mov	dword ptr [esp], 3222318002
c0104614: e8 6a 0a 00 00               	call	0xc0105083 <kprintf>
c0104619: e8 57 f0 ff ff               	call	0xc0103675 <cleaner_thread_awaken>
c010461e: c7 04 24 c3 ab 10 c0         	mov	dword ptr [esp], 3222318019
c0104625: e8 59 0a 00 00               	call	0xc0105083 <kprintf>
c010462a: e8 ec fd ff ff               	call	0xc010441b <thread_end_postpone_switches>
c010462f: c7 04 24 d4 ab 10 c0         	mov	dword ptr [esp], 3222318036
c0104636: e8 48 0a 00 00               	call	0xc0105083 <kprintf>
c010463b: c7 04 24 00 0d 11 c0         	mov	dword ptr [esp], 3222342912
c0104642: e8 3c f5 ff ff               	call	0xc0103b83 <spinlock_release>
c0104647: c7 04 24 e4 ab 10 c0         	mov	dword ptr [esp], 3222318052
c010464e: e8 f8 0b 00 00               	call	0xc010524b <panic>

c0104653 <thread_execute_in_usermode>:
c0104653: 55                           	push	ebp
c0104654: 89 e5                        	mov	ebp, esp
c0104656: 57                           	push	edi
c0104657: 56                           	push	esi
c0104658: 31 f6                        	xor	esi, esi
c010465a: 53                           	push	ebx
c010465b: bb 00 00 01 00               	mov	ebx, 65536
c0104660: 83 ec 28                     	sub	esp, 40
c0104663: 68 00 00 40 00               	push	4194304
c0104668: e8 e0 e6 ff ff               	call	0xc0102d4d <virt_bytes_to_pages>
c010466d: c1 e0 0c                     	shl	eax, 12
c0104670: 89 04 24                     	mov	dword ptr [esp], eax
c0104673: e8 d5 e6 ff ff               	call	0xc0102d4d <virt_bytes_to_pages>
c0104678: 83 c4 10                     	add	esp, 16
c010467b: 29 c3                        	sub	ebx, eax
c010467d: 89 c7                        	mov	edi, eax
c010467f: c1 e3 0c                     	shl	ebx, 12
c0104682: 39 f7                        	cmp	edi, esi
c0104684: 7e 1b                        	jle	0xc01046a1 <thread_execute_in_usermode+0x4e>
c0104686: e8 8b e3 ff ff               	call	0xc0102a16 <vas_get_current_vas>
c010468b: 46                           	inc	esi
c010468c: 52                           	push	edx
c010468d: 6a 45                        	push	69
c010468f: 53                           	push	ebx
c0104690: 81 c3 00 10 00 00            	add	ebx, 4096
c0104696: 50                           	push	eax
c0104697: e8 a4 e4 ff ff               	call	0xc0102b40 <vas_reflag>
c010469c: 83 c4 10                     	add	esp, 16
c010469f: eb e1                        	jmp	0xc0104682 <thread_execute_in_usermode+0x2f>
c01046a1: 83 ec 0c                     	sub	esp, 12
c01046a4: 68 00 0d 11 c0               	push	3222342912
c01046a9: e8 d0 f4 ff ff               	call	0xc0103b7e <spinlock_acquire>
c01046ae: a1 18 0e 11 c0               	mov	eax, dword ptr [3222343192]
c01046b3: 8b 00                        	mov	eax, dword ptr [eax]
c01046b5: c7 40 08 00 00 00 10         	mov	dword ptr [eax + 8], 268435456
c01046bc: c7 04 24 00 0d 11 c0         	mov	dword ptr [esp], 3222342912
c01046c3: e8 bb f4 ff ff               	call	0xc0103b83 <spinlock_release>
c01046c8: 8d 45 dc                     	lea	eax, [ebp - 36]
c01046cb: 31 c9                        	xor	ecx, ecx
c01046cd: c7 45 e0 ed ab 10 c0         	mov	dword ptr [ebp - 32], 3222318061
c01046d4: 50                           	push	eax
c01046d5: 8d 45 d8                     	lea	eax, [ebp - 40]
c01046d8: 50                           	push	eax
c01046d9: 8d 45 e0                     	lea	eax, [ebp - 32]
c01046dc: 50                           	push	eax
c01046dd: 68 ed ab 10 c0               	push	3222318061
c01046e2: 89 4d e4                     	mov	dword ptr [ebp - 28], ecx
c01046e5: 89 4d d8                     	mov	dword ptr [ebp - 40], ecx
c01046e8: e8 2e f8 ff ff               	call	0xc0103f1b <thread_execve>
c01046ed: 83 c4 20                     	add	esp, 32
c01046f0: 85 c0                        	test	eax, eax
c01046f2: 74 0f                        	je	0xc0104703 <thread_execute_in_usermode+0xb0>
c01046f4: 52                           	push	edx
c01046f5: 52                           	push	edx
c01046f6: 50                           	push	eax
c01046f7: 68 03 ac 10 c0               	push	3222318083
c01046fc: e8 82 09 00 00               	call	0xc0105083 <kprintf>
c0104701: eb 14                        	jmp	0xc0104717 <thread_execute_in_usermode+0xc4>
c0104703: e8 01 4a 00 00               	call	0xc0109109 <arch_flush_tlb>
c0104708: 50                           	push	eax
c0104709: 50                           	push	eax
c010470a: 68 00 00 00 10               	push	268435456
c010470f: ff 75 dc                     	push	dword ptr [ebp - 36]
c0104712: e8 e9 4b 00 00               	call	0xc0109300 <arch_switch_to_usermode>
c0104717: e8 51 fe ff ff               	call	0xc010456d <thread_terminate>

c010471c <thread_startup_handler>:
c010471c: 55                           	push	ebp
c010471d: 89 e5                        	mov	ebp, esp
c010471f: 83 ec 14                     	sub	esp, 20
c0104722: 68 00 0d 11 c0               	push	3222342912
c0104727: e8 57 f4 ff ff               	call	0xc0103b83 <spinlock_release>
c010472c: a1 18 0e 11 c0               	mov	eax, dword ptr [3222343192]
c0104731: 5a                           	pop	edx
c0104732: 8b 00                        	mov	eax, dword ptr [eax]
c0104734: ff 70 38                     	push	dword ptr [eax + 56]
c0104737: ff 50 18                     	call	dword ptr [eax + 24]
c010473a: e8 2e fe ff ff               	call	0xc010456d <thread_terminate>

c010473f <thread_received_timer_interrupt_bsp>:
c010473f: 55                           	push	ebp
c0104740: 89 e5                        	mov	ebp, esp
c0104742: 57                           	push	edi
c0104743: 56                           	push	esi
c0104744: 8b 75 08                     	mov	esi, dword ptr [ebp + 8]
c0104747: 8b 7d 0c                     	mov	edi, dword ptr [ebp + 12]
c010474a: 83 ec 0c                     	sub	esp, 12
c010474d: 68 60 0d 11 c0               	push	3222343008
c0104752: e8 27 f4 ff ff               	call	0xc0103b7e <spinlock_acquire>
c0104757: 01 35 a8 0d 11 c0            	add	dword ptr [-1072624216], esi
c010475d: 11 3d ac 0d 11 c0            	adc	dword ptr [-1072624212], edi
c0104763: 83 c4 10                     	add	esp, 16
c0104766: c7 45 08 60 0d 11 c0         	mov	dword ptr [ebp + 8], 3222343008
c010476d: 8d 65 f8                     	lea	esp, [ebp - 8]
c0104770: 5e                           	pop	esi
c0104771: 5f                           	pop	edi
c0104772: 5d                           	pop	ebp
c0104773: e9 0b f4 ff ff               	jmp	0xc0103b83 <spinlock_release>

c0104778 <thread_received_timer_interrupt>:
c0104778: 55                           	push	ebp
c0104779: 89 e5                        	mov	ebp, esp
c010477b: 53                           	push	ebx
c010477c: 83 ec 10                     	sub	esp, 16
c010477f: 68 00 0d 11 c0               	push	3222342912
c0104784: e8 f5 f3 ff ff               	call	0xc0103b7e <spinlock_acquire>
c0104789: a1 18 0e 11 c0               	mov	eax, dword ptr [3222343192]
c010478e: 83 c4 10                     	add	esp, 16
c0104791: 83 38 00                     	cmp	dword ptr [eax], 0
c0104794: 75 0d                        	jne	0xc01047a3 <thread_received_timer_interrupt+0x2b>
c0104796: 83 ec 0c                     	sub	esp, 12
c0104799: 68 00 0d 11 c0               	push	3222342912
c010479e: e9 aa 00 00 00               	jmp	0xc010484d <thread_received_timer_interrupt+0xd5>
c01047a3: e8 e7 fa ff ff               	call	0xc010428f <thread_postpone_switches>
c01047a8: 83 ec 0c                     	sub	esp, 12
c01047ab: 68 60 0d 11 c0               	push	3222343008
c01047b0: e8 c9 f3 ff ff               	call	0xc0103b7e <spinlock_acquire>
c01047b5: 31 c9                        	xor	ecx, ecx
c01047b7: a1 0c 0e 11 c0               	mov	eax, dword ptr [3222343180]
c01047bc: 83 c4 10                     	add	esp, 16
c01047bf: 89 0d 0c 0e 11 c0            	mov	dword ptr [-1072624116], ecx
c01047c5: 85 c0                        	test	eax, eax
c01047c7: 74 37                        	je	0xc0104800 <thread_received_timer_interrupt+0x88>
c01047c9: 8b 48 2c                     	mov	ecx, dword ptr [eax + 44]
c01047cc: 8b 15 ac 0d 11 c0            	mov	edx, dword ptr [-1072624212]
c01047d2: 39 0d a8 0d 11 c0            	cmp	dword ptr [-1072624216], ecx
c01047d8: 1b 50 30                     	sbb	edx, dword ptr [eax + 48]
c01047db: 8b 58 24                     	mov	ebx, dword ptr [eax + 36]
c01047de: 72 0e                        	jb	0xc01047ee <thread_received_timer_interrupt+0x76>
c01047e0: 83 ec 0c                     	sub	esp, 12
c01047e3: 50                           	push	eax
c01047e4: e8 f2 fb ff ff               	call	0xc01043db <thread_unblock>
c01047e9: 83 c4 10                     	add	esp, 16
c01047ec: eb 0e                        	jmp	0xc01047fc <thread_received_timer_interrupt+0x84>
c01047ee: 8b 15 0c 0e 11 c0            	mov	edx, dword ptr [-1072624116]
c01047f4: a3 0c 0e 11 c0               	mov	dword ptr [3222343180], eax
c01047f9: 89 50 24                     	mov	dword ptr [eax + 36], edx
c01047fc: 89 d8                        	mov	eax, ebx
c01047fe: eb c5                        	jmp	0xc01047c5 <thread_received_timer_interrupt+0x4d>
c0104800: a1 18 0e 11 c0               	mov	eax, dword ptr [3222343192]
c0104805: 8b 00                        	mov	eax, dword ptr [eax]
c0104807: 85 c0                        	test	eax, eax
c0104809: 74 29                        	je	0xc0104834 <thread_received_timer_interrupt+0xbc>
c010480b: 8b 50 44                     	mov	edx, dword ptr [eax + 68]
c010480e: 8b 48 40                     	mov	ecx, dword ptr [eax + 64]
c0104811: 85 d2                        	test	edx, edx
c0104813: 75 04                        	jne	0xc0104819 <thread_received_timer_interrupt+0xa1>
c0104815: 85 c9                        	test	ecx, ecx
c0104817: 74 1b                        	je	0xc0104834 <thread_received_timer_interrupt+0xbc>
c0104819: 3b 0d a8 0d 11 c0            	cmp	ecx, dword ptr [-1072624216]
c010481f: 1b 15 ac 0d 11 c0            	sbb	edx, dword ptr [-1072624212]
c0104825: 73 0d                        	jae	0xc0104834 <thread_received_timer_interrupt+0xbc>
c0104827: 31 d2                        	xor	edx, edx
c0104829: 89 50 40                     	mov	dword ptr [eax + 64], edx
c010482c: 89 50 44                     	mov	dword ptr [eax + 68], edx
c010482f: e8 7e fa ff ff               	call	0xc01042b2 <thread_schedule>
c0104834: 83 ec 0c                     	sub	esp, 12
c0104837: 68 60 0d 11 c0               	push	3222343008
c010483c: e8 42 f3 ff ff               	call	0xc0103b83 <spinlock_release>
c0104841: e8 d5 fb ff ff               	call	0xc010441b <thread_end_postpone_switches>
c0104846: c7 04 24 00 0d 11 c0         	mov	dword ptr [esp], 3222342912
c010484d: e8 31 f3 ff ff               	call	0xc0103b83 <spinlock_release>
c0104852: 8b 5d fc                     	mov	ebx, dword ptr [ebp - 4]
c0104855: 83 c4 10                     	add	esp, 16
c0104858: c9                           	leave
c0104859: c3                           	ret

c010485a <thread_set_priority>:
c010485a: 55                           	push	ebp
c010485b: 89 e5                        	mov	ebp, esp
c010485d: 53                           	push	ebx
c010485e: 50                           	push	eax
c010485f: 8b 5d 08                     	mov	ebx, dword ptr [ebp + 8]
c0104862: b8 07 00 00 00               	mov	eax, 7
c0104867: 81 fb ff 00 00 00            	cmp	ebx, 255
c010486d: 77 28                        	ja	0xc0104897 <thread_set_priority+0x3d>
c010486f: 83 ec 0c                     	sub	esp, 12
c0104872: 68 00 0d 11 c0               	push	3222342912
c0104877: e8 02 f3 ff ff               	call	0xc0103b7e <spinlock_acquire>
c010487c: a1 18 0e 11 c0               	mov	eax, dword ptr [3222343192]
c0104881: 8b 00                        	mov	eax, dword ptr [eax]
c0104883: 89 58 34                     	mov	dword ptr [eax + 52], ebx
c0104886: c7 04 24 00 0d 11 c0         	mov	dword ptr [esp], 3222342912
c010488d: e8 f1 f2 ff ff               	call	0xc0103b83 <spinlock_release>
c0104892: 83 c4 10                     	add	esp, 16
c0104895: 31 c0                        	xor	eax, eax
c0104897: 8b 5d fc                     	mov	ebx, dword ptr [ebp - 4]
c010489a: c9                           	leave
c010489b: c3                           	ret

c010489c <adt_blocking_byte_buffer_create>:
c010489c: 55                           	push	ebp
c010489d: 89 e5                        	mov	ebp, esp
c010489f: 56                           	push	esi
c01048a0: 53                           	push	ebx
c01048a1: 8b 75 08                     	mov	esi, dword ptr [ebp + 8]
c01048a4: 83 ec 0c                     	sub	esp, 12
c01048a7: 6a 60                        	push	96
c01048a9: e8 57 db ff ff               	call	0xc0102405 <malloc>
c01048ae: 89 34 24                     	mov	dword ptr [esp], esi
c01048b1: 89 c3                        	mov	ebx, eax
c01048b3: e8 4d db ff ff               	call	0xc0102405 <malloc>
c01048b8: 89 73 04                     	mov	dword ptr [ebx + 4], esi
c01048bb: 89 03                        	mov	dword ptr [ebx], eax
c01048bd: 31 c0                        	xor	eax, eax
c01048bf: 89 43 08                     	mov	dword ptr [ebx + 8], eax
c01048c2: 89 43 0c                     	mov	dword ptr [ebx + 12], eax
c01048c5: 89 43 10                     	mov	dword ptr [ebx + 16], eax
c01048c8: 89 34 24                     	mov	dword ptr [esp], esi
c01048cb: e8 d9 f2 ff ff               	call	0xc0103ba9 <semaphore_create>
c01048d0: 89 43 14                     	mov	dword ptr [ebx + 20], eax
c01048d3: 8d 43 18                     	lea	eax, [ebx + 24]
c01048d6: 5a                           	pop	edx
c01048d7: 59                           	pop	ecx
c01048d8: 68 1c ac 10 c0               	push	3222318108
c01048dd: 50                           	push	eax
c01048de: e8 6c f2 ff ff               	call	0xc0103b4f <spinlock_init>
c01048e3: 58                           	pop	eax
c01048e4: 5a                           	pop	edx
c01048e5: 56                           	push	esi
c01048e6: ff 73 14                     	push	dword ptr [ebx + 20]
c01048e9: e8 f4 f3 ff ff               	call	0xc0103ce2 <semaphore_set_count>
c01048ee: 8d 65 f8                     	lea	esp, [ebp - 8]
c01048f1: 89 d8                        	mov	eax, ebx
c01048f3: 5b                           	pop	ebx
c01048f4: 5e                           	pop	esi
c01048f5: 5d                           	pop	ebp
c01048f6: c3                           	ret

c01048f7 <adt_blocking_byte_buffer_destroy>:
c01048f7: 55                           	push	ebp
c01048f8: 89 e5                        	mov	ebp, esp
c01048fa: 53                           	push	ebx
c01048fb: 83 ec 10                     	sub	esp, 16
c01048fe: 8b 5d 08                     	mov	ebx, dword ptr [ebp + 8]
c0104901: ff 33                        	push	dword ptr [ebx]
c0104903: e8 1c dc ff ff               	call	0xc0102524 <free>
c0104908: 89 5d 08                     	mov	dword ptr [ebp + 8], ebx
c010490b: 83 c4 10                     	add	esp, 16
c010490e: 8b 5d fc                     	mov	ebx, dword ptr [ebp - 4]
c0104911: c9                           	leave
c0104912: e9 0d dc ff ff               	jmp	0xc0102524 <free>

c0104917 <adt_blocking_byte_buffer_add>:
c0104917: 55                           	push	ebp
c0104918: 89 e5                        	mov	ebp, esp
c010491a: 57                           	push	edi
c010491b: 56                           	push	esi
c010491c: 53                           	push	ebx
c010491d: 83 ec 18                     	sub	esp, 24
c0104920: 8b 5d 08                     	mov	ebx, dword ptr [ebp + 8]
c0104923: 8b 7d 0c                     	mov	edi, dword ptr [ebp + 12]
c0104926: 8d 73 18                     	lea	esi, [ebx + 24]
c0104929: 56                           	push	esi
c010492a: e8 4f f2 ff ff               	call	0xc0103b7e <spinlock_acquire>
c010492f: 8b 43 04                     	mov	eax, dword ptr [ebx + 4]
c0104932: 83 c4 10                     	add	esp, 16
c0104935: 39 43 08                     	cmp	dword ptr [ebx + 8], eax
c0104938: 75 0d                        	jne	0xc0104947 <adt_blocking_byte_buffer_add+0x30>
c010493a: 83 ec 0c                     	sub	esp, 12
c010493d: 68 36 ac 10 c0               	push	3222318134
c0104942: e8 04 09 00 00               	call	0xc010524b <panic>
c0104947: 8b 43 10                     	mov	eax, dword ptr [ebx + 16]
c010494a: 8b 13                        	mov	edx, dword ptr [ebx]
c010494c: 89 f9                        	mov	ecx, edi
c010494e: 83 ec 0c                     	sub	esp, 12
c0104951: 88 0c 02                     	mov	byte ptr [edx + eax], cl
c0104954: 8b 43 10                     	mov	eax, dword ptr [ebx + 16]
c0104957: ff 43 08                     	inc	dword ptr [ebx + 8]
c010495a: 40                           	inc	eax
c010495b: 99                           	cdq
c010495c: f7 7b 04                     	idiv	dword ptr [ebx + 4]
c010495f: 89 53 10                     	mov	dword ptr [ebx + 16], edx
c0104962: 56                           	push	esi
c0104963: e8 1b f2 ff ff               	call	0xc0103b83 <spinlock_release>
c0104968: 8b 43 14                     	mov	eax, dword ptr [ebx + 20]
c010496b: 83 c4 10                     	add	esp, 16
c010496e: 89 45 08                     	mov	dword ptr [ebp + 8], eax
c0104971: 8d 65 f4                     	lea	esp, [ebp - 12]
c0104974: 5b                           	pop	ebx
c0104975: 5e                           	pop	esi
c0104976: 5f                           	pop	edi
c0104977: 5d                           	pop	ebp
c0104978: e9 11 f3 ff ff               	jmp	0xc0103c8e <semaphore_release>

c010497d <adt_blocking_byte_buffer_get>:
c010497d: 55                           	push	ebp
c010497e: 89 e5                        	mov	ebp, esp
c0104980: 57                           	push	edi
c0104981: 56                           	push	esi
c0104982: 53                           	push	ebx
c0104983: 83 ec 18                     	sub	esp, 24
c0104986: 8b 5d 08                     	mov	ebx, dword ptr [ebp + 8]
c0104989: ff 73 14                     	push	dword ptr [ebx + 20]
c010498c: 8d 73 18                     	lea	esi, [ebx + 24]
c010498f: e8 3b f2 ff ff               	call	0xc0103bcf <semaphore_acquire>
c0104994: 89 34 24                     	mov	dword ptr [esp], esi
c0104997: e8 e2 f1 ff ff               	call	0xc0103b7e <spinlock_acquire>
c010499c: 8b 43 0c                     	mov	eax, dword ptr [ebx + 12]
c010499f: 8b 13                        	mov	edx, dword ptr [ebx]
c01049a1: 0f b6 3c 02                  	movzx	edi, byte ptr [edx + eax]
c01049a5: 40                           	inc	eax
c01049a6: ff 4b 08                     	dec	dword ptr [ebx + 8]
c01049a9: 99                           	cdq
c01049aa: f7 7b 04                     	idiv	dword ptr [ebx + 4]
c01049ad: 89 53 0c                     	mov	dword ptr [ebx + 12], edx
c01049b0: 89 34 24                     	mov	dword ptr [esp], esi
c01049b3: e8 cb f1 ff ff               	call	0xc0103b83 <spinlock_release>
c01049b8: 8d 65 f4                     	lea	esp, [ebp - 12]
c01049bb: 89 f8                        	mov	eax, edi
c01049bd: 5b                           	pop	ebx
c01049be: 5e                           	pop	esi
c01049bf: 5f                           	pop	edi
c01049c0: 5d                           	pop	ebp
c01049c1: c3                           	ret

c01049c2 <adt_blocking_byte_buffer_try_get>:
c01049c2: 55                           	push	ebp
c01049c3: 89 e5                        	mov	ebp, esp
c01049c5: 57                           	push	edi
c01049c6: 56                           	push	esi
c01049c7: 53                           	push	ebx
c01049c8: 83 ec 18                     	sub	esp, 24
c01049cb: 8b 5d 08                     	mov	ebx, dword ptr [ebp + 8]
c01049ce: ff 73 14                     	push	dword ptr [ebx + 20]
c01049d1: e8 68 f2 ff ff               	call	0xc0103c3e <semaphore_try_acquire>
c01049d6: 83 c4 10                     	add	esp, 16
c01049d9: 89 c6                        	mov	esi, eax
c01049db: 85 c0                        	test	eax, eax
c01049dd: 75 32                        	jne	0xc0104a11 <adt_blocking_byte_buffer_try_get+0x4f>
c01049df: 83 ec 0c                     	sub	esp, 12
c01049e2: 8d 7b 18                     	lea	edi, [ebx + 24]
c01049e5: 57                           	push	edi
c01049e6: e8 93 f1 ff ff               	call	0xc0103b7e <spinlock_acquire>
c01049eb: 8b 43 0c                     	mov	eax, dword ptr [ebx + 12]
c01049ee: 8b 13                        	mov	edx, dword ptr [ebx]
c01049f0: 8a 14 02                     	mov	dl, byte ptr [edx + eax]
c01049f3: 8b 45 0c                     	mov	eax, dword ptr [ebp + 12]
c01049f6: 88 10                        	mov	byte ptr [eax], dl
c01049f8: 8b 43 0c                     	mov	eax, dword ptr [ebx + 12]
c01049fb: ff 4b 08                     	dec	dword ptr [ebx + 8]
c01049fe: 40                           	inc	eax
c01049ff: 99                           	cdq
c0104a00: f7 7b 04                     	idiv	dword ptr [ebx + 4]
c0104a03: 89 53 0c                     	mov	dword ptr [ebx + 12], edx
c0104a06: 89 3c 24                     	mov	dword ptr [esp], edi
c0104a09: e8 75 f1 ff ff               	call	0xc0103b83 <spinlock_release>
c0104a0e: 83 c4 10                     	add	esp, 16
c0104a11: 8d 65 f4                     	lea	esp, [ebp - 12]
c0104a14: 89 f0                        	mov	eax, esi
c0104a16: 5b                           	pop	ebx
c0104a17: 5e                           	pop	esi
c0104a18: 5f                           	pop	edi
c0104a19: 5d                           	pop	ebp
c0104a1a: c3                           	ret

c0104a1b <adt_hashmap_create>:
c0104a1b: 55                           	push	ebp
c0104a1c: 89 e5                        	mov	ebp, esp
c0104a1e: 56                           	push	esi
c0104a1f: 53                           	push	ebx
c0104a20: 8b 75 08                     	mov	esi, dword ptr [ebp + 8]
c0104a23: 83 ec 0c                     	sub	esp, 12
c0104a26: 6a 14                        	push	20
c0104a28: e8 d8 d9 ff ff               	call	0xc0102405 <malloc>
c0104a2d: 83 c4 10                     	add	esp, 16
c0104a30: 85 f6                        	test	esi, esi
c0104a32: 7f 0d                        	jg	0xc0104a41 <adt_hashmap_create+0x26>
c0104a34: 83 ec 0c                     	sub	esp, 12
c0104a37: 68 69 ac 10 c0               	push	3222318185
c0104a3c: e8 0a 08 00 00               	call	0xc010524b <panic>
c0104a41: 89 c3                        	mov	ebx, eax
c0104a43: 8b 45 10                     	mov	eax, dword ptr [ebp + 16]
c0104a46: 83 ec 0c                     	sub	esp, 12
c0104a49: 89 73 0c                     	mov	dword ptr [ebx + 12], esi
c0104a4c: 89 43 04                     	mov	dword ptr [ebx + 4], eax
c0104a4f: 8b 45 0c                     	mov	eax, dword ptr [ebp + 12]
c0104a52: 89 03                        	mov	dword ptr [ebx], eax
c0104a54: 31 c0                        	xor	eax, eax
c0104a56: 89 43 10                     	mov	dword ptr [ebx + 16], eax
c0104a59: 8d 04 b5 00 00 00 00         	lea	eax, [4*esi]
c0104a60: 50                           	push	eax
c0104a61: e8 9f d9 ff ff               	call	0xc0102405 <malloc>
c0104a66: 83 c4 10                     	add	esp, 16
c0104a69: 89 43 08                     	mov	dword ptr [ebx + 8], eax
c0104a6c: 31 c0                        	xor	eax, eax
c0104a6e: 8b 53 08                     	mov	edx, dword ptr [ebx + 8]
c0104a71: 31 c9                        	xor	ecx, ecx
c0104a73: 89 0c 82                     	mov	dword ptr [edx + 4*eax], ecx
c0104a76: 40                           	inc	eax
c0104a77: 39 c6                        	cmp	esi, eax
c0104a79: 75 f3                        	jne	0xc0104a6e <adt_hashmap_create+0x53>
c0104a7b: 8d 65 f8                     	lea	esp, [ebp - 8]
c0104a7e: 89 d8                        	mov	eax, ebx
c0104a80: 5b                           	pop	ebx
c0104a81: 5e                           	pop	esi
c0104a82: 5d                           	pop	ebp
c0104a83: c3                           	ret

c0104a84 <adt_hashmap_contains>:
c0104a84: 55                           	push	ebp
c0104a85: 89 e5                        	mov	ebp, esp
c0104a87: 57                           	push	edi
c0104a88: 56                           	push	esi
c0104a89: 53                           	push	ebx
c0104a8a: 83 ec 18                     	sub	esp, 24
c0104a8d: 8b 5d 08                     	mov	ebx, dword ptr [ebp + 8]
c0104a90: 8b 7d 0c                     	mov	edi, dword ptr [ebp + 12]
c0104a93: 57                           	push	edi
c0104a94: ff 13                        	call	dword ptr [ebx]
c0104a96: 31 d2                        	xor	edx, edx
c0104a98: f7 73 0c                     	div	dword ptr [ebx + 12]
c0104a9b: 8b 43 08                     	mov	eax, dword ptr [ebx + 8]
c0104a9e: 83 c4 10                     	add	esp, 16
c0104aa1: 8b 34 90                     	mov	esi, dword ptr [eax + 4*edx]
c0104aa4: 85 f6                        	test	esi, esi
c0104aa6: 75 04                        	jne	0xc0104aac <adt_hashmap_contains+0x28>
c0104aa8: 31 c0                        	xor	eax, eax
c0104aaa: eb 3b                        	jmp	0xc0104ae7 <adt_hashmap_contains+0x63>
c0104aac: 83 ec 0c                     	sub	esp, 12
c0104aaf: 56                           	push	esi
c0104ab0: e8 20 03 00 00               	call	0xc0104dd5 <adt_list_reset>
c0104ab5: 83 c4 10                     	add	esp, 16
c0104ab8: 83 ec 0c                     	sub	esp, 12
c0104abb: 56                           	push	esi
c0104abc: e8 25 03 00 00               	call	0xc0104de6 <adt_list_has_next>
c0104ac1: 83 c4 10                     	add	esp, 16
c0104ac4: 84 c0                        	test	al, al
c0104ac6: 74 e0                        	je	0xc0104aa8 <adt_hashmap_contains+0x24>
c0104ac8: 83 ec 0c                     	sub	esp, 12
c0104acb: 56                           	push	esi
c0104acc: e8 3a 03 00 00               	call	0xc0104e0b <adt_list_get_next>
c0104ad1: 83 c4 10                     	add	esp, 16
c0104ad4: 85 c0                        	test	eax, eax
c0104ad6: 74 e0                        	je	0xc0104ab8 <adt_hashmap_contains+0x34>
c0104ad8: 52                           	push	edx
c0104ad9: 52                           	push	edx
c0104ada: 57                           	push	edi
c0104adb: ff 30                        	push	dword ptr [eax]
c0104add: ff 53 04                     	call	dword ptr [ebx + 4]
c0104ae0: 83 c4 10                     	add	esp, 16
c0104ae3: 84 c0                        	test	al, al
c0104ae5: 74 d1                        	je	0xc0104ab8 <adt_hashmap_contains+0x34>
c0104ae7: 8d 65 f4                     	lea	esp, [ebp - 12]
c0104aea: 5b                           	pop	ebx
c0104aeb: 5e                           	pop	esi
c0104aec: 5f                           	pop	edi
c0104aed: 5d                           	pop	ebp
c0104aee: c3                           	ret

c0104aef <adt_hashmap_add>:
c0104aef: 55                           	push	ebp
c0104af0: 89 e5                        	mov	ebp, esp
c0104af2: 57                           	push	edi
c0104af3: 56                           	push	esi
c0104af4: 53                           	push	ebx
c0104af5: 83 ec 28                     	sub	esp, 40
c0104af8: 8b 5d 08                     	mov	ebx, dword ptr [ebp + 8]
c0104afb: 8b 75 0c                     	mov	esi, dword ptr [ebp + 12]
c0104afe: 8b 7d 10                     	mov	edi, dword ptr [ebp + 16]
c0104b01: 56                           	push	esi
c0104b02: ff 13                        	call	dword ptr [ebx]
c0104b04: 31 d2                        	xor	edx, edx
c0104b06: f7 73 0c                     	div	dword ptr [ebx + 12]
c0104b09: 8b 43 08                     	mov	eax, dword ptr [ebx + 8]
c0104b0c: 83 c4 10                     	add	esp, 16
c0104b0f: 8d 0c 90                     	lea	ecx, [eax + 4*edx]
c0104b12: 83 39 00                     	cmp	dword ptr [ecx], 0
c0104b15: 75 13                        	jne	0xc0104b2a <adt_hashmap_add+0x3b>
c0104b17: 89 55 e0                     	mov	dword ptr [ebp - 32], edx
c0104b1a: 89 4d e4                     	mov	dword ptr [ebp - 28], ecx
c0104b1d: e8 fb 00 00 00               	call	0xc0104c1d <adt_list_create>
c0104b22: 8b 4d e4                     	mov	ecx, dword ptr [ebp - 28]
c0104b25: 8b 55 e0                     	mov	edx, dword ptr [ebp - 32]
c0104b28: 89 01                        	mov	dword ptr [ecx], eax
c0104b2a: 8b 43 08                     	mov	eax, dword ptr [ebx + 8]
c0104b2d: 83 ec 0c                     	sub	esp, 12
c0104b30: 8b 14 90                     	mov	edx, dword ptr [eax + 4*edx]
c0104b33: 89 55 e4                     	mov	dword ptr [ebp - 28], edx
c0104b36: 6a 08                        	push	8
c0104b38: e8 c8 d8 ff ff               	call	0xc0102405 <malloc>
c0104b3d: 8b 55 e4                     	mov	edx, dword ptr [ebp - 28]
c0104b40: 83 c4 10                     	add	esp, 16
c0104b43: 89 30                        	mov	dword ptr [eax], esi
c0104b45: 89 78 04                     	mov	dword ptr [eax + 4], edi
c0104b48: ff 43 10                     	inc	dword ptr [ebx + 16]
c0104b4b: 89 45 0c                     	mov	dword ptr [ebp + 12], eax
c0104b4e: 89 55 08                     	mov	dword ptr [ebp + 8], edx
c0104b51: 8d 65 f4                     	lea	esp, [ebp - 12]
c0104b54: 5b                           	pop	ebx
c0104b55: 5e                           	pop	esi
c0104b56: 5f                           	pop	edi
c0104b57: 5d                           	pop	ebp
c0104b58: e9 1c 01 00 00               	jmp	0xc0104c79 <adt_list_add_back>

c0104b5d <adt_hashmap_get>:
c0104b5d: 55                           	push	ebp
c0104b5e: 89 e5                        	mov	ebp, esp
c0104b60: 57                           	push	edi
c0104b61: 56                           	push	esi
c0104b62: 53                           	push	ebx
c0104b63: 83 ec 18                     	sub	esp, 24
c0104b66: 8b 75 08                     	mov	esi, dword ptr [ebp + 8]
c0104b69: ff 75 0c                     	push	dword ptr [ebp + 12]
c0104b6c: ff 16                        	call	dword ptr [esi]
c0104b6e: 31 d2                        	xor	edx, edx
c0104b70: f7 76 0c                     	div	dword ptr [esi + 12]
c0104b73: 8b 46 08                     	mov	eax, dword ptr [esi + 8]
c0104b76: 83 c4 10                     	add	esp, 16
c0104b79: 8b 1c 90                     	mov	ebx, dword ptr [eax + 4*edx]
c0104b7c: 85 db                        	test	ebx, ebx
c0104b7e: 74 51                        	je	0xc0104bd1 <adt_hashmap_get+0x74>
c0104b80: 83 ec 0c                     	sub	esp, 12
c0104b83: 53                           	push	ebx
c0104b84: e8 4c 02 00 00               	call	0xc0104dd5 <adt_list_reset>
c0104b89: 83 c4 10                     	add	esp, 16
c0104b8c: 83 ec 0c                     	sub	esp, 12
c0104b8f: 53                           	push	ebx
c0104b90: e8 51 02 00 00               	call	0xc0104de6 <adt_list_has_next>
c0104b95: 83 c4 10                     	add	esp, 16
c0104b98: 84 c0                        	test	al, al
c0104b9a: 74 28                        	je	0xc0104bc4 <adt_hashmap_get+0x67>
c0104b9c: 83 ec 0c                     	sub	esp, 12
c0104b9f: 53                           	push	ebx
c0104ba0: e8 66 02 00 00               	call	0xc0104e0b <adt_list_get_next>
c0104ba5: 83 c4 10                     	add	esp, 16
c0104ba8: 89 c7                        	mov	edi, eax
c0104baa: 85 c0                        	test	eax, eax
c0104bac: 74 de                        	je	0xc0104b8c <adt_hashmap_get+0x2f>
c0104bae: 50                           	push	eax
c0104baf: 50                           	push	eax
c0104bb0: ff 75 0c                     	push	dword ptr [ebp + 12]
c0104bb3: ff 37                        	push	dword ptr [edi]
c0104bb5: ff 56 04                     	call	dword ptr [esi + 4]
c0104bb8: 83 c4 10                     	add	esp, 16
c0104bbb: 84 c0                        	test	al, al
c0104bbd: 74 cd                        	je	0xc0104b8c <adt_hashmap_get+0x2f>
c0104bbf: 8b 5f 04                     	mov	ebx, dword ptr [edi + 4]
c0104bc2: eb 0d                        	jmp	0xc0104bd1 <adt_hashmap_get+0x74>
c0104bc4: 83 ec 0c                     	sub	esp, 12
c0104bc7: 68 9d ac 10 c0               	push	3222318237
c0104bcc: e8 7a 06 00 00               	call	0xc010524b <panic>
c0104bd1: 8d 65 f4                     	lea	esp, [ebp - 12]
c0104bd4: 89 d8                        	mov	eax, ebx
c0104bd6: 5b                           	pop	ebx
c0104bd7: 5e                           	pop	esi
c0104bd8: 5f                           	pop	edi
c0104bd9: 5d                           	pop	ebp
c0104bda: c3                           	ret

c0104bdb <adt_hashmap_size>:
c0104bdb: 55                           	push	ebp
c0104bdc: 89 e5                        	mov	ebp, esp
c0104bde: 8b 45 08                     	mov	eax, dword ptr [ebp + 8]
c0104be1: 5d                           	pop	ebp
c0104be2: 8b 40 10                     	mov	eax, dword ptr [eax + 16]
c0104be5: c3                           	ret

c0104be6 <adt_hashmap_null_terminated_string_hash_function>:
c0104be6: 55                           	push	ebp
c0104be7: b8 05 15 00 00               	mov	eax, 5381
c0104bec: 89 e5                        	mov	ebp, esp
c0104bee: 8b 4d 08                     	mov	ecx, dword ptr [ebp + 8]
c0104bf1: 0f be 11                     	movsx	edx, byte ptr [ecx]
c0104bf4: 41                           	inc	ecx
c0104bf5: 84 d2                        	test	dl, dl
c0104bf7: 74 07                        	je	0xc0104c00 <adt_hashmap_null_terminated_string_hash_function+0x1a>
c0104bf9: 6b c0 21                     	imul	eax, eax, 33
c0104bfc: 01 d0                        	add	eax, edx
c0104bfe: eb f1                        	jmp	0xc0104bf1 <adt_hashmap_null_terminated_string_hash_function+0xb>
c0104c00: 5d                           	pop	ebp
c0104c01: c3                           	ret

c0104c02 <adt_hashmap_null_terminated_string_equality_function>:
c0104c02: 55                           	push	ebp
c0104c03: 89 e5                        	mov	ebp, esp
c0104c05: 83 ec 10                     	sub	esp, 16
c0104c08: ff 75 0c                     	push	dword ptr [ebp + 12]
c0104c0b: ff 75 08                     	push	dword ptr [ebp + 8]
c0104c0e: e8 bb c6 ff ff               	call	0xc01012ce <strcmp>
c0104c13: 83 c4 10                     	add	esp, 16
c0104c16: c9                           	leave
c0104c17: 85 c0                        	test	eax, eax
c0104c19: 0f 94 c0                     	sete	al
c0104c1c: c3                           	ret

c0104c1d <adt_list_create>:
c0104c1d: 55                           	push	ebp
c0104c1e: 89 e5                        	mov	ebp, esp
c0104c20: 83 ec 14                     	sub	esp, 20
c0104c23: 6a 14                        	push	20
c0104c25: e8 db d7 ff ff               	call	0xc0102405 <malloc>
c0104c2a: 31 d2                        	xor	edx, edx
c0104c2c: 89 10                        	mov	dword ptr [eax], edx
c0104c2e: 89 50 04                     	mov	dword ptr [eax + 4], edx
c0104c31: 89 50 0c                     	mov	dword ptr [eax + 12], edx
c0104c34: 89 50 08                     	mov	dword ptr [eax + 8], edx
c0104c37: c6 40 10 00                  	mov	byte ptr [eax + 16], 0
c0104c3b: c9                           	leave
c0104c3c: c3                           	ret

c0104c3d <adt_list_add_front>:
c0104c3d: 55                           	push	ebp
c0104c3e: 89 e5                        	mov	ebp, esp
c0104c40: 53                           	push	ebx
c0104c41: 83 ec 10                     	sub	esp, 16
c0104c44: 8b 5d 08                     	mov	ebx, dword ptr [ebp + 8]
c0104c47: 6a 08                        	push	8
c0104c49: e8 b7 d7 ff ff               	call	0xc0102405 <malloc>
c0104c4e: 8b 55 0c                     	mov	edx, dword ptr [ebp + 12]
c0104c51: 83 c4 10                     	add	esp, 16
c0104c54: 89 10                        	mov	dword ptr [eax], edx
c0104c56: 31 d2                        	xor	edx, edx
c0104c58: 89 50 04                     	mov	dword ptr [eax + 4], edx
c0104c5b: 83 7b 08 00                  	cmp	dword ptr [ebx + 8], 0
c0104c5f: 75 05                        	jne	0xc0104c66 <adt_list_add_front+0x29>
c0104c61: 89 43 04                     	mov	dword ptr [ebx + 4], eax
c0104c64: eb 05                        	jmp	0xc0104c6b <adt_list_add_front+0x2e>
c0104c66: 8b 13                        	mov	edx, dword ptr [ebx]
c0104c68: 89 50 04                     	mov	dword ptr [eax + 4], edx
c0104c6b: ff 43 08                     	inc	dword ptr [ebx + 8]
c0104c6e: 89 03                        	mov	dword ptr [ebx], eax
c0104c70: c6 43 10 01                  	mov	byte ptr [ebx + 16], 1
c0104c74: 8b 5d fc                     	mov	ebx, dword ptr [ebp - 4]
c0104c77: c9                           	leave
c0104c78: c3                           	ret

c0104c79 <adt_list_add_back>:
c0104c79: 55                           	push	ebp
c0104c7a: 89 e5                        	mov	ebp, esp
c0104c7c: 53                           	push	ebx
c0104c7d: 83 ec 10                     	sub	esp, 16
c0104c80: 8b 5d 08                     	mov	ebx, dword ptr [ebp + 8]
c0104c83: 6a 08                        	push	8
c0104c85: e8 7b d7 ff ff               	call	0xc0102405 <malloc>
c0104c8a: 8b 55 0c                     	mov	edx, dword ptr [ebp + 12]
c0104c8d: 83 c4 10                     	add	esp, 16
c0104c90: 89 10                        	mov	dword ptr [eax], edx
c0104c92: 31 d2                        	xor	edx, edx
c0104c94: 89 50 04                     	mov	dword ptr [eax + 4], edx
c0104c97: 83 7b 08 00                  	cmp	dword ptr [ebx + 8], 0
c0104c9b: 75 04                        	jne	0xc0104ca1 <adt_list_add_back+0x28>
c0104c9d: 89 03                        	mov	dword ptr [ebx], eax
c0104c9f: eb 06                        	jmp	0xc0104ca7 <adt_list_add_back+0x2e>
c0104ca1: 8b 53 04                     	mov	edx, dword ptr [ebx + 4]
c0104ca4: 89 42 04                     	mov	dword ptr [edx + 4], eax
c0104ca7: ff 43 08                     	inc	dword ptr [ebx + 8]
c0104caa: 89 43 04                     	mov	dword ptr [ebx + 4], eax
c0104cad: c6 43 10 01                  	mov	byte ptr [ebx + 16], 1
c0104cb1: 8b 5d fc                     	mov	ebx, dword ptr [ebp - 4]
c0104cb4: c9                           	leave
c0104cb5: c3                           	ret

c0104cb6 <adt_list_remove_front>:
c0104cb6: 55                           	push	ebp
c0104cb7: 89 e5                        	mov	ebp, esp
c0104cb9: 53                           	push	ebx
c0104cba: 50                           	push	eax
c0104cbb: 8b 45 08                     	mov	eax, dword ptr [ebp + 8]
c0104cbe: 8b 50 08                     	mov	edx, dword ptr [eax + 8]
c0104cc1: 85 d2                        	test	edx, edx
c0104cc3: 75 0d                        	jne	0xc0104cd2 <adt_list_remove_front+0x1c>
c0104cc5: 83 ec 0c                     	sub	esp, 12
c0104cc8: 68 e2 ac 10 c0               	push	3222318306
c0104ccd: e8 79 05 00 00               	call	0xc010524b <panic>
c0104cd2: 8b 08                        	mov	ecx, dword ptr [eax]
c0104cd4: 8b 59 04                     	mov	ebx, dword ptr [ecx + 4]
c0104cd7: 89 18                        	mov	dword ptr [eax], ebx
c0104cd9: 85 db                        	test	ebx, ebx
c0104cdb: 75 05                        	jne	0xc0104ce2 <adt_list_remove_front+0x2c>
c0104cdd: 31 db                        	xor	ebx, ebx
c0104cdf: 89 58 04                     	mov	dword ptr [eax + 4], ebx
c0104ce2: 83 ec 0c                     	sub	esp, 12
c0104ce5: 4a                           	dec	edx
c0104ce6: c6 40 10 01                  	mov	byte ptr [eax + 16], 1
c0104cea: 89 50 08                     	mov	dword ptr [eax + 8], edx
c0104ced: 8b 19                        	mov	ebx, dword ptr [ecx]
c0104cef: 51                           	push	ecx
c0104cf0: e8 2f d8 ff ff               	call	0xc0102524 <free>
c0104cf5: 89 d8                        	mov	eax, ebx
c0104cf7: 8b 5d fc                     	mov	ebx, dword ptr [ebp - 4]
c0104cfa: c9                           	leave
c0104cfb: c3                           	ret

c0104cfc <adt_list_destroy>:
c0104cfc: 55                           	push	ebp
c0104cfd: 89 e5                        	mov	ebp, esp
c0104cff: 53                           	push	ebx
c0104d00: 50                           	push	eax
c0104d01: 8b 5d 08                     	mov	ebx, dword ptr [ebp + 8]
c0104d04: 83 7b 08 00                  	cmp	dword ptr [ebx + 8], 0
c0104d08: 7e 0e                        	jle	0xc0104d18 <adt_list_destroy+0x1c>
c0104d0a: 83 ec 0c                     	sub	esp, 12
c0104d0d: 53                           	push	ebx
c0104d0e: e8 a3 ff ff ff               	call	0xc0104cb6 <adt_list_remove_front>
c0104d13: 83 c4 10                     	add	esp, 16
c0104d16: eb ec                        	jmp	0xc0104d04 <adt_list_destroy+0x8>
c0104d18: 89 5d 08                     	mov	dword ptr [ebp + 8], ebx
c0104d1b: 8b 5d fc                     	mov	ebx, dword ptr [ebp - 4]
c0104d1e: c9                           	leave
c0104d1f: e9 00 d8 ff ff               	jmp	0xc0102524 <free>

c0104d24 <adt_list_remove_back>:
c0104d24: 55                           	push	ebp
c0104d25: 89 e5                        	mov	ebp, esp
c0104d27: 53                           	push	ebx
c0104d28: 51                           	push	ecx
c0104d29: 8b 45 08                     	mov	eax, dword ptr [ebp + 8]
c0104d2c: 83 78 08 00                  	cmp	dword ptr [eax + 8], 0
c0104d30: 75 0d                        	jne	0xc0104d3f <adt_list_remove_back+0x1b>
c0104d32: 83 ec 0c                     	sub	esp, 12
c0104d35: 68 07 ad 10 c0               	push	3222318343
c0104d3a: e8 0c 05 00 00               	call	0xc010524b <panic>
c0104d3f: 8b 48 04                     	mov	ecx, dword ptr [eax + 4]
c0104d42: 8b 10                        	mov	edx, dword ptr [eax]
c0104d44: 39 ca                        	cmp	edx, ecx
c0104d46: 75 0b                        	jne	0xc0104d53 <adt_list_remove_back+0x2f>
c0104d48: 31 d2                        	xor	edx, edx
c0104d4a: 89 10                        	mov	dword ptr [eax], edx
c0104d4c: 89 50 04                     	mov	dword ptr [eax + 4], edx
c0104d4f: eb 1b                        	jmp	0xc0104d6c <adt_list_remove_back+0x48>
c0104d51: 89 da                        	mov	edx, ebx
c0104d53: 89 50 0c                     	mov	dword ptr [eax + 12], edx
c0104d56: 85 d2                        	test	edx, edx
c0104d58: 74 12                        	je	0xc0104d6c <adt_list_remove_back+0x48>
c0104d5a: 8b 5a 04                     	mov	ebx, dword ptr [edx + 4]
c0104d5d: 39 cb                        	cmp	ebx, ecx
c0104d5f: 75 f0                        	jne	0xc0104d51 <adt_list_remove_back+0x2d>
c0104d61: 31 db                        	xor	ebx, ebx
c0104d63: 89 5a 04                     	mov	dword ptr [edx + 4], ebx
c0104d66: 8b 50 0c                     	mov	edx, dword ptr [eax + 12]
c0104d69: 89 50 04                     	mov	dword ptr [eax + 4], edx
c0104d6c: ff 48 08                     	dec	dword ptr [eax + 8]
c0104d6f: 83 ec 0c                     	sub	esp, 12
c0104d72: c6 40 10 01                  	mov	byte ptr [eax + 16], 1
c0104d76: 8b 19                        	mov	ebx, dword ptr [ecx]
c0104d78: 51                           	push	ecx
c0104d79: e8 a6 d7 ff ff               	call	0xc0102524 <free>
c0104d7e: 89 d8                        	mov	eax, ebx
c0104d80: 8b 5d fc                     	mov	ebx, dword ptr [ebp - 4]
c0104d83: c9                           	leave
c0104d84: c3                           	ret

c0104d85 <adt_list_get_front>:
c0104d85: 55                           	push	ebp
c0104d86: 89 e5                        	mov	ebp, esp
c0104d88: 83 ec 08                     	sub	esp, 8
c0104d8b: 8b 45 08                     	mov	eax, dword ptr [ebp + 8]
c0104d8e: 83 78 08 00                  	cmp	dword ptr [eax + 8], 0
c0104d92: 75 0d                        	jne	0xc0104da1 <adt_list_get_front+0x1c>
c0104d94: 83 ec 0c                     	sub	esp, 12
c0104d97: 68 2b ad 10 c0               	push	3222318379
c0104d9c: e8 aa 04 00 00               	call	0xc010524b <panic>
c0104da1: 8b 00                        	mov	eax, dword ptr [eax]
c0104da3: 8b 00                        	mov	eax, dword ptr [eax]
c0104da5: c9                           	leave
c0104da6: c3                           	ret

c0104da7 <adt_list_get_back>:
c0104da7: 55                           	push	ebp
c0104da8: 89 e5                        	mov	ebp, esp
c0104daa: 83 ec 08                     	sub	esp, 8
c0104dad: 8b 45 08                     	mov	eax, dword ptr [ebp + 8]
c0104db0: 83 78 08 00                  	cmp	dword ptr [eax + 8], 0
c0104db4: 75 0d                        	jne	0xc0104dc3 <adt_list_get_back+0x1c>
c0104db6: 83 ec 0c                     	sub	esp, 12
c0104db9: 68 4d ad 10 c0               	push	3222318413
c0104dbe: e8 88 04 00 00               	call	0xc010524b <panic>
c0104dc3: 8b 40 04                     	mov	eax, dword ptr [eax + 4]
c0104dc6: 8b 00                        	mov	eax, dword ptr [eax]
c0104dc8: c9                           	leave
c0104dc9: c3                           	ret

c0104dca <adt_list_size>:
c0104dca: 55                           	push	ebp
c0104dcb: 89 e5                        	mov	ebp, esp
c0104dcd: 8b 45 08                     	mov	eax, dword ptr [ebp + 8]
c0104dd0: 5d                           	pop	ebp
c0104dd1: 8b 40 08                     	mov	eax, dword ptr [eax + 8]
c0104dd4: c3                           	ret

c0104dd5 <adt_list_reset>:
c0104dd5: 55                           	push	ebp
c0104dd6: 89 e5                        	mov	ebp, esp
c0104dd8: 8b 45 08                     	mov	eax, dword ptr [ebp + 8]
c0104ddb: 8b 10                        	mov	edx, dword ptr [eax]
c0104ddd: c6 40 10 00                  	mov	byte ptr [eax + 16], 0
c0104de1: 89 50 0c                     	mov	dword ptr [eax + 12], edx
c0104de4: 5d                           	pop	ebp
c0104de5: c3                           	ret

c0104de6 <adt_list_has_next>:
c0104de6: 55                           	push	ebp
c0104de7: 89 e5                        	mov	ebp, esp
c0104de9: 83 ec 08                     	sub	esp, 8
c0104dec: 8b 45 08                     	mov	eax, dword ptr [ebp + 8]
c0104def: 80 78 10 00                  	cmp	byte ptr [eax + 16], 0
c0104df3: 74 0d                        	je	0xc0104e02 <adt_list_has_next+0x1c>
c0104df5: 83 ec 0c                     	sub	esp, 12
c0104df8: 68 6e ad 10 c0               	push	3222318446
c0104dfd: e8 49 04 00 00               	call	0xc010524b <panic>
c0104e02: 83 78 0c 00                  	cmp	dword ptr [eax + 12], 0
c0104e06: c9                           	leave
c0104e07: 0f 95 c0                     	setne	al
c0104e0a: c3                           	ret

c0104e0b <adt_list_get_next>:
c0104e0b: 55                           	push	ebp
c0104e0c: 89 e5                        	mov	ebp, esp
c0104e0e: 83 ec 08                     	sub	esp, 8
c0104e11: 8b 45 08                     	mov	eax, dword ptr [ebp + 8]
c0104e14: 80 78 10 00                  	cmp	byte ptr [eax + 16], 0
c0104e18: 74 0a                        	je	0xc0104e24 <adt_list_get_next+0x19>
c0104e1a: 83 ec 0c                     	sub	esp, 12
c0104e1d: 68 9f ad 10 c0               	push	3222318495
c0104e22: eb 0f                        	jmp	0xc0104e33 <adt_list_get_next+0x28>
c0104e24: 8b 50 0c                     	mov	edx, dword ptr [eax + 12]
c0104e27: 85 d2                        	test	edx, edx
c0104e29: 75 0d                        	jne	0xc0104e38 <adt_list_get_next+0x2d>
c0104e2b: 83 ec 0c                     	sub	esp, 12
c0104e2e: 68 d0 ad 10 c0               	push	3222318544
c0104e33: e8 13 04 00 00               	call	0xc010524b <panic>
c0104e38: 8b 0a                        	mov	ecx, dword ptr [edx]
c0104e3a: 8b 52 04                     	mov	edx, dword ptr [edx + 4]
c0104e3d: 89 50 0c                     	mov	dword ptr [eax + 12], edx
c0104e40: 89 c8                        	mov	eax, ecx
c0104e42: c9                           	leave
c0104e43: c3                           	ret

c0104e44 <adt_list_circulate>:
c0104e44: 55                           	push	ebp
c0104e45: 89 e5                        	mov	ebp, esp
c0104e47: 56                           	push	esi
c0104e48: 83 ec 20                     	sub	esp, 32
c0104e4b: 8b 75 08                     	mov	esi, dword ptr [ebp + 8]
c0104e4e: 56                           	push	esi
c0104e4f: e8 62 fe ff ff               	call	0xc0104cb6 <adt_list_remove_front>
c0104e54: 5a                           	pop	edx
c0104e55: 59                           	pop	ecx
c0104e56: 50                           	push	eax
c0104e57: 56                           	push	esi
c0104e58: 89 45 f4                     	mov	dword ptr [ebp - 12], eax
c0104e5b: e8 19 fe ff ff               	call	0xc0104c79 <adt_list_add_back>
c0104e60: 8b 45 f4                     	mov	eax, dword ptr [ebp - 12]
c0104e63: 8b 75 fc                     	mov	esi, dword ptr [ebp - 4]
c0104e66: c9                           	leave
c0104e67: c3                           	ret

c0104e68 <adt_list_remove_element>:
c0104e68: 55                           	push	ebp
c0104e69: 89 e5                        	mov	ebp, esp
c0104e6b: 56                           	push	esi
c0104e6c: 53                           	push	ebx
c0104e6d: 8b 45 08                     	mov	eax, dword ptr [ebp + 8]
c0104e70: 83 78 08 00                  	cmp	dword ptr [eax + 8], 0
c0104e74: 75 0d                        	jne	0xc0104e83 <adt_list_remove_element+0x1b>
c0104e76: 83 ec 0c                     	sub	esp, 12
c0104e79: 68 f3 ad 10 c0               	push	3222318579
c0104e7e: e8 c8 03 00 00               	call	0xc010524b <panic>
c0104e83: 8b 10                        	mov	edx, dword ptr [eax]
c0104e85: 31 c9                        	xor	ecx, ecx
c0104e87: 89 50 0c                     	mov	dword ptr [eax + 12], edx
c0104e8a: 85 d2                        	test	edx, edx
c0104e8c: 74 42                        	je	0xc0104ed0 <adt_list_remove_element+0x68>
c0104e8e: 8b 5a 04                     	mov	ebx, dword ptr [edx + 4]
c0104e91: 8b 75 0c                     	mov	esi, dword ptr [ebp + 12]
c0104e94: 39 32                        	cmp	dword ptr [edx], esi
c0104e96: 75 32                        	jne	0xc0104eca <adt_list_remove_element+0x62>
c0104e98: 85 c9                        	test	ecx, ecx
c0104e9a: 75 0d                        	jne	0xc0104ea9 <adt_list_remove_element+0x41>
c0104e9c: 89 18                        	mov	dword ptr [eax], ebx
c0104e9e: 85 db                        	test	ebx, ebx
c0104ea0: 75 0a                        	jne	0xc0104eac <adt_list_remove_element+0x44>
c0104ea2: 31 c9                        	xor	ecx, ecx
c0104ea4: 89 48 04                     	mov	dword ptr [eax + 4], ecx
c0104ea7: eb 16                        	jmp	0xc0104ebf <adt_list_remove_element+0x57>
c0104ea9: 89 59 04                     	mov	dword ptr [ecx + 4], ebx
c0104eac: 8b 70 04                     	mov	esi, dword ptr [eax + 4]
c0104eaf: 39 70 0c                     	cmp	dword ptr [eax + 12], esi
c0104eb2: 75 0b                        	jne	0xc0104ebf <adt_list_remove_element+0x57>
c0104eb4: 89 48 04                     	mov	dword ptr [eax + 4], ecx
c0104eb7: 85 c9                        	test	ecx, ecx
c0104eb9: 75 04                        	jne	0xc0104ebf <adt_list_remove_element+0x57>
c0104ebb: 31 d2                        	xor	edx, edx
c0104ebd: 89 10                        	mov	dword ptr [eax], edx
c0104ebf: ff 48 08                     	dec	dword ptr [eax + 8]
c0104ec2: c6 40 10 01                  	mov	byte ptr [eax + 16], 1
c0104ec6: b0 01                        	mov	al, 1
c0104ec8: eb 08                        	jmp	0xc0104ed2 <adt_list_remove_element+0x6a>
c0104eca: 89 d1                        	mov	ecx, edx
c0104ecc: 89 da                        	mov	edx, ebx
c0104ece: eb b7                        	jmp	0xc0104e87 <adt_list_remove_element+0x1f>
c0104ed0: 31 c0                        	xor	eax, eax
c0104ed2: 8d 65 f8                     	lea	esp, [ebp - 8]
c0104ed5: 5b                           	pop	ebx
c0104ed6: 5e                           	pop	esi
c0104ed7: 5d                           	pop	ebp
c0104ed8: c3                           	ret

c0104ed9 <adt_stack_create>:
c0104ed9: 55                           	push	ebp
c0104eda: 89 e5                        	mov	ebp, esp
c0104edc: 53                           	push	ebx
c0104edd: 83 ec 10                     	sub	esp, 16
c0104ee0: 6a 04                        	push	4
c0104ee2: e8 1e d5 ff ff               	call	0xc0102405 <malloc>
c0104ee7: 89 c3                        	mov	ebx, eax
c0104ee9: e8 2f fd ff ff               	call	0xc0104c1d <adt_list_create>
c0104eee: 89 03                        	mov	dword ptr [ebx], eax
c0104ef0: 89 d8                        	mov	eax, ebx
c0104ef2: 8b 5d fc                     	mov	ebx, dword ptr [ebp - 4]
c0104ef5: c9                           	leave
c0104ef6: c3                           	ret

c0104ef7 <adt_stack_destroy>:
c0104ef7: 55                           	push	ebp
c0104ef8: 89 e5                        	mov	ebp, esp
c0104efa: 53                           	push	ebx
c0104efb: 83 ec 10                     	sub	esp, 16
c0104efe: 8b 5d 08                     	mov	ebx, dword ptr [ebp + 8]
c0104f01: ff 33                        	push	dword ptr [ebx]
c0104f03: e8 f4 fd ff ff               	call	0xc0104cfc <adt_list_destroy>
c0104f08: 89 5d 08                     	mov	dword ptr [ebp + 8], ebx
c0104f0b: 83 c4 10                     	add	esp, 16
c0104f0e: 8b 5d fc                     	mov	ebx, dword ptr [ebp - 4]
c0104f11: c9                           	leave
c0104f12: e9 0d d6 ff ff               	jmp	0xc0102524 <free>

c0104f17 <adt_stack_push>:
c0104f17: 55                           	push	ebp
c0104f18: 89 e5                        	mov	ebp, esp
c0104f1a: 8b 45 08                     	mov	eax, dword ptr [ebp + 8]
c0104f1d: 8b 00                        	mov	eax, dword ptr [eax]
c0104f1f: 89 45 08                     	mov	dword ptr [ebp + 8], eax
c0104f22: 5d                           	pop	ebp
c0104f23: e9 15 fd ff ff               	jmp	0xc0104c3d <adt_list_add_front>

c0104f28 <adt_stack_pop>:
c0104f28: 55                           	push	ebp
c0104f29: 89 e5                        	mov	ebp, esp
c0104f2b: 8b 45 08                     	mov	eax, dword ptr [ebp + 8]
c0104f2e: 8b 00                        	mov	eax, dword ptr [eax]
c0104f30: 89 45 08                     	mov	dword ptr [ebp + 8], eax
c0104f33: 5d                           	pop	ebp
c0104f34: e9 7d fd ff ff               	jmp	0xc0104cb6 <adt_list_remove_front>

c0104f39 <adt_stack_size>:
c0104f39: 55                           	push	ebp
c0104f3a: 89 e5                        	mov	ebp, esp
c0104f3c: 8b 45 08                     	mov	eax, dword ptr [ebp + 8]
c0104f3f: 8b 00                        	mov	eax, dword ptr [eax]
c0104f41: 89 45 08                     	mov	dword ptr [ebp + 8], eax
c0104f44: 5d                           	pop	ebp
c0104f45: e9 80 fe ff ff               	jmp	0xc0104dca <adt_list_size>

c0104f4a <bitarray_set>:
c0104f4a: 55                           	push	ebp
c0104f4b: ba 01 00 00 00               	mov	edx, 1
c0104f50: 89 e5                        	mov	ebp, esp
c0104f52: 8b 4d 0c                     	mov	ecx, dword ptr [ebp + 12]
c0104f55: 89 c8                        	mov	eax, ecx
c0104f57: 83 e1 07                     	and	ecx, 7
c0104f5a: c1 e8 03                     	shr	eax, 3
c0104f5d: 03 45 08                     	add	eax, dword ptr [ebp + 8]
c0104f60: d3 e2                        	shl	edx, cl
c0104f62: 08 10                        	or	byte ptr [eax], dl
c0104f64: 5d                           	pop	ebp
c0104f65: c3                           	ret

c0104f66 <bitarray_clear>:
c0104f66: 55                           	push	ebp
c0104f67: b2 fe                        	mov	dl, -2
c0104f69: 89 e5                        	mov	ebp, esp
c0104f6b: 8b 4d 0c                     	mov	ecx, dword ptr [ebp + 12]
c0104f6e: 89 c8                        	mov	eax, ecx
c0104f70: d2 c2                        	rol	dl, cl
c0104f72: c1 e8 03                     	shr	eax, 3
c0104f75: 03 45 08                     	add	eax, dword ptr [ebp + 8]
c0104f78: 20 10                        	and	byte ptr [eax], dl
c0104f7a: 5d                           	pop	ebp
c0104f7b: c3                           	ret

c0104f7c <bitarray_is_set>:
c0104f7c: 55                           	push	ebp
c0104f7d: 89 e5                        	mov	ebp, esp
c0104f7f: 8b 4d 0c                     	mov	ecx, dword ptr [ebp + 12]
c0104f82: 8b 55 08                     	mov	edx, dword ptr [ebp + 8]
c0104f85: 5d                           	pop	ebp
c0104f86: 89 c8                        	mov	eax, ecx
c0104f88: 83 e1 07                     	and	ecx, 7
c0104f8b: c1 e8 03                     	shr	eax, 3
c0104f8e: 0f b6 14 02                  	movzx	edx, byte ptr [edx + eax]
c0104f92: b8 01 00 00 00               	mov	eax, 1
c0104f97: d3 e0                        	shl	eax, cl
c0104f99: 85 c2                        	test	edx, eax
c0104f9b: 0f 95 c0                     	setne	al
c0104f9e: c3                           	ret

c0104f9f <cpu_get_count>:
c0104f9f: a1 1c 0e 11 c0               	mov	eax, dword ptr [3222343196]
c0104fa4: c3                           	ret

c0104fa5 <cpu_init>:
c0104fa5: 55                           	push	ebp
c0104fa6: 89 e5                        	mov	ebp, esp
c0104fa8: 83 ec 08                     	sub	esp, 8
c0104fab: e8 0c 1f 00 00               	call	0xc0106ebc <arch_cpu_initialise_bootstrap>
c0104fb0: ff 05 1c 0e 11 c0            	inc	dword ptr [-1072624100]
c0104fb6: c9                           	leave
c0104fb7: e9 4f 1f 00 00               	jmp	0xc0106f0b <arch_all_cpus_are_done>

c0104fbc <convert_int_to_string>:
c0104fbc: 55                           	push	ebp
c0104fbd: 89 e5                        	mov	ebp, esp
c0104fbf: 57                           	push	edi
c0104fc0: 56                           	push	esi
c0104fc1: 89 c6                        	mov	esi, eax
c0104fc3: 53                           	push	ebx
c0104fc4: 89 d3                        	mov	ebx, edx
c0104fc6: 89 c7                        	mov	edi, eax
c0104fc8: 31 d2                        	xor	edx, edx
c0104fca: 43                           	inc	ebx
c0104fcb: f7 f1                        	div	ecx
c0104fcd: 39 cf                        	cmp	edi, ecx
c0104fcf: 73 f5                        	jae	0xc0104fc6 <convert_int_to_string+0xa>
c0104fd1: c6 03 00                     	mov	byte ptr [ebx], 0
c0104fd4: 89 f0                        	mov	eax, esi
c0104fd6: 31 d2                        	xor	edx, edx
c0104fd8: 4b                           	dec	ebx
c0104fd9: f7 f1                        	div	ecx
c0104fdb: 8a 92 1a ae 10 c0            	mov	dl, byte ptr [edx - 1072648678]
c0104fe1: 88 13                        	mov	byte ptr [ebx], dl
c0104fe3: 89 f2                        	mov	edx, esi
c0104fe5: 89 c6                        	mov	esi, eax
c0104fe7: 39 ca                        	cmp	edx, ecx
c0104fe9: 73 e9                        	jae	0xc0104fd4 <convert_int_to_string+0x18>
c0104feb: 5b                           	pop	ebx
c0104fec: 5e                           	pop	esi
c0104fed: 5f                           	pop	edi
c0104fee: 5d                           	pop	ebp
c0104fef: c3                           	ret

c0104ff0 <logcnv>:
c0104ff0: 89 c1                        	mov	ecx, eax
c0104ff2: ba fd 03 00 00               	mov	edx, 1021
c0104ff7: ec                           	in	al, dx
c0104ff8: a8 20                        	test	al, 32
c0104ffa: 74 fb                        	je	0xc0104ff7 <logcnv+0x7>
c0104ffc: ba f8 03 00 00               	mov	edx, 1016
c0105001: 89 c8                        	mov	eax, ecx
c0105003: ee                           	out	dx, al
c0105004: c3                           	ret

c0105005 <log_intnv>:
c0105005: 55                           	push	ebp
c0105006: 89 d1                        	mov	ecx, edx
c0105008: 89 e5                        	mov	ebp, esp
c010500a: 53                           	push	ebx
c010500b: 8d 55 ec                     	lea	edx, [ebp - 20]
c010500e: 8d 5d ec                     	lea	ebx, [ebp - 20]
c0105011: 83 ec 14                     	sub	esp, 20
c0105014: e8 a3 ff ff ff               	call	0xc0104fbc <convert_int_to_string>
c0105019: 0f be 03                     	movsx	eax, byte ptr [ebx]
c010501c: 84 c0                        	test	al, al
c010501e: 74 08                        	je	0xc0105028 <log_intnv+0x23>
c0105020: 43                           	inc	ebx
c0105021: e8 ca ff ff ff               	call	0xc0104ff0 <logcnv>
c0105026: eb f1                        	jmp	0xc0105019 <log_intnv+0x14>
c0105028: 83 c4 14                     	add	esp, 20
c010502b: 5b                           	pop	ebx
c010502c: 5d                           	pop	ebp
c010502d: c3                           	ret

c010502e <logc>:
c010502e: 55                           	push	ebp
c010502f: 89 e5                        	mov	ebp, esp
c0105031: 53                           	push	ebx
c0105032: 89 c3                        	mov	ebx, eax
c0105034: 0f be c0                     	movsx	eax, al
c0105037: 83 ec 10                     	sub	esp, 16
c010503a: 50                           	push	eax
c010503b: e8 2e c7 ff ff               	call	0xc010176e <console_putc>
c0105040: 83 c4 10                     	add	esp, 16
c0105043: ba fd 03 00 00               	mov	edx, 1021
c0105048: ec                           	in	al, dx
c0105049: a8 20                        	test	al, 32
c010504b: 74 fb                        	je	0xc0105048 <logc+0x1a>
c010504d: ba f8 03 00 00               	mov	edx, 1016
c0105052: 89 d8                        	mov	eax, ebx
c0105054: ee                           	out	dx, al
c0105055: 8b 5d fc                     	mov	ebx, dword ptr [ebp - 4]
c0105058: c9                           	leave
c0105059: c3                           	ret

c010505a <log_int>:
c010505a: 55                           	push	ebp
c010505b: 89 d1                        	mov	ecx, edx
c010505d: 89 e5                        	mov	ebp, esp
c010505f: 53                           	push	ebx
c0105060: 8d 55 ec                     	lea	edx, [ebp - 20]
c0105063: 8d 5d ec                     	lea	ebx, [ebp - 20]
c0105066: 83 ec 14                     	sub	esp, 20
c0105069: e8 4e ff ff ff               	call	0xc0104fbc <convert_int_to_string>
c010506e: 0f be 03                     	movsx	eax, byte ptr [ebx]
c0105071: 84 c0                        	test	al, al
c0105073: 74 08                        	je	0xc010507d <log_int+0x23>
c0105075: 43                           	inc	ebx
c0105076: e8 b3 ff ff ff               	call	0xc010502e <logc>
c010507b: eb f1                        	jmp	0xc010506e <log_int+0x14>
c010507d: 83 c4 14                     	add	esp, 20
c0105080: 5b                           	pop	ebx
c0105081: 5d                           	pop	ebp
c0105082: c3                           	ret

c0105083 <kprintf>:
c0105083: 55                           	push	ebp
c0105084: 89 e5                        	mov	ebp, esp
c0105086: 57                           	push	edi
c0105087: 56                           	push	esi
c0105088: 53                           	push	ebx
c0105089: 83 ec 0c                     	sub	esp, 12
c010508c: 83 7d 08 00                  	cmp	dword ptr [ebp + 8], 0
c0105090: 75 10                        	jne	0xc01050a2 <kprintf+0x1f>
c0105092: 83 ec 0c                     	sub	esp, 12
c0105095: 68 2b ae 10 c0               	push	3222318635
c010509a: e8 e4 ff ff ff               	call	0xc0105083 <kprintf>
c010509f: 83 c4 10                     	add	esp, 16
c01050a2: 8d 75 0c                     	lea	esi, [ebp + 12]
c01050a5: 31 db                        	xor	ebx, ebx
c01050a7: 8b 45 08                     	mov	eax, dword ptr [ebp + 8]
c01050aa: 0f be 04 18                  	movsx	eax, byte ptr [eax + ebx]
c01050ae: 84 c0                        	test	al, al
c01050b0: 0f 84 a4 00 00 00            	je	0xc010515a <kprintf+0xd7>
c01050b6: 3c 25                        	cmp	al, 37
c01050b8: 0f 85 91 00 00 00            	jne	0xc010514f <kprintf+0xcc>
c01050be: 8b 7d 08                     	mov	edi, dword ptr [ebp + 8]
c01050c1: 43                           	inc	ebx
c01050c2: 01 df                        	add	edi, ebx
c01050c4: 8a 07                        	mov	al, byte ptr [edi]
c01050c6: 3c 64                        	cmp	al, 100
c01050c8: 74 65                        	je	0xc010512f <kprintf+0xac>
c01050ca: 7f 21                        	jg	0xc01050ed <kprintf+0x6a>
c01050cc: 3c 58                        	cmp	al, 88
c01050ce: 74 50                        	je	0xc0105120 <kprintf+0x9d>
c01050d0: 7f 0a                        	jg	0xc01050dc <kprintf+0x59>
c01050d2: 3c 25                        	cmp	al, 37
c01050d4: 74 34                        	je	0xc010510a <kprintf+0x87>
c01050d6: 3c 4c                        	cmp	al, 76
c01050d8: 74 4b                        	je	0xc0105125 <kprintf+0xa2>
c01050da: eb 66                        	jmp	0xc0105142 <kprintf+0xbf>
c01050dc: 3c 63                        	cmp	al, 99
c01050de: 75 62                        	jne	0xc0105142 <kprintf+0xbf>
c01050e0: 0f be 06                     	movsx	eax, byte ptr [esi]
c01050e3: 8d 7e 04                     	lea	edi, [esi + 4]
c01050e6: e8 43 ff ff ff               	call	0xc010502e <logc>
c01050eb: eb 51                        	jmp	0xc010513e <kprintf+0xbb>
c01050ed: 3c 75                        	cmp	al, 117
c01050ef: 74 3e                        	je	0xc010512f <kprintf+0xac>
c01050f1: 7f 11                        	jg	0xc0105104 <kprintf+0x81>
c01050f3: 3c 6c                        	cmp	al, 108
c01050f5: 74 2e                        	je	0xc0105125 <kprintf+0xa2>
c01050f7: 3c 73                        	cmp	al, 115
c01050f9: 75 47                        	jne	0xc0105142 <kprintf+0xbf>
c01050fb: 89 f0                        	mov	eax, esi
c01050fd: 83 c6 04                     	add	esi, 4
c0105100: 8b 38                        	mov	edi, dword ptr [eax]
c0105102: eb 0d                        	jmp	0xc0105111 <kprintf+0x8e>
c0105104: 3c 78                        	cmp	al, 120
c0105106: 74 18                        	je	0xc0105120 <kprintf+0x9d>
c0105108: eb 38                        	jmp	0xc0105142 <kprintf+0xbf>
c010510a: b8 25 00 00 00               	mov	eax, 37
c010510f: eb 3e                        	jmp	0xc010514f <kprintf+0xcc>
c0105111: 0f be 07                     	movsx	eax, byte ptr [edi]
c0105114: 84 c0                        	test	al, al
c0105116: 74 3c                        	je	0xc0105154 <kprintf+0xd1>
c0105118: 47                           	inc	edi
c0105119: e8 10 ff ff ff               	call	0xc010502e <logc>
c010511e: eb f1                        	jmp	0xc0105111 <kprintf+0x8e>
c0105120: 8d 7e 04                     	lea	edi, [esi + 4]
c0105123: eb 03                        	jmp	0xc0105128 <kprintf+0xa5>
c0105125: 8d 7e 08                     	lea	edi, [esi + 8]
c0105128: ba 10 00 00 00               	mov	edx, 16
c010512d: eb 08                        	jmp	0xc0105137 <kprintf+0xb4>
c010512f: 8d 7e 04                     	lea	edi, [esi + 4]
c0105132: ba 0a 00 00 00               	mov	edx, 10
c0105137: 8b 06                        	mov	eax, dword ptr [esi]
c0105139: e8 1c ff ff ff               	call	0xc010505a <log_int>
c010513e: 89 fe                        	mov	esi, edi
c0105140: eb 12                        	jmp	0xc0105154 <kprintf+0xd1>
c0105142: b8 25 00 00 00               	mov	eax, 37
c0105147: e8 e2 fe ff ff               	call	0xc010502e <logc>
c010514c: 0f be 07                     	movsx	eax, byte ptr [edi]
c010514f: e8 da fe ff ff               	call	0xc010502e <logc>
c0105154: 43                           	inc	ebx
c0105155: e9 4d ff ff ff               	jmp	0xc01050a7 <kprintf+0x24>
c010515a: 8d 65 f4                     	lea	esp, [ebp - 12]
c010515d: 5b                           	pop	ebx
c010515e: 5e                           	pop	esi
c010515f: 5f                           	pop	edi
c0105160: 5d                           	pop	ebp
c0105161: c3                           	ret

c0105162 <kprintfnv>:
c0105162: 55                           	push	ebp
c0105163: 89 e5                        	mov	ebp, esp
c0105165: 57                           	push	edi
c0105166: 56                           	push	esi
c0105167: 53                           	push	ebx
c0105168: 83 ec 1c                     	sub	esp, 28
c010516b: 83 7d 08 00                  	cmp	dword ptr [ebp + 8], 0
c010516f: 75 10                        	jne	0xc0105181 <kprintfnv+0x1f>
c0105171: 83 ec 0c                     	sub	esp, 12
c0105174: 68 2b ae 10 c0               	push	3222318635
c0105179: e8 e4 ff ff ff               	call	0xc0105162 <kprintfnv>
c010517e: 83 c4 10                     	add	esp, 16
c0105181: 8d 75 0c                     	lea	esi, [ebp + 12]
c0105184: 31 db                        	xor	ebx, ebx
c0105186: 8b 45 08                     	mov	eax, dword ptr [ebp + 8]
c0105189: 0f be 04 18                  	movsx	eax, byte ptr [eax + ebx]
c010518d: 84 c0                        	test	al, al
c010518f: 0f 84 ae 00 00 00            	je	0xc0105243 <kprintfnv+0xe1>
c0105195: 3c 25                        	cmp	al, 37
c0105197: 0f 85 9b 00 00 00            	jne	0xc0105238 <kprintfnv+0xd6>
c010519d: 8b 45 08                     	mov	eax, dword ptr [ebp + 8]
c01051a0: 43                           	inc	ebx
c01051a1: 8a 14 18                     	mov	dl, byte ptr [eax + ebx]
c01051a4: 80 fa 64                     	cmp	dl, 100
c01051a7: 74 6b                        	je	0xc0105214 <kprintfnv+0xb2>
c01051a9: 7f 2a                        	jg	0xc01051d5 <kprintfnv+0x73>
c01051ab: 80 fa 58                     	cmp	dl, 88
c01051ae: 74 55                        	je	0xc0105205 <kprintfnv+0xa3>
c01051b0: 7f 11                        	jg	0xc01051c3 <kprintfnv+0x61>
c01051b2: b8 25 00 00 00               	mov	eax, 37
c01051b7: 80 fa 25                     	cmp	dl, 37
c01051ba: 74 7c                        	je	0xc0105238 <kprintfnv+0xd6>
c01051bc: 80 fa 4c                     	cmp	dl, 76
c01051bf: 74 49                        	je	0xc010520a <kprintfnv+0xa8>
c01051c1: eb 64                        	jmp	0xc0105227 <kprintfnv+0xc5>
c01051c3: 80 fa 63                     	cmp	dl, 99
c01051c6: 75 5f                        	jne	0xc0105227 <kprintfnv+0xc5>
c01051c8: 0f be 06                     	movsx	eax, byte ptr [esi]
c01051cb: 8d 7e 04                     	lea	edi, [esi + 4]
c01051ce: e8 1d fe ff ff               	call	0xc0104ff0 <logcnv>
c01051d3: eb 4e                        	jmp	0xc0105223 <kprintfnv+0xc1>
c01051d5: 80 fa 75                     	cmp	dl, 117
c01051d8: 74 3a                        	je	0xc0105214 <kprintfnv+0xb2>
c01051da: 7f 13                        	jg	0xc01051ef <kprintfnv+0x8d>
c01051dc: 80 fa 6c                     	cmp	dl, 108
c01051df: 74 29                        	je	0xc010520a <kprintfnv+0xa8>
c01051e1: 80 fa 73                     	cmp	dl, 115
c01051e4: 75 41                        	jne	0xc0105227 <kprintfnv+0xc5>
c01051e6: 89 f0                        	mov	eax, esi
c01051e8: 83 c6 04                     	add	esi, 4
c01051eb: 8b 38                        	mov	edi, dword ptr [eax]
c01051ed: eb 07                        	jmp	0xc01051f6 <kprintfnv+0x94>
c01051ef: 80 fa 78                     	cmp	dl, 120
c01051f2: 74 11                        	je	0xc0105205 <kprintfnv+0xa3>
c01051f4: eb 31                        	jmp	0xc0105227 <kprintfnv+0xc5>
c01051f6: 0f be 07                     	movsx	eax, byte ptr [edi]
c01051f9: 84 c0                        	test	al, al
c01051fb: 74 40                        	je	0xc010523d <kprintfnv+0xdb>
c01051fd: 47                           	inc	edi
c01051fe: e8 ed fd ff ff               	call	0xc0104ff0 <logcnv>
c0105203: eb f1                        	jmp	0xc01051f6 <kprintfnv+0x94>
c0105205: 8d 7e 04                     	lea	edi, [esi + 4]
c0105208: eb 03                        	jmp	0xc010520d <kprintfnv+0xab>
c010520a: 8d 7e 08                     	lea	edi, [esi + 8]
c010520d: ba 10 00 00 00               	mov	edx, 16
c0105212: eb 08                        	jmp	0xc010521c <kprintfnv+0xba>
c0105214: 8d 7e 04                     	lea	edi, [esi + 4]
c0105217: ba 0a 00 00 00               	mov	edx, 10
c010521c: 8b 06                        	mov	eax, dword ptr [esi]
c010521e: e8 e2 fd ff ff               	call	0xc0105005 <log_intnv>
c0105223: 89 fe                        	mov	esi, edi
c0105225: eb 16                        	jmp	0xc010523d <kprintfnv+0xdb>
c0105227: b8 25 00 00 00               	mov	eax, 37
c010522c: 88 55 e7                     	mov	byte ptr [ebp - 25], dl
c010522f: e8 bc fd ff ff               	call	0xc0104ff0 <logcnv>
c0105234: 0f be 45 e7                  	movsx	eax, byte ptr [ebp - 25]
c0105238: e8 b3 fd ff ff               	call	0xc0104ff0 <logcnv>
c010523d: 43                           	inc	ebx
c010523e: e9 43 ff ff ff               	jmp	0xc0105186 <kprintfnv+0x24>
c0105243: 8d 65 f4                     	lea	esp, [ebp - 12]
c0105246: 5b                           	pop	ebx
c0105247: 5e                           	pop	esi
c0105248: 5f                           	pop	edi
c0105249: 5d                           	pop	ebp
c010524a: c3                           	ret

c010524b <panic>:
c010524b: 55                           	push	ebp
c010524c: 89 e5                        	mov	ebp, esp
c010524e: 83 ec 10                     	sub	esp, 16
c0105251: ff 75 08                     	push	dword ptr [ebp + 8]
c0105254: 68 55 ae 10 c0               	push	3222318677
c0105259: e8 25 fe ff ff               	call	0xc0105083 <kprintf>
c010525e: 83 c4 10                     	add	esp, 16
c0105261: e8 9f 3e 00 00               	call	0xc0109105 <arch_disable_interrupts>
c0105266: e8 9c 3e 00 00               	call	0xc0109107 <arch_stall_processor>
c010526b: eb f4                        	jmp	0xc0105261 <panic+0x16>

c010526d <validate_copy>:
c010526d: 55                           	push	ebp
c010526e: 89 e5                        	mov	ebp, esp
c0105270: 57                           	push	edi
c0105271: 56                           	push	esi
c0105272: 53                           	push	ebx
c0105273: 89 c3                        	mov	ebx, eax
c0105275: 89 d0                        	mov	eax, edx
c0105277: 8d 93 00 00 00 f8            	lea	edx, [ebx - 134217728]
c010527d: 83 ec 1c                     	sub	esp, 28
c0105280: 81 fa ff ff ff b7            	cmp	edx, 3087007743
c0105286: 77 7b                        	ja	0xc0105303 <validate_copy+0x96>
c0105288: 89 ce                        	mov	esi, ecx
c010528a: 89 d9                        	mov	ecx, ebx
c010528c: ba 07 00 00 00               	mov	edx, 7
c0105291: 01 c1                        	add	ecx, eax
c0105293: 72 73                        	jb	0xc0105308 <validate_copy+0x9b>
c0105295: 81 e9 00 00 00 08            	sub	ecx, 134217728
c010529b: 81 f9 ff ff ff b7            	cmp	ecx, 3087007743
c01052a1: 77 65                        	ja	0xc0105308 <validate_copy+0x9b>
c01052a3: 89 da                        	mov	edx, ebx
c01052a5: 8d b8 ff 0f 00 00            	lea	edi, [eax + 4095]
c01052ab: 81 e3 00 f0 ff ff            	and	ebx, 4294963200
c01052b1: c1 ea 0c                     	shr	edx, 12
c01052b4: c1 ef 0c                     	shr	edi, 12
c01052b7: 01 d7                        	add	edi, edx
c01052b9: c1 e7 0c                     	shl	edi, 12
c01052bc: 39 fb                        	cmp	ebx, edi
c01052be: 74 3f                        	je	0xc01052ff <validate_copy+0x92>
c01052c0: e8 51 d7 ff ff               	call	0xc0102a16 <vas_get_current_vas>
c01052c5: 8d 55 e4                     	lea	edx, [ebp - 28]
c01052c8: 52                           	push	edx
c01052c9: 8d 55 e0                     	lea	edx, [ebp - 32]
c01052cc: 52                           	push	edx
c01052cd: 53                           	push	ebx
c01052ce: 50                           	push	eax
c01052cf: e8 61 3b 00 00               	call	0xc0108e35 <arch_vas_get_entry>
c01052d4: 8b 45 e4                     	mov	eax, dword ptr [ebp - 28]
c01052d7: 83 c4 10                     	add	esp, 16
c01052da: a8 10                        	test	al, 16
c01052dc: 74 1a                        	je	0xc01052f8 <validate_copy+0x8b>
c01052de: a8 04                        	test	al, 4
c01052e0: 74 21                        	je	0xc0105303 <validate_copy+0x96>
c01052e2: 89 f1                        	mov	ecx, esi
c01052e4: 84 c9                        	test	cl, cl
c01052e6: 74 08                        	je	0xc01052f0 <validate_copy+0x83>
c01052e8: a8 01                        	test	al, 1
c01052ea: 74 17                        	je	0xc0105303 <validate_copy+0x96>
c01052ec: a8 02                        	test	al, 2
c01052ee: 75 13                        	jne	0xc0105303 <validate_copy+0x96>
c01052f0: 81 c3 00 10 00 00            	add	ebx, 4096
c01052f6: eb c4                        	jmp	0xc01052bc <validate_copy+0x4f>
c01052f8: ba 01 00 00 00               	mov	edx, 1
c01052fd: eb 09                        	jmp	0xc0105308 <validate_copy+0x9b>
c01052ff: 31 d2                        	xor	edx, edx
c0105301: eb 05                        	jmp	0xc0105308 <validate_copy+0x9b>
c0105303: ba 07 00 00 00               	mov	edx, 7
c0105308: 8d 65 f4                     	lea	esp, [ebp - 12]
c010530b: 89 d0                        	mov	eax, edx
c010530d: 5b                           	pop	ebx
c010530e: 5e                           	pop	esi
c010530f: 5f                           	pop	edi
c0105310: 5d                           	pop	ebp
c0105311: c3                           	ret

c0105312 <copyin>:
c0105312: 55                           	push	ebp
c0105313: 31 c9                        	xor	ecx, ecx
c0105315: 89 e5                        	mov	ebp, esp
c0105317: 53                           	push	ebx
c0105318: 52                           	push	edx
c0105319: 8b 55 10                     	mov	edx, dword ptr [ebp + 16]
c010531c: 8b 45 0c                     	mov	eax, dword ptr [ebp + 12]
c010531f: e8 49 ff ff ff               	call	0xc010526d <validate_copy>
c0105324: 89 c3                        	mov	ebx, eax
c0105326: 85 c0                        	test	eax, eax
c0105328: 75 12                        	jne	0xc010533c <copyin+0x2a>
c010532a: 50                           	push	eax
c010532b: ff 75 10                     	push	dword ptr [ebp + 16]
c010532e: ff 75 0c                     	push	dword ptr [ebp + 12]
c0105331: ff 75 08                     	push	dword ptr [ebp + 8]
c0105334: e8 fb be ff ff               	call	0xc0101234 <memcpy>
c0105339: 83 c4 10                     	add	esp, 16
c010533c: 89 d8                        	mov	eax, ebx
c010533e: 8b 5d fc                     	mov	ebx, dword ptr [ebp - 4]
c0105341: c9                           	leave
c0105342: c3                           	ret

c0105343 <copyout>:
c0105343: 55                           	push	ebp
c0105344: b9 01 00 00 00               	mov	ecx, 1
c0105349: 89 e5                        	mov	ebp, esp
c010534b: 53                           	push	ebx
c010534c: 52                           	push	edx
c010534d: 8b 55 10                     	mov	edx, dword ptr [ebp + 16]
c0105350: 8b 45 0c                     	mov	eax, dword ptr [ebp + 12]
c0105353: e8 15 ff ff ff               	call	0xc010526d <validate_copy>
c0105358: 89 c3                        	mov	ebx, eax
c010535a: 85 c0                        	test	eax, eax
c010535c: 75 12                        	jne	0xc0105370 <copyout+0x2d>
c010535e: 50                           	push	eax
c010535f: ff 75 10                     	push	dword ptr [ebp + 16]
c0105362: ff 75 08                     	push	dword ptr [ebp + 8]
c0105365: ff 75 0c                     	push	dword ptr [ebp + 12]
c0105368: e8 c7 be ff ff               	call	0xc0101234 <memcpy>
c010536d: 83 c4 10                     	add	esp, 16
c0105370: 89 d8                        	mov	eax, ebx
c0105372: 8b 5d fc                     	mov	ebx, dword ptr [ebp - 4]
c0105375: c9                           	leave
c0105376: c3                           	ret

c0105377 <dev_check_open>:
c0105377: 55                           	push	ebp
c0105378: 89 e5                        	mov	ebp, esp
c010537a: 8b 45 08                     	mov	eax, dword ptr [ebp + 8]
c010537d: 8b 00                        	mov	eax, dword ptr [eax]
c010537f: 89 45 08                     	mov	dword ptr [ebp + 8], eax
c0105382: 5d                           	pop	ebp
c0105383: 8b 00                        	mov	eax, dword ptr [eax]
c0105385: ff e0                        	jmp	eax

c0105387 <dev_ioctl>:
c0105387: 55                           	push	ebp
c0105388: 89 e5                        	mov	ebp, esp
c010538a: 8b 45 08                     	mov	eax, dword ptr [ebp + 8]
c010538d: 8b 00                        	mov	eax, dword ptr [eax]
c010538f: 89 45 08                     	mov	dword ptr [ebp + 8], eax
c0105392: 5d                           	pop	ebp
c0105393: 8b 40 04                     	mov	eax, dword ptr [eax + 4]
c0105396: ff e0                        	jmp	eax

c0105398 <dev_isseekable>:
c0105398: 55                           	push	ebp
c0105399: 89 e5                        	mov	ebp, esp
c010539b: 8b 45 08                     	mov	eax, dword ptr [ebp + 8]
c010539e: 5d                           	pop	ebp
c010539f: 8b 00                        	mov	eax, dword ptr [eax]
c01053a1: 83 78 14 00                  	cmp	dword ptr [eax + 20], 0
c01053a5: 0f 95 c0                     	setne	al
c01053a8: c3                           	ret

c01053a9 <dev_istty>:
c01053a9: 55                           	push	ebp
c01053aa: 89 e5                        	mov	ebp, esp
c01053ac: 8b 45 08                     	mov	eax, dword ptr [ebp + 8]
c01053af: 5d                           	pop	ebp
c01053b0: 8b 00                        	mov	eax, dword ptr [eax]
c01053b2: 83 78 0c 00                  	cmp	dword ptr [eax + 12], 0
c01053b6: 0f 95 c0                     	setne	al
c01053b9: 0f b6 c0                     	movzx	eax, al
c01053bc: c3                           	ret

c01053bd <dev_read>:
c01053bd: 55                           	push	ebp
c01053be: 89 e5                        	mov	ebp, esp
c01053c0: 8b 45 08                     	mov	eax, dword ptr [ebp + 8]
c01053c3: 8b 00                        	mov	eax, dword ptr [eax]
c01053c5: 89 45 08                     	mov	dword ptr [ebp + 8], eax
c01053c8: 5d                           	pop	ebp
c01053c9: 8b 40 08                     	mov	eax, dword ptr [eax + 8]
c01053cc: ff e0                        	jmp	eax

c01053ce <dev_write>:
c01053ce: eb ed                        	jmp	0xc01053bd <dev_read>

c01053d0 <dev_create>:
c01053d0: b8 0e 00 00 00               	mov	eax, 14
c01053d5: c3                           	ret

c01053d6 <dev_dirent_type>:
c01053d6: 55                           	push	ebp
c01053d7: 89 e5                        	mov	ebp, esp
c01053d9: 8b 45 08                     	mov	eax, dword ptr [ebp + 8]
c01053dc: 5d                           	pop	ebp
c01053dd: 8b 00                        	mov	eax, dword ptr [eax]
c01053df: 83 78 14 01                  	cmp	dword ptr [eax + 20], 1
c01053e3: 19 c0                        	sbb	eax, eax
c01053e5: 83 c0 06                     	add	eax, 6
c01053e8: c3                           	ret

c01053e9 <dev_stat>:
c01053e9: 55                           	push	ebp
c01053ea: 89 e5                        	mov	ebp, esp
c01053ec: 8b 4d 08                     	mov	ecx, dword ptr [ebp + 8]
c01053ef: 8b 45 0c                     	mov	eax, dword ptr [ebp + 12]
c01053f2: 8b 11                        	mov	edx, dword ptr [ecx]
c01053f4: 83 7a 14 01                  	cmp	dword ptr [edx + 20], 1
c01053f8: 19 d2                        	sbb	edx, edx
c01053fa: 81 e2 00 80 00 00            	and	edx, 32768
c0105400: 81 c2 ff 01 01 00            	add	edx, 66047
c0105406: 89 50 0c                     	mov	dword ptr [eax + 12], edx
c0105409: 31 d2                        	xor	edx, edx
c010540b: 89 50 28                     	mov	dword ptr [eax + 40], edx
c010540e: 89 50 2c                     	mov	dword ptr [eax + 44], edx
c0105411: 8b 11                        	mov	edx, dword ptr [ecx]
c0105413: 8b 52 14                     	mov	edx, dword ptr [edx + 20]
c0105416: 89 50 44                     	mov	dword ptr [eax + 68], edx
c0105419: 8b 09                        	mov	ecx, dword ptr [ecx]
c010541b: 8b 49 10                     	mov	ecx, dword ptr [ecx + 16]
c010541e: c7 40 38 00 00 00 00         	mov	dword ptr [eax + 56], 0
c0105425: c7 40 3c 00 00 00 00         	mov	dword ptr [eax + 60], 0
c010542c: 0f af d1                     	imul	edx, ecx
c010542f: 89 48 40                     	mov	dword ptr [eax + 64], ecx
c0105432: c7 00 fe ca be ba            	mov	dword ptr [eax], 3133065982
c0105438: c7 40 04 00 00 00 00         	mov	dword ptr [eax + 4], 0
c010543f: 89 50 24                     	mov	dword ptr [eax + 36], edx
c0105442: 31 d2                        	xor	edx, edx
c0105444: c7 40 18 00 00 00 00         	mov	dword ptr [eax + 24], 0
c010544b: c7 40 08 be ba fe ca         	mov	dword ptr [eax + 8], 3405691582
c0105452: c7 40 30 00 00 00 00         	mov	dword ptr [eax + 48], 0
c0105459: c7 40 34 00 00 00 00         	mov	dword ptr [eax + 52], 0
c0105460: c7 40 10 01 00 00 00         	mov	dword ptr [eax + 16], 1
c0105467: c7 40 1c ad de fe ca         	mov	dword ptr [eax + 28], 3405700781
c010546e: c7 40 20 00 00 00 00         	mov	dword ptr [eax + 32], 0
c0105475: 89 50 14                     	mov	dword ptr [eax + 20], edx
c0105478: 31 c0                        	xor	eax, eax
c010547a: 5d                           	pop	ebp
c010547b: c3                           	ret

c010547c <dev_truncate>:
c010547c: 55                           	push	ebp
c010547d: 89 e5                        	mov	ebp, esp
c010547f: 8b 45 08                     	mov	eax, dword ptr [ebp + 8]
c0105482: 8b 08                        	mov	ecx, dword ptr [eax]
c0105484: b8 07 00 00 00               	mov	eax, 7
c0105489: 8b 51 10                     	mov	edx, dword ptr [ecx + 16]
c010548c: 85 d2                        	test	edx, edx
c010548e: 74 11                        	je	0xc01054a1 <dev_truncate+0x25>
c0105490: 0f af 51 14                  	imul	edx, dword ptr [ecx + 20]
c0105494: 31 c0                        	xor	eax, eax
c0105496: 3b 55 0c                     	cmp	edx, dword ptr [ebp + 12]
c0105499: ba 07 00 00 00               	mov	edx, 7
c010549e: 0f 45 c2                     	cmovne	eax, edx
c01054a1: 5d                           	pop	ebp
c01054a2: c3                           	ret

c01054a3 <dev_close>:
c01054a3: 31 c0                        	xor	eax, eax
c01054a5: c3                           	ret

c01054a6 <dev_follow>:
c01054a6: b8 07 00 00 00               	mov	eax, 7
c01054ab: c3                           	ret

c01054ac <dev_readdir>:
c01054ac: b8 07 00 00 00               	mov	eax, 7
c01054b1: c3                           	ret

c01054b2 <dev_create_vnode>:
c01054b2: 55                           	push	ebp
c01054b3: b9 0d 00 00 00               	mov	ecx, 13
c01054b8: 89 e5                        	mov	ebp, esp
c01054ba: 57                           	push	edi
c01054bb: 56                           	push	esi
c01054bc: be 80 a0 10 c0               	mov	esi, 3222315136
c01054c1: 83 ec 3c                     	sub	esp, 60
c01054c4: 89 e7                        	mov	edi, esp
c01054c6: f3 a5                        	rep		movsd	dword ptr es:[edi], dword ptr [esi]
c01054c8: ff 75 08                     	push	dword ptr [ebp + 8]
c01054cb: e8 3d 10 00 00               	call	0xc010650d <vnode_init>
c01054d0: 8d 65 f8                     	lea	esp, [ebp - 8]
c01054d3: 5e                           	pop	esi
c01054d4: 5f                           	pop	edi
c01054d5: 5d                           	pop	ebp
c01054d6: c3                           	ret

c01054d7 <filedes_table_create>:
c01054d7: 55                           	push	ebp
c01054d8: 89 e5                        	mov	ebp, esp
c01054da: 53                           	push	ebx
c01054db: 83 ec 10                     	sub	esp, 16
c01054de: 68 48 20 00 00               	push	8264
c01054e3: e8 1d cf ff ff               	call	0xc0102405 <malloc>
c01054e8: 59                           	pop	ecx
c01054e9: 89 c3                        	mov	ebx, eax
c01054eb: 58                           	pop	eax
c01054ec: 68 72 ae 10 c0               	push	3222318706
c01054f1: 53                           	push	ebx
c01054f2: e8 58 e6 ff ff               	call	0xc0103b4f <spinlock_init>
c01054f7: 83 c4 10                     	add	esp, 16
c01054fa: 31 c0                        	xor	eax, eax
c01054fc: 31 d2                        	xor	edx, edx
c01054fe: 89 54 c3 48                  	mov	dword ptr [ebx + 8*eax + 72], edx
c0105502: 40                           	inc	eax
c0105503: 3d 00 04 00 00               	cmp	eax, 1024
c0105508: 75 f2                        	jne	0xc01054fc <filedes_table_create+0x25>
c010550a: 89 d8                        	mov	eax, ebx
c010550c: 8b 5d fc                     	mov	ebx, dword ptr [ebp - 4]
c010550f: c9                           	leave
c0105510: c3                           	ret

c0105511 <filedes_table_copy>:
c0105511: 55                           	push	ebp
c0105512: 89 e5                        	mov	ebp, esp
c0105514: 56                           	push	esi
c0105515: 53                           	push	ebx
c0105516: 8b 75 08                     	mov	esi, dword ptr [ebp + 8]
c0105519: e8 b9 ff ff ff               	call	0xc01054d7 <filedes_table_create>
c010551e: 83 ec 0c                     	sub	esp, 12
c0105521: 56                           	push	esi
c0105522: 89 c3                        	mov	ebx, eax
c0105524: e8 55 e6 ff ff               	call	0xc0103b7e <spinlock_acquire>
c0105529: 83 c4 0c                     	add	esp, 12
c010552c: 8d 46 48                     	lea	eax, [esi + 72]
c010552f: 68 00 20 00 00               	push	8192
c0105534: 50                           	push	eax
c0105535: 8d 43 48                     	lea	eax, [ebx + 72]
c0105538: 50                           	push	eax
c0105539: e8 f6 bc ff ff               	call	0xc0101234 <memcpy>
c010553e: 89 34 24                     	mov	dword ptr [esp], esi
c0105541: e8 3d e6 ff ff               	call	0xc0103b83 <spinlock_release>
c0105546: 8d 65 f8                     	lea	esp, [ebp - 8]
c0105549: 89 d8                        	mov	eax, ebx
c010554b: 5b                           	pop	ebx
c010554c: 5e                           	pop	esi
c010554d: 5d                           	pop	ebp
c010554e: c3                           	ret

c010554f <filedesc_get_open_file>:
c010554f: 55                           	push	ebp
c0105550: 89 e5                        	mov	ebp, esp
c0105552: 56                           	push	esi
c0105553: 53                           	push	ebx
c0105554: 8b 5d 08                     	mov	ebx, dword ptr [ebp + 8]
c0105557: 8b 75 0c                     	mov	esi, dword ptr [ebp + 12]
c010555a: 83 ec 0c                     	sub	esp, 12
c010555d: 53                           	push	ebx
c010555e: e8 1b e6 ff ff               	call	0xc0103b7e <spinlock_acquire>
c0105563: 83 c4 10                     	add	esp, 16
c0105566: 81 fe ff 03 00 00            	cmp	esi, 1023
c010556c: 76 10                        	jbe	0xc010557e <filedesc_get_open_file+0x2f>
c010556e: 83 ec 0c                     	sub	esp, 12
c0105571: 31 f6                        	xor	esi, esi
c0105573: 53                           	push	ebx
c0105574: e8 0a e6 ff ff               	call	0xc0103b83 <spinlock_release>
c0105579: 83 c4 10                     	add	esp, 16
c010557c: eb 10                        	jmp	0xc010558e <filedesc_get_open_file+0x3f>
c010557e: 83 ec 0c                     	sub	esp, 12
c0105581: 8b 74 f3 48                  	mov	esi, dword ptr [ebx + 8*esi + 72]
c0105585: 53                           	push	ebx
c0105586: e8 f8 e5 ff ff               	call	0xc0103b83 <spinlock_release>
c010558b: 83 c4 10                     	add	esp, 16
c010558e: 8d 65 f8                     	lea	esp, [ebp - 8]
c0105591: 89 f0                        	mov	eax, esi
c0105593: 5b                           	pop	ebx
c0105594: 5e                           	pop	esi
c0105595: 5d                           	pop	ebp
c0105596: c3                           	ret

c0105597 <filedesc_table_register_file>:
c0105597: 55                           	push	ebp
c0105598: 89 e5                        	mov	ebp, esp
c010559a: 56                           	push	esi
c010559b: 53                           	push	ebx
c010559c: 8b 75 08                     	mov	esi, dword ptr [ebp + 8]
c010559f: 31 db                        	xor	ebx, ebx
c01055a1: 83 ec 0c                     	sub	esp, 12
c01055a4: 56                           	push	esi
c01055a5: e8 d4 e5 ff ff               	call	0xc0103b7e <spinlock_acquire>
c01055aa: 83 c4 10                     	add	esp, 16
c01055ad: 83 7c de 48 00               	cmp	dword ptr [esi + 8*ebx + 72], 0
c01055b2: 75 1e                        	jne	0xc01055d2 <filedesc_table_register_file+0x3b>
c01055b4: 8b 55 0c                     	mov	edx, dword ptr [ebp + 12]
c01055b7: 8d 43 08                     	lea	eax, [ebx + 8]
c01055ba: 83 ec 0c                     	sub	esp, 12
c01055bd: 89 54 c6 08                  	mov	dword ptr [esi + 8*eax + 8], edx
c01055c1: 31 d2                        	xor	edx, edx
c01055c3: 89 54 c6 0c                  	mov	dword ptr [esi + 8*eax + 12], edx
c01055c7: 56                           	push	esi
c01055c8: e8 b6 e5 ff ff               	call	0xc0103b83 <spinlock_release>
c01055cd: 83 c4 10                     	add	esp, 16
c01055d0: eb 18                        	jmp	0xc01055ea <filedesc_table_register_file+0x53>
c01055d2: 43                           	inc	ebx
c01055d3: 81 fb 00 04 00 00            	cmp	ebx, 1024
c01055d9: 75 d2                        	jne	0xc01055ad <filedesc_table_register_file+0x16>
c01055db: 83 ec 0c                     	sub	esp, 12
c01055de: 83 cb ff                     	or	ebx, -1
c01055e1: 56                           	push	esi
c01055e2: e8 9c e5 ff ff               	call	0xc0103b83 <spinlock_release>
c01055e7: 83 c4 10                     	add	esp, 16
c01055ea: 8d 65 f8                     	lea	esp, [ebp - 8]
c01055ed: 89 d8                        	mov	eax, ebx
c01055ef: 5b                           	pop	ebx
c01055f0: 5e                           	pop	esi
c01055f1: 5d                           	pop	ebp
c01055f2: c3                           	ret

c01055f3 <filedesc_table_deregister_file>:
c01055f3: 55                           	push	ebp
c01055f4: 89 e5                        	mov	ebp, esp
c01055f6: 53                           	push	ebx
c01055f7: 83 ec 10                     	sub	esp, 16
c01055fa: 8b 5d 08                     	mov	ebx, dword ptr [ebp + 8]
c01055fd: 53                           	push	ebx
c01055fe: e8 7b e5 ff ff               	call	0xc0103b7e <spinlock_acquire>
c0105603: 83 c4 10                     	add	esp, 16
c0105606: 31 c0                        	xor	eax, eax
c0105608: 8b 55 0c                     	mov	edx, dword ptr [ebp + 12]
c010560b: 39 54 c3 48                  	cmp	dword ptr [ebx + 8*eax + 72], edx
c010560f: 75 16                        	jne	0xc0105627 <filedesc_table_deregister_file+0x34>
c0105611: 83 ec 0c                     	sub	esp, 12
c0105614: 31 d2                        	xor	edx, edx
c0105616: 89 54 c3 48                  	mov	dword ptr [ebx + 8*eax + 72], edx
c010561a: 53                           	push	ebx
c010561b: e8 63 e5 ff ff               	call	0xc0103b83 <spinlock_release>
c0105620: 83 c4 10                     	add	esp, 16
c0105623: 31 c0                        	xor	eax, eax
c0105625: eb 19                        	jmp	0xc0105640 <filedesc_table_deregister_file+0x4d>
c0105627: 40                           	inc	eax
c0105628: 3d 00 04 00 00               	cmp	eax, 1024
c010562d: 75 d9                        	jne	0xc0105608 <filedesc_table_deregister_file+0x15>
c010562f: 83 ec 0c                     	sub	esp, 12
c0105632: 53                           	push	ebx
c0105633: e8 4b e5 ff ff               	call	0xc0103b83 <spinlock_release>
c0105638: 83 c4 10                     	add	esp, 16
c010563b: b8 07 00 00 00               	mov	eax, 7
c0105640: 8b 5d fc                     	mov	ebx, dword ptr [ebp - 4]
c0105643: c9                           	leave
c0105644: c3                           	ret

c0105645 <filedes_handle_exec>:
c0105645: 55                           	push	ebp
c0105646: 89 e5                        	mov	ebp, esp
c0105648: 56                           	push	esi
c0105649: 53                           	push	ebx
c010564a: 8b 75 08                     	mov	esi, dword ptr [ebp + 8]
c010564d: 31 db                        	xor	ebx, ebx
c010564f: 83 ec 0c                     	sub	esp, 12
c0105652: 56                           	push	esi
c0105653: e8 26 e5 ff ff               	call	0xc0103b7e <spinlock_acquire>
c0105658: 83 c4 10                     	add	esp, 16
c010565b: 8b 44 de 48                  	mov	eax, dword ptr [esi + 8*ebx + 72]
c010565f: 85 c0                        	test	eax, eax
c0105661: 74 19                        	je	0xc010567c <filedes_handle_exec+0x37>
c0105663: f6 44 de 4d 04               	test	byte ptr [esi + 8*ebx + 77], 4
c0105668: 74 12                        	je	0xc010567c <filedes_handle_exec+0x37>
c010566a: 83 ec 0c                     	sub	esp, 12
c010566d: 50                           	push	eax
c010566e: e8 e9 0a 00 00               	call	0xc010615c <vfs_close>
c0105673: 31 c0                        	xor	eax, eax
c0105675: 83 c4 10                     	add	esp, 16
c0105678: 89 44 de 48                  	mov	dword ptr [esi + 8*ebx + 72], eax
c010567c: 43                           	inc	ebx
c010567d: 81 fb 00 04 00 00            	cmp	ebx, 1024
c0105683: 75 d6                        	jne	0xc010565b <filedes_handle_exec+0x16>
c0105685: 83 ec 0c                     	sub	esp, 12
c0105688: 56                           	push	esi
c0105689: e8 f5 e4 ff ff               	call	0xc0103b83 <spinlock_release>
c010568e: 8d 65 f8                     	lea	esp, [ebp - 8]
c0105691: 31 c0                        	xor	eax, eax
c0105693: 5b                           	pop	ebx
c0105694: 5e                           	pop	esi
c0105695: 5d                           	pop	ebp
c0105696: c3                           	ret

c0105697 <filedesc_table_dup>:
c0105697: 55                           	push	ebp
c0105698: 89 e5                        	mov	ebp, esp
c010569a: 56                           	push	esi
c010569b: 53                           	push	ebx
c010569c: 8b 75 08                     	mov	esi, dword ptr [ebp + 8]
c010569f: 31 db                        	xor	ebx, ebx
c01056a1: 83 ec 0c                     	sub	esp, 12
c01056a4: 56                           	push	esi
c01056a5: e8 d4 e4 ff ff               	call	0xc0103b7e <spinlock_acquire>
c01056aa: 5a                           	pop	edx
c01056ab: 59                           	pop	ecx
c01056ac: ff 75 0c                     	push	dword ptr [ebp + 12]
c01056af: 56                           	push	esi
c01056b0: e8 9a fe ff ff               	call	0xc010554f <filedesc_get_open_file>
c01056b5: 83 c4 10                     	add	esp, 16
c01056b8: 85 c0                        	test	eax, eax
c01056ba: 75 13                        	jne	0xc01056cf <filedesc_table_dup+0x38>
c01056bc: 83 ec 0c                     	sub	esp, 12
c01056bf: bb ec ff ff ff               	mov	ebx, 4294967276
c01056c4: 56                           	push	esi
c01056c5: e8 b9 e4 ff ff               	call	0xc0103b83 <spinlock_release>
c01056ca: 83 c4 10                     	add	esp, 16
c01056cd: eb 3c                        	jmp	0xc010570b <filedesc_table_dup+0x74>
c01056cf: 83 7c de 48 00               	cmp	dword ptr [esi + 8*ebx + 72], 0
c01056d4: 75 1b                        	jne	0xc01056f1 <filedesc_table_dup+0x5a>
c01056d6: 8d 53 08                     	lea	edx, [ebx + 8]
c01056d9: 83 ec 0c                     	sub	esp, 12
c01056dc: 89 44 d6 08                  	mov	dword ptr [esi + 8*edx + 8], eax
c01056e0: 31 c0                        	xor	eax, eax
c01056e2: 89 44 d6 0c                  	mov	dword ptr [esi + 8*edx + 12], eax
c01056e6: 56                           	push	esi
c01056e7: e8 97 e4 ff ff               	call	0xc0103b83 <spinlock_release>
c01056ec: 83 c4 10                     	add	esp, 16
c01056ef: eb 1a                        	jmp	0xc010570b <filedesc_table_dup+0x74>
c01056f1: 43                           	inc	ebx
c01056f2: 81 fb 00 04 00 00            	cmp	ebx, 1024
c01056f8: 75 d5                        	jne	0xc01056cf <filedesc_table_dup+0x38>
c01056fa: 83 ec 0c                     	sub	esp, 12
c01056fd: bb e8 ff ff ff               	mov	ebx, 4294967272
c0105702: 56                           	push	esi
c0105703: e8 7b e4 ff ff               	call	0xc0103b83 <spinlock_release>
c0105708: 83 c4 10                     	add	esp, 16
c010570b: 8d 65 f8                     	lea	esp, [ebp - 8]
c010570e: 89 d8                        	mov	eax, ebx
c0105710: 5b                           	pop	ebx
c0105711: 5e                           	pop	esi
c0105712: 5d                           	pop	ebp
c0105713: c3                           	ret

c0105714 <filedesc_table_dup2>:
c0105714: 55                           	push	ebp
c0105715: 89 e5                        	mov	ebp, esp
c0105717: 57                           	push	edi
c0105718: 56                           	push	esi
c0105719: 53                           	push	ebx
c010571a: 83 ec 18                     	sub	esp, 24
c010571d: 8b 5d 08                     	mov	ebx, dword ptr [ebp + 8]
c0105720: 8b 75 10                     	mov	esi, dword ptr [ebp + 16]
c0105723: 53                           	push	ebx
c0105724: e8 55 e4 ff ff               	call	0xc0103b7e <spinlock_acquire>
c0105729: 5f                           	pop	edi
c010572a: 58                           	pop	eax
c010572b: ff 75 0c                     	push	dword ptr [ebp + 12]
c010572e: 53                           	push	ebx
c010572f: e8 1b fe ff ff               	call	0xc010554f <filedesc_get_open_file>
c0105734: 83 c4 10                     	add	esp, 16
c0105737: 85 c0                        	test	eax, eax
c0105739: 75 13                        	jne	0xc010574e <filedesc_table_dup2+0x3a>
c010573b: 83 ec 0c                     	sub	esp, 12
c010573e: be ec ff ff ff               	mov	esi, 4294967276
c0105743: 53                           	push	ebx
c0105744: e8 3a e4 ff ff               	call	0xc0103b83 <spinlock_release>
c0105749: 83 c4 10                     	add	esp, 16
c010574c: eb 3e                        	jmp	0xc010578c <filedesc_table_dup2+0x78>
c010574e: 39 75 0c                     	cmp	dword ptr [ebp + 12], esi
c0105751: 74 2d                        	je	0xc0105780 <filedesc_table_dup2+0x6c>
c0105753: 51                           	push	ecx
c0105754: 89 c7                        	mov	edi, eax
c0105756: 51                           	push	ecx
c0105757: ff 75 0c                     	push	dword ptr [ebp + 12]
c010575a: 53                           	push	ebx
c010575b: e8 ef fd ff ff               	call	0xc010554f <filedesc_get_open_file>
c0105760: 83 c4 10                     	add	esp, 16
c0105763: 85 c0                        	test	eax, eax
c0105765: 74 0c                        	je	0xc0105773 <filedesc_table_dup2+0x5f>
c0105767: 83 ec 0c                     	sub	esp, 12
c010576a: 50                           	push	eax
c010576b: e8 ec 09 00 00               	call	0xc010615c <vfs_close>
c0105770: 83 c4 10                     	add	esp, 16
c0105773: 8d 46 08                     	lea	eax, [esi + 8]
c0105776: 31 d2                        	xor	edx, edx
c0105778: 89 7c c3 08                  	mov	dword ptr [ebx + 8*eax + 8], edi
c010577c: 89 54 c3 0c                  	mov	dword ptr [ebx + 8*eax + 12], edx
c0105780: 83 ec 0c                     	sub	esp, 12
c0105783: 53                           	push	ebx
c0105784: e8 fa e3 ff ff               	call	0xc0103b83 <spinlock_release>
c0105789: 83 c4 10                     	add	esp, 16
c010578c: 8d 65 f4                     	lea	esp, [ebp - 12]
c010578f: 89 f0                        	mov	eax, esi
c0105791: 5b                           	pop	ebx
c0105792: 5e                           	pop	esi
c0105793: 5f                           	pop	edi
c0105794: 5d                           	pop	ebp
c0105795: c3                           	ret

c0105796 <filedesc_table_dup3>:
c0105796: 55                           	push	ebp
c0105797: b8 f9 ff ff ff               	mov	eax, 4294967289
c010579c: 89 e5                        	mov	ebp, esp
c010579e: 57                           	push	edi
c010579f: 56                           	push	esi
c01057a0: 53                           	push	ebx
c01057a1: 83 ec 0c                     	sub	esp, 12
c01057a4: 8b 55 0c                     	mov	edx, dword ptr [ebp + 12]
c01057a7: 8b 75 10                     	mov	esi, dword ptr [ebp + 16]
c01057aa: 8b 7d 08                     	mov	edi, dword ptr [ebp + 8]
c01057ad: 8b 5d 14                     	mov	ebx, dword ptr [ebp + 20]
c01057b0: 39 f2                        	cmp	edx, esi
c01057b2: 74 28                        	je	0xc01057dc <filedesc_table_dup3+0x46>
c01057b4: f7 c3 ff fe ff ff            	test	ebx, 4294967039
c01057ba: 75 20                        	jne	0xc01057dc <filedesc_table_dup3+0x46>
c01057bc: 50                           	push	eax
c01057bd: 56                           	push	esi
c01057be: 52                           	push	edx
c01057bf: 57                           	push	edi
c01057c0: e8 4f ff ff ff               	call	0xc0105714 <filedesc_table_dup2>
c01057c5: 83 c4 10                     	add	esp, 16
c01057c8: 85 c0                        	test	eax, eax
c01057ca: 78 10                        	js	0xc01057dc <filedesc_table_dup3+0x46>
c01057cc: 0f ba e3 08                  	bt	ebx, 8
c01057d0: 73 08                        	jae	0xc01057da <filedesc_table_dup3+0x44>
c01057d2: 81 4c f7 4c 00 04 00 00      	or	dword ptr [edi + 8*esi + 76], 1024
c01057da: 89 f0                        	mov	eax, esi
c01057dc: 8d 65 f4                     	lea	esp, [ebp - 12]
c01057df: 5b                           	pop	ebx
c01057e0: 5e                           	pop	esi
c01057e1: 5f                           	pop	edi
c01057e2: 5d                           	pop	ebp
c01057e3: c3                           	ret

c01057e4 <uio_move>:
c01057e4: 55                           	push	ebp
c01057e5: 89 e5                        	mov	ebp, esp
c01057e7: 56                           	push	esi
c01057e8: 53                           	push	ebx
c01057e9: 8b 75 0c                     	mov	esi, dword ptr [ebp + 12]
c01057ec: 8b 5d 10                     	mov	ebx, dword ptr [ebp + 16]
c01057ef: 8b 45 08                     	mov	eax, dword ptr [ebp + 8]
c01057f2: 8b 56 04                     	mov	edx, dword ptr [esi + 4]
c01057f5: 39 d3                        	cmp	ebx, edx
c01057f7: 0f 47 da                     	cmova	ebx, edx
c01057fa: 85 db                        	test	ebx, ebx
c01057fc: 74 4a                        	je	0xc0105848 <uio_move+0x64>
c01057fe: 83 7e 10 00                  	cmp	dword ptr [esi + 16], 0
c0105802: 8b 4e 0c                     	mov	ecx, dword ptr [esi + 12]
c0105805: 8b 16                        	mov	edx, dword ptr [esi]
c0105807: 75 18                        	jne	0xc0105821 <uio_move+0x3d>
c0105809: 85 c9                        	test	ecx, ecx
c010580b: 75 06                        	jne	0xc0105813 <uio_move+0x2f>
c010580d: 51                           	push	ecx
c010580e: 53                           	push	ebx
c010580f: 50                           	push	eax
c0105810: 52                           	push	edx
c0105811: eb 04                        	jmp	0xc0105817 <uio_move+0x33>
c0105813: 51                           	push	ecx
c0105814: 53                           	push	ebx
c0105815: 52                           	push	edx
c0105816: 50                           	push	eax
c0105817: e8 2e ba ff ff               	call	0xc010124a <memmove>
c010581c: 83 c4 10                     	add	esp, 16
c010581f: eb 1f                        	jmp	0xc0105840 <uio_move+0x5c>
c0105821: 85 c9                        	test	ecx, ecx
c0105823: 75 0b                        	jne	0xc0105830 <uio_move+0x4c>
c0105825: 51                           	push	ecx
c0105826: 53                           	push	ebx
c0105827: 52                           	push	edx
c0105828: 50                           	push	eax
c0105829: e8 15 fb ff ff               	call	0xc0105343 <copyout>
c010582e: eb 09                        	jmp	0xc0105839 <uio_move+0x55>
c0105830: 51                           	push	ecx
c0105831: 53                           	push	ebx
c0105832: 52                           	push	edx
c0105833: 50                           	push	eax
c0105834: e8 d9 fa ff ff               	call	0xc0105312 <copyin>
c0105839: 83 c4 10                     	add	esp, 16
c010583c: 85 c0                        	test	eax, eax
c010583e: 75 0a                        	jne	0xc010584a <uio_move+0x66>
c0105840: 29 5e 04                     	sub	dword ptr [esi + 4], ebx
c0105843: 01 5e 08                     	add	dword ptr [esi + 8], ebx
c0105846: 01 1e                        	add	dword ptr [esi], ebx
c0105848: 31 c0                        	xor	eax, eax
c010584a: 8d 65 f8                     	lea	esp, [ebp - 8]
c010584d: 5b                           	pop	ebx
c010584e: 5e                           	pop	esi
c010584f: 5d                           	pop	ebp
c0105850: c3                           	ret

c0105851 <uio_move_string_to_usermode>:
c0105851: 55                           	push	ebp
c0105852: 31 c9                        	xor	ecx, ecx
c0105854: 89 e5                        	mov	ebp, esp
c0105856: 57                           	push	edi
c0105857: 56                           	push	esi
c0105858: 53                           	push	ebx
c0105859: 8d 5d d4                     	lea	ebx, [ebp - 44]
c010585c: 83 ec 38                     	sub	esp, 56
c010585f: 8b 75 10                     	mov	esi, dword ptr [ebp + 16]
c0105862: 8b 45 0c                     	mov	eax, dword ptr [ebp + 12]
c0105865: c6 45 d3 00                  	mov	byte ptr [ebp - 45], 0
c0105869: 8b 7d 08                     	mov	edi, dword ptr [ebp + 8]
c010586c: 89 4d dc                     	mov	dword ptr [ebp - 36], ecx
c010586f: 89 45 d4                     	mov	dword ptr [ebp - 44], eax
c0105872: 89 75 d8                     	mov	dword ptr [ebp - 40], esi
c0105875: 89 4d e0                     	mov	dword ptr [ebp - 32], ecx
c0105878: c7 45 e4 01 00 00 00         	mov	dword ptr [ebp - 28], 1
c010587f: 57                           	push	edi
c0105880: e8 9c ba ff ff               	call	0xc0101321 <strlen>
c0105885: 83 c4 10                     	add	esp, 16
c0105888: 39 f0                        	cmp	eax, esi
c010588a: 73 0f                        	jae	0xc010589b <uio_move_string_to_usermode+0x4a>
c010588c: 83 ec 0c                     	sub	esp, 12
c010588f: 57                           	push	edi
c0105890: e8 8c ba ff ff               	call	0xc0101321 <strlen>
c0105895: 83 c4 0c                     	add	esp, 12
c0105898: 50                           	push	eax
c0105899: eb 03                        	jmp	0xc010589e <uio_move_string_to_usermode+0x4d>
c010589b: 4e                           	dec	esi
c010589c: 52                           	push	edx
c010589d: 56                           	push	esi
c010589e: 53                           	push	ebx
c010589f: 57                           	push	edi
c01058a0: e8 3f ff ff ff               	call	0xc01057e4 <uio_move>
c01058a5: 83 c4 10                     	add	esp, 16
c01058a8: 85 c0                        	test	eax, eax
c01058aa: 75 10                        	jne	0xc01058bc <uio_move_string_to_usermode+0x6b>
c01058ac: 50                           	push	eax
c01058ad: 8d 45 d3                     	lea	eax, [ebp - 45]
c01058b0: 6a 01                        	push	1
c01058b2: 53                           	push	ebx
c01058b3: 50                           	push	eax
c01058b4: e8 2b ff ff ff               	call	0xc01057e4 <uio_move>
c01058b9: 83 c4 10                     	add	esp, 16
c01058bc: 8d 65 f4                     	lea	esp, [ebp - 12]
c01058bf: 5b                           	pop	ebx
c01058c0: 5e                           	pop	esi
c01058c1: 5f                           	pop	edi
c01058c2: 5d                           	pop	ebp
c01058c3: c3                           	ret

c01058c4 <uio_move_string_from_usermode>:
c01058c4: 55                           	push	ebp
c01058c5: 31 d2                        	xor	edx, edx
c01058c7: 89 e5                        	mov	ebp, esp
c01058c9: 56                           	push	esi
c01058ca: 53                           	push	ebx
c01058cb: 83 ec 20                     	sub	esp, 32
c01058ce: 8b 45 0c                     	mov	eax, dword ptr [ebp + 12]
c01058d1: 8b 5d 10                     	mov	ebx, dword ptr [ebp + 16]
c01058d4: 89 55 ec                     	mov	dword ptr [ebp - 20], edx
c01058d7: 8b 75 08                     	mov	esi, dword ptr [ebp + 8]
c01058da: c7 45 f0 01 00 00 00         	mov	dword ptr [ebp - 16], 1
c01058e1: 89 45 e4                     	mov	dword ptr [ebp - 28], eax
c01058e4: c7 45 f4 01 00 00 00         	mov	dword ptr [ebp - 12], 1
c01058eb: 89 5d e8                     	mov	dword ptr [ebp - 24], ebx
c01058ee: 01 f3                        	add	ebx, esi
c01058f0: 39 de                        	cmp	esi, ebx
c01058f2: 74 22                        	je	0xc0105916 <uio_move_string_from_usermode+0x52>
c01058f4: 50                           	push	eax
c01058f5: 8d 45 e4                     	lea	eax, [ebp - 28]
c01058f8: 6a 01                        	push	1
c01058fa: 50                           	push	eax
c01058fb: 8d 45 e3                     	lea	eax, [ebp - 29]
c01058fe: 50                           	push	eax
c01058ff: e8 e0 fe ff ff               	call	0xc01057e4 <uio_move>
c0105904: 83 c4 10                     	add	esp, 16
c0105907: 85 c0                        	test	eax, eax
c0105909: 75 0d                        	jne	0xc0105918 <uio_move_string_from_usermode+0x54>
c010590b: 8a 45 e3                     	mov	al, byte ptr [ebp - 29]
c010590e: 46                           	inc	esi
c010590f: 88 46 ff                     	mov	byte ptr [esi - 1], al
c0105912: 84 c0                        	test	al, al
c0105914: 75 da                        	jne	0xc01058f0 <uio_move_string_from_usermode+0x2c>
c0105916: 31 c0                        	xor	eax, eax
c0105918: 8d 65 f8                     	lea	esp, [ebp - 8]
c010591b: 5b                           	pop	ebx
c010591c: 5e                           	pop	esi
c010591d: 5d                           	pop	ebp
c010591e: c3                           	ret

c010591f <uio_construct>:
c010591f: 55                           	push	ebp
c0105920: 89 e5                        	mov	ebp, esp
c0105922: 8b 45 08                     	mov	eax, dword ptr [ebp + 8]
c0105925: 8b 55 0c                     	mov	edx, dword ptr [ebp + 12]
c0105928: 89 10                        	mov	dword ptr [eax], edx
c010592a: 8b 55 10                     	mov	edx, dword ptr [ebp + 16]
c010592d: 89 50 04                     	mov	dword ptr [eax + 4], edx
c0105930: 8b 55 14                     	mov	edx, dword ptr [ebp + 20]
c0105933: 89 50 08                     	mov	dword ptr [eax + 8], edx
c0105936: 8b 55 18                     	mov	edx, dword ptr [ebp + 24]
c0105939: 89 50 0c                     	mov	dword ptr [eax + 12], edx
c010593c: 8b 55 1c                     	mov	edx, dword ptr [ebp + 28]
c010593f: 89 50 10                     	mov	dword ptr [eax + 16], edx
c0105942: 5d                           	pop	ebp
c0105943: c2 04 00                     	ret	4

c0105946 <vfs_check_device_name_not_used>:
c0105946: 55                           	push	ebp
c0105947: 89 e5                        	mov	ebp, esp
c0105949: 53                           	push	ebx
c010594a: 89 c3                        	mov	ebx, eax
c010594c: 83 ec 10                     	sub	esp, 16
c010594f: ff 35 68 0e 11 c0            	push	dword ptr [-1072624024]
c0105955: e8 7b f4 ff ff               	call	0xc0104dd5 <adt_list_reset>
c010595a: 83 c4 10                     	add	esp, 16
c010595d: 83 ec 0c                     	sub	esp, 12
c0105960: ff 35 68 0e 11 c0            	push	dword ptr [-1072624024]
c0105966: e8 7b f4 ff ff               	call	0xc0104de6 <adt_list_has_next>
c010596b: 83 c4 10                     	add	esp, 16
c010596e: 84 c0                        	test	al, al
c0105970: 74 27                        	je	0xc0105999 <vfs_check_device_name_not_used+0x53>
c0105972: 83 ec 0c                     	sub	esp, 12
c0105975: ff 35 68 0e 11 c0            	push	dword ptr [-1072624024]
c010597b: e8 8b f4 ff ff               	call	0xc0104e0b <adt_list_get_next>
c0105980: 5a                           	pop	edx
c0105981: 59                           	pop	ecx
c0105982: 53                           	push	ebx
c0105983: ff 70 04                     	push	dword ptr [eax + 4]
c0105986: e8 43 b9 ff ff               	call	0xc01012ce <strcmp>
c010598b: 83 c4 10                     	add	esp, 16
c010598e: 85 c0                        	test	eax, eax
c0105990: 75 cb                        	jne	0xc010595d <vfs_check_device_name_not_used+0x17>
c0105992: b8 08 00 00 00               	mov	eax, 8
c0105997: eb 02                        	jmp	0xc010599b <vfs_check_device_name_not_used+0x55>
c0105999: 31 c0                        	xor	eax, eax
c010599b: 8b 5d fc                     	mov	ebx, dword ptr [ebp - 4]
c010599e: c9                           	leave
c010599f: c3                           	ret

c01059a0 <vfs_get_device_from_name>:
c01059a0: 55                           	push	ebp
c01059a1: 89 e5                        	mov	ebp, esp
c01059a3: 56                           	push	esi
c01059a4: 89 c6                        	mov	esi, eax
c01059a6: 53                           	push	ebx
c01059a7: a1 68 0e 11 c0               	mov	eax, dword ptr [3222343272]
c01059ac: 85 c0                        	test	eax, eax
c01059ae: 75 04                        	jne	0xc01059b4 <vfs_get_device_from_name+0x14>
c01059b0: 31 c0                        	xor	eax, eax
c01059b2: eb 45                        	jmp	0xc01059f9 <vfs_get_device_from_name+0x59>
c01059b4: 83 ec 0c                     	sub	esp, 12
c01059b7: 50                           	push	eax
c01059b8: e8 18 f4 ff ff               	call	0xc0104dd5 <adt_list_reset>
c01059bd: 83 c4 10                     	add	esp, 16
c01059c0: 83 ec 0c                     	sub	esp, 12
c01059c3: ff 35 68 0e 11 c0            	push	dword ptr [-1072624024]
c01059c9: e8 18 f4 ff ff               	call	0xc0104de6 <adt_list_has_next>
c01059ce: 83 c4 10                     	add	esp, 16
c01059d1: 84 c0                        	test	al, al
c01059d3: 74 db                        	je	0xc01059b0 <vfs_get_device_from_name+0x10>
c01059d5: 83 ec 0c                     	sub	esp, 12
c01059d8: ff 35 68 0e 11 c0            	push	dword ptr [-1072624024]
c01059de: e8 28 f4 ff ff               	call	0xc0104e0b <adt_list_get_next>
c01059e3: 89 c3                        	mov	ebx, eax
c01059e5: 58                           	pop	eax
c01059e6: 5a                           	pop	edx
c01059e7: 56                           	push	esi
c01059e8: ff 73 04                     	push	dword ptr [ebx + 4]
c01059eb: e8 de b8 ff ff               	call	0xc01012ce <strcmp>
c01059f0: 83 c4 10                     	add	esp, 16
c01059f3: 85 c0                        	test	eax, eax
c01059f5: 75 c9                        	jne	0xc01059c0 <vfs_get_device_from_name+0x20>
c01059f7: 8b 03                        	mov	eax, dword ptr [ebx]
c01059f9: 8d 65 f8                     	lea	esp, [ebp - 8]
c01059fc: 5b                           	pop	ebx
c01059fd: 5e                           	pop	esi
c01059fe: 5d                           	pop	ebp
c01059ff: c3                           	ret

c0105a00 <cleanup_vnode_stack>:
c0105a00: 55                           	push	ebp
c0105a01: 89 e5                        	mov	ebp, esp
c0105a03: 53                           	push	ebx
c0105a04: 89 c3                        	mov	ebx, eax
c0105a06: 52                           	push	edx
c0105a07: 83 ec 0c                     	sub	esp, 12
c0105a0a: 53                           	push	ebx
c0105a0b: e8 29 f5 ff ff               	call	0xc0104f39 <adt_stack_size>
c0105a10: 83 c4 10                     	add	esp, 16
c0105a13: 85 c0                        	test	eax, eax
c0105a15: 7e 16                        	jle	0xc0105a2d <cleanup_vnode_stack+0x2d>
c0105a17: 83 ec 0c                     	sub	esp, 12
c0105a1a: 53                           	push	ebx
c0105a1b: e8 08 f5 ff ff               	call	0xc0104f28 <adt_stack_pop>
c0105a20: 89 04 24                     	mov	dword ptr [esp], eax
c0105a23: e8 b3 0c 00 00               	call	0xc01066db <vnode_dereference>
c0105a28: 83 c4 10                     	add	esp, 16
c0105a2b: eb da                        	jmp	0xc0105a07 <cleanup_vnode_stack+0x7>
c0105a2d: 83 ec 0c                     	sub	esp, 12
c0105a30: 53                           	push	ebx
c0105a31: e8 c1 f4 ff ff               	call	0xc0104ef7 <adt_stack_destroy>
c0105a36: 8b 5d fc                     	mov	ebx, dword ptr [ebp - 4]
c0105a39: 83 c4 10                     	add	esp, 16
c0105a3c: c9                           	leave
c0105a3d: c3                           	ret

c0105a3e <vfs_check_valid_component_name>:
c0105a3e: 80 38 00                     	cmp	byte ptr [eax], 0
c0105a41: 75 06                        	jne	0xc0105a49 <vfs_check_valid_component_name+0xb>
c0105a43: b8 07 00 00 00               	mov	eax, 7
c0105a48: c3                           	ret
c0105a49: 8a 10                        	mov	dl, byte ptr [eax]
c0105a4b: 84 d2                        	test	dl, dl
c0105a4d: 75 03                        	jne	0xc0105a52 <vfs_check_valid_component_name+0x14>
c0105a4f: 31 c0                        	xor	eax, eax
c0105a51: c3                           	ret
c0105a52: 55                           	push	ebp
c0105a53: 89 e5                        	mov	ebp, esp
c0105a55: 53                           	push	ebx
c0105a56: 40                           	inc	eax
c0105a57: 80 fa 2f                     	cmp	dl, 47
c0105a5a: 0f 94 c1                     	sete	cl
c0105a5d: 80 fa 5c                     	cmp	dl, 92
c0105a60: 0f 94 c3                     	sete	bl
c0105a63: 08 d9                        	or	cl, bl
c0105a65: 75 0f                        	jne	0xc0105a76 <vfs_check_valid_component_name+0x38>
c0105a67: 80 fa 3a                     	cmp	dl, 58
c0105a6a: 74 0a                        	je	0xc0105a76 <vfs_check_valid_component_name+0x38>
c0105a6c: 8a 10                        	mov	dl, byte ptr [eax]
c0105a6e: 84 d2                        	test	dl, dl
c0105a70: 75 e4                        	jne	0xc0105a56 <vfs_check_valid_component_name+0x18>
c0105a72: 31 c0                        	xor	eax, eax
c0105a74: eb 05                        	jmp	0xc0105a7b <vfs_check_valid_component_name+0x3d>
c0105a76: b8 07 00 00 00               	mov	eax, 7
c0105a7b: 5b                           	pop	ebx
c0105a7c: 5d                           	pop	ebp
c0105a7d: c3                           	ret

c0105a7e <vfs_init>:
c0105a7e: 55                           	push	ebp
c0105a7f: 89 e5                        	mov	ebp, esp
c0105a81: 83 ec 10                     	sub	esp, 16
c0105a84: 68 85 ae 10 c0               	push	3222318725
c0105a89: 68 20 0e 11 c0               	push	3222343200
c0105a8e: e8 bc e0 ff ff               	call	0xc0103b4f <spinlock_init>
c0105a93: e8 85 f1 ff ff               	call	0xc0104c1d <adt_list_create>
c0105a98: 83 c4 10                     	add	esp, 16
c0105a9b: a3 68 0e 11 c0               	mov	dword ptr [3222343272], eax
c0105aa0: c9                           	leave
c0105aa1: c3                           	ret

c0105aa2 <vfs_get_path_component>:
c0105aa2: 55                           	push	ebp
c0105aa3: 89 e5                        	mov	ebp, esp
c0105aa5: 57                           	push	edi
c0105aa6: 56                           	push	esi
c0105aa7: 53                           	push	ebx
c0105aa8: 83 ec 1c                     	sub	esp, 28
c0105aab: 8b 4d 10                     	mov	ecx, dword ptr [ebp + 16]
c0105aae: 8a 55 18                     	mov	dl, byte ptr [ebp + 24]
c0105ab1: 8b 75 14                     	mov	esi, dword ptr [ebp + 20]
c0105ab4: 8b 7d 08                     	mov	edi, dword ptr [ebp + 8]
c0105ab7: c6 01 00                     	mov	byte ptr [ecx], 0
c0105aba: 8b 45 0c                     	mov	eax, dword ptr [ebp + 12]
c0105abd: 88 55 e7                     	mov	byte ptr [ebp - 25], dl
c0105ac0: 4e                           	dec	esi
c0105ac1: 31 d2                        	xor	edx, edx
c0105ac3: 8b 18                        	mov	ebx, dword ptr [eax]
c0105ac5: 8a 1c 1f                     	mov	bl, byte ptr [edi + ebx]
c0105ac8: 84 db                        	test	bl, bl
c0105aca: 74 24                        	je	0xc0105af0 <vfs_get_path_component+0x4e>
c0105acc: 3a 5d e7                     	cmp	bl, byte ptr [ebp - 25]
c0105acf: 74 11                        	je	0xc0105ae2 <vfs_get_path_component+0x40>
c0105ad1: 39 d6                        	cmp	esi, edx
c0105ad3: 7e 29                        	jle	0xc0105afe <vfs_get_path_component+0x5c>
c0105ad5: 42                           	inc	edx
c0105ad6: 88 5c 11 ff                  	mov	byte ptr [ecx + edx - 1], bl
c0105ada: c6 04 11 00                  	mov	byte ptr [ecx + edx], 0
c0105ade: ff 00                        	inc	dword ptr [eax]
c0105ae0: eb e1                        	jmp	0xc0105ac3 <vfs_get_path_component+0x21>
c0105ae2: 8b 10                        	mov	edx, dword ptr [eax]
c0105ae4: 8d 5a 01                     	lea	ebx, [edx + 1]
c0105ae7: 89 18                        	mov	dword ptr [eax], ebx
c0105ae9: 80 7c 17 01 2f               	cmp	byte ptr [edi + edx + 1], 47
c0105aee: 74 f2                        	je	0xc0105ae2 <vfs_get_path_component+0x40>
c0105af0: 83 c4 1c                     	add	esp, 28
c0105af3: 89 c8                        	mov	eax, ecx
c0105af5: 5b                           	pop	ebx
c0105af6: 5e                           	pop	esi
c0105af7: 5f                           	pop	edi
c0105af8: 5d                           	pop	ebp
c0105af9: e9 40 ff ff ff               	jmp	0xc0105a3e <vfs_check_valid_component_name>
c0105afe: 83 c4 1c                     	add	esp, 28
c0105b01: b8 0d 00 00 00               	mov	eax, 13
c0105b06: 5b                           	pop	ebx
c0105b07: 5e                           	pop	esi
c0105b08: 5f                           	pop	edi
c0105b09: 5d                           	pop	ebp
c0105b0a: c3                           	ret

c0105b0b <vfs_get_vnode_from_path.part.0>:
c0105b0b: 55                           	push	ebp
c0105b0c: 89 e5                        	mov	ebp, esp
c0105b0e: 57                           	push	edi
c0105b0f: 56                           	push	esi
c0105b10: 53                           	push	ebx
c0105b11: 8d 9d e7 fd ff ff            	lea	ebx, [ebp - 537]
c0105b17: 81 ec 38 02 00 00            	sub	esp, 568
c0105b1d: 89 85 d4 fd ff ff            	mov	dword ptr [ebp - 556], eax
c0105b23: 31 c0                        	xor	eax, eax
c0105b25: 89 85 dc fd ff ff            	mov	dword ptr [ebp - 548], eax
c0105b2b: 8d 85 dc fd ff ff            	lea	eax, [ebp - 548]
c0105b31: 89 95 d0 fd ff ff            	mov	dword ptr [ebp - 560], edx
c0105b37: 89 8d cc fd ff ff            	mov	dword ptr [ebp - 564], ecx
c0105b3d: 6a 3a                        	push	58
c0105b3f: 68 00 01 00 00               	push	256
c0105b44: 53                           	push	ebx
c0105b45: 50                           	push	eax
c0105b46: ff b5 d4 fd ff ff            	push	dword ptr [ebp - 556]
c0105b4c: e8 51 ff ff ff               	call	0xc0105aa2 <vfs_get_path_component>
c0105b51: 83 c4 20                     	add	esp, 32
c0105b54: 89 c7                        	mov	edi, eax
c0105b56: 85 c0                        	test	eax, eax
c0105b58: 0f 85 a6 01 00 00            	jne	0xc0105d04 <vfs_get_vnode_from_path.part.0+0x1f9>
c0105b5e: 89 d8                        	mov	eax, ebx
c0105b60: e8 3b fe ff ff               	call	0xc01059a0 <vfs_get_device_from_name>
c0105b65: 85 c0                        	test	eax, eax
c0105b67: 0f 84 92 01 00 00            	je	0xc0105cff <vfs_get_vnode_from_path.part.0+0x1f4>
c0105b6d: 8b 58 5c                     	mov	ebx, dword ptr [eax + 92]
c0105b70: 85 db                        	test	ebx, ebx
c0105b72: 0f 84 87 01 00 00            	je	0xc0105cff <vfs_get_vnode_from_path.part.0+0x1f4>
c0105b78: 83 ec 0c                     	sub	esp, 12
c0105b7b: 53                           	push	ebx
c0105b7c: e8 10 0a 00 00               	call	0xc0106591 <vnode_reference>
c0105b81: e8 53 f3 ff ff               	call	0xc0104ed9 <adt_stack_create>
c0105b86: 89 c6                        	mov	esi, eax
c0105b88: 83 c4 10                     	add	esp, 16
c0105b8b: 83 ec 0c                     	sub	esp, 12
c0105b8e: ff b5 d4 fd ff ff            	push	dword ptr [ebp - 556]
c0105b94: e8 88 b7 ff ff               	call	0xc0101321 <strlen>
c0105b99: 83 c4 10                     	add	esp, 16
c0105b9c: 3b 85 dc fd ff ff            	cmp	eax, dword ptr [ebp - 548]
c0105ba2: 0f 8e 18 01 00 00            	jle	0xc0105cc0 <vfs_get_vnode_from_path.part.0+0x1b5>
c0105ba8: 83 ec 0c                     	sub	esp, 12
c0105bab: 53                           	push	ebx
c0105bac: e8 b4 0b 00 00               	call	0xc0106765 <vnode_op_dirent_type>
c0105bb1: 83 c4 10                     	add	esp, 16
c0105bb4: 3c 02                        	cmp	al, 2
c0105bb6: 74 1d                        	je	0xc0105bd5 <vfs_get_vnode_from_path.part.0+0xca>
c0105bb8: 83 ec 0c                     	sub	esp, 12
c0105bbb: 53                           	push	ebx
c0105bbc: e8 1a 0b 00 00               	call	0xc01066db <vnode_dereference>
c0105bc1: 89 f0                        	mov	eax, esi
c0105bc3: e8 38 fe ff ff               	call	0xc0105a00 <cleanup_vnode_stack>
c0105bc8: 83 c4 10                     	add	esp, 16
c0105bcb: ba 0e 00 00 00               	mov	edx, 14
c0105bd0: e9 e7 00 00 00               	jmp	0xc0105cbc <vfs_get_vnode_from_path.part.0+0x1b1>
c0105bd5: 83 ec 0c                     	sub	esp, 12
c0105bd8: 8d 85 e7 fe ff ff            	lea	eax, [ebp - 281]
c0105bde: 6a 2f                        	push	47
c0105be0: 68 00 01 00 00               	push	256
c0105be5: 50                           	push	eax
c0105be6: 8d 85 dc fd ff ff            	lea	eax, [ebp - 548]
c0105bec: 50                           	push	eax
c0105bed: ff b5 d4 fd ff ff            	push	dword ptr [ebp - 556]
c0105bf3: e8 aa fe ff ff               	call	0xc0105aa2 <vfs_get_path_component>
c0105bf8: 83 c4 20                     	add	esp, 32
c0105bfb: 89 c2                        	mov	edx, eax
c0105bfd: 85 c0                        	test	eax, eax
c0105bff: 0f 85 82 00 00 00            	jne	0xc0105c87 <vfs_get_vnode_from_path.part.0+0x17c>
c0105c05: 50                           	push	eax
c0105c06: 50                           	push	eax
c0105c07: 8d 85 e7 fe ff ff            	lea	eax, [ebp - 281]
c0105c0d: 68 8f ae 10 c0               	push	3222318735
c0105c12: 50                           	push	eax
c0105c13: e8 b6 b6 ff ff               	call	0xc01012ce <strcmp>
c0105c18: 83 c4 10                     	add	esp, 16
c0105c1b: 85 c0                        	test	eax, eax
c0105c1d: 0f 84 68 ff ff ff            	je	0xc0105b8b <vfs_get_vnode_from_path.part.0+0x80>
c0105c23: 50                           	push	eax
c0105c24: 50                           	push	eax
c0105c25: 8d 85 e7 fe ff ff            	lea	eax, [ebp - 281]
c0105c2b: 68 8e ae 10 c0               	push	3222318734
c0105c30: 50                           	push	eax
c0105c31: e8 98 b6 ff ff               	call	0xc01012ce <strcmp>
c0105c36: 83 c4 10                     	add	esp, 16
c0105c39: 85 c0                        	test	eax, eax
c0105c3b: 75 24                        	jne	0xc0105c61 <vfs_get_vnode_from_path.part.0+0x156>
c0105c3d: 83 ec 0c                     	sub	esp, 12
c0105c40: 56                           	push	esi
c0105c41: e8 f3 f2 ff ff               	call	0xc0104f39 <adt_stack_size>
c0105c46: 83 c4 10                     	add	esp, 16
c0105c49: 85 c0                        	test	eax, eax
c0105c4b: 0f 84 3a ff ff ff            	je	0xc0105b8b <vfs_get_vnode_from_path.part.0+0x80>
c0105c51: 83 ec 0c                     	sub	esp, 12
c0105c54: 56                           	push	esi
c0105c55: e8 ce f2 ff ff               	call	0xc0104f28 <adt_stack_pop>
c0105c5a: 89 c3                        	mov	ebx, eax
c0105c5c: e9 27 ff ff ff               	jmp	0xc0105b88 <vfs_get_vnode_from_path.part.0+0x7d>
c0105c61: 31 d2                        	xor	edx, edx
c0105c63: 8d 85 e7 fe ff ff            	lea	eax, [ebp - 281]
c0105c69: 89 95 e0 fd ff ff            	mov	dword ptr [ebp - 544], edx
c0105c6f: 51                           	push	ecx
c0105c70: 50                           	push	eax
c0105c71: 8d 85 e0 fd ff ff            	lea	eax, [ebp - 544]
c0105c77: 50                           	push	eax
c0105c78: 53                           	push	ebx
c0105c79: e8 b7 0a 00 00               	call	0xc0106735 <vnode_op_follow>
c0105c7e: 83 c4 10                     	add	esp, 16
c0105c81: 89 c2                        	mov	edx, eax
c0105c83: 85 c0                        	test	eax, eax
c0105c85: 74 21                        	je	0xc0105ca8 <vfs_get_vnode_from_path.part.0+0x19d>
c0105c87: 83 ec 0c                     	sub	esp, 12
c0105c8a: 89 95 d4 fd ff ff            	mov	dword ptr [ebp - 556], edx
c0105c90: 53                           	push	ebx
c0105c91: e8 45 0a 00 00               	call	0xc01066db <vnode_dereference>
c0105c96: 89 f0                        	mov	eax, esi
c0105c98: e8 63 fd ff ff               	call	0xc0105a00 <cleanup_vnode_stack>
c0105c9d: 8b 95 d4 fd ff ff            	mov	edx, dword ptr [ebp - 556]
c0105ca3: 83 c4 10                     	add	esp, 16
c0105ca6: eb 14                        	jmp	0xc0105cbc <vfs_get_vnode_from_path.part.0+0x1b1>
c0105ca8: 50                           	push	eax
c0105ca9: 50                           	push	eax
c0105caa: 53                           	push	ebx
c0105cab: 56                           	push	esi
c0105cac: e8 66 f2 ff ff               	call	0xc0104f17 <adt_stack_push>
c0105cb1: 8b 9d e0 fd ff ff            	mov	ebx, dword ptr [ebp - 544]
c0105cb7: e9 cc fe ff ff               	jmp	0xc0105b88 <vfs_get_vnode_from_path.part.0+0x7d>
c0105cbc: 89 d7                        	mov	edi, edx
c0105cbe: eb 44                        	jmp	0xc0105d04 <vfs_get_vnode_from_path.part.0+0x1f9>
c0105cc0: 80 bd cc fd ff ff 00         	cmp	byte ptr [ebp - 564], 0
c0105cc7: 74 1e                        	je	0xc0105ce7 <vfs_get_vnode_from_path.part.0+0x1dc>
c0105cc9: 83 ec 0c                     	sub	esp, 12
c0105ccc: 56                           	push	esi
c0105ccd: e8 67 f2 ff ff               	call	0xc0104f39 <adt_stack_size>
c0105cd2: 83 c4 10                     	add	esp, 16
c0105cd5: 85 c0                        	test	eax, eax
c0105cd7: 74 18                        	je	0xc0105cf1 <vfs_get_vnode_from_path.part.0+0x1e6>
c0105cd9: 83 ec 0c                     	sub	esp, 12
c0105cdc: 56                           	push	esi
c0105cdd: e8 46 f2 ff ff               	call	0xc0104f28 <adt_stack_pop>
c0105ce2: 83 c4 10                     	add	esp, 16
c0105ce5: 89 c3                        	mov	ebx, eax
c0105ce7: 8b 85 d0 fd ff ff            	mov	eax, dword ptr [ebp - 560]
c0105ced: 89 18                        	mov	dword ptr [eax], ebx
c0105cef: eb 05                        	jmp	0xc0105cf6 <vfs_get_vnode_from_path.part.0+0x1eb>
c0105cf1: bf 07 00 00 00               	mov	edi, 7
c0105cf6: 89 f0                        	mov	eax, esi
c0105cf8: e8 03 fd ff ff               	call	0xc0105a00 <cleanup_vnode_stack>
c0105cfd: eb 05                        	jmp	0xc0105d04 <vfs_get_vnode_from_path.part.0+0x1f9>
c0105cff: bf 03 00 00 00               	mov	edi, 3
c0105d04: 8d 65 f4                     	lea	esp, [ebp - 12]
c0105d07: 89 f8                        	mov	eax, edi
c0105d09: 5b                           	pop	ebx
c0105d0a: 5e                           	pop	esi
c0105d0b: 5f                           	pop	edi
c0105d0c: 5d                           	pop	ebp
c0105d0d: c3                           	ret

c0105d0e <vfs_get_vnode_from_path>:
c0105d0e: 55                           	push	ebp
c0105d0f: 89 e5                        	mov	ebp, esp
c0105d11: 57                           	push	edi
c0105d12: 89 d7                        	mov	edi, edx
c0105d14: 56                           	push	esi
c0105d15: 89 ce                        	mov	esi, ecx
c0105d17: 53                           	push	ebx
c0105d18: 89 c3                        	mov	ebx, eax
c0105d1a: 83 ec 18                     	sub	esp, 24
c0105d1d: 50                           	push	eax
c0105d1e: e8 fe b5 ff ff               	call	0xc0101321 <strlen>
c0105d23: 83 c4 10                     	add	esp, 16
c0105d26: 85 c0                        	test	eax, eax
c0105d28: 74 28                        	je	0xc0105d52 <vfs_get_vnode_from_path+0x44>
c0105d2a: 83 ec 0c                     	sub	esp, 12
c0105d2d: 53                           	push	ebx
c0105d2e: e8 ee b5 ff ff               	call	0xc0101321 <strlen>
c0105d33: 83 c4 10                     	add	esp, 16
c0105d36: 3d d0 07 00 00               	cmp	eax, 2000
c0105d3b: 77 1c                        	ja	0xc0105d59 <vfs_get_vnode_from_path+0x4b>
c0105d3d: 8d 65 f4                     	lea	esp, [ebp - 12]
c0105d40: 89 f0                        	mov	eax, esi
c0105d42: 89 fa                        	mov	edx, edi
c0105d44: 0f b6 c8                     	movzx	ecx, al
c0105d47: 89 d8                        	mov	eax, ebx
c0105d49: 5b                           	pop	ebx
c0105d4a: 5e                           	pop	esi
c0105d4b: 5f                           	pop	edi
c0105d4c: 5d                           	pop	ebp
c0105d4d: e9 b9 fd ff ff               	jmp	0xc0105b0b <vfs_get_vnode_from_path.part.0>
c0105d52: b8 07 00 00 00               	mov	eax, 7
c0105d57: eb 05                        	jmp	0xc0105d5e <vfs_get_vnode_from_path+0x50>
c0105d59: b8 0d 00 00 00               	mov	eax, 13
c0105d5e: 8d 65 f4                     	lea	esp, [ebp - 12]
c0105d61: 5b                           	pop	ebx
c0105d62: 5e                           	pop	esi
c0105d63: 5f                           	pop	edi
c0105d64: 5d                           	pop	ebp
c0105d65: c3                           	ret

c0105d66 <vfs_get_final_component>:
c0105d66: 55                           	push	ebp
c0105d67: 31 c0                        	xor	eax, eax
c0105d69: 89 e5                        	mov	ebp, esp
c0105d6b: 57                           	push	edi
c0105d6c: 56                           	push	esi
c0105d6d: 8d 7d e4                     	lea	edi, [ebp - 28]
c0105d70: 53                           	push	ebx
c0105d71: 83 ec 28                     	sub	esp, 40
c0105d74: 8b 75 08                     	mov	esi, dword ptr [ebp + 8]
c0105d77: 89 45 e4                     	mov	dword ptr [ebp - 28], eax
c0105d7a: 6a 3a                        	push	58
c0105d7c: ff 75 10                     	push	dword ptr [ebp + 16]
c0105d7f: ff 75 0c                     	push	dword ptr [ebp + 12]
c0105d82: 57                           	push	edi
c0105d83: 56                           	push	esi
c0105d84: e8 19 fd ff ff               	call	0xc0105aa2 <vfs_get_path_component>
c0105d89: 83 c4 20                     	add	esp, 32
c0105d8c: 89 c3                        	mov	ebx, eax
c0105d8e: 85 c0                        	test	eax, eax
c0105d90: 75 2c                        	jne	0xc0105dbe <vfs_get_final_component+0x58>
c0105d92: 83 ec 0c                     	sub	esp, 12
c0105d95: 56                           	push	esi
c0105d96: e8 86 b5 ff ff               	call	0xc0101321 <strlen>
c0105d9b: 83 c4 10                     	add	esp, 16
c0105d9e: 3b 45 e4                     	cmp	eax, dword ptr [ebp - 28]
c0105da1: 7e 1b                        	jle	0xc0105dbe <vfs_get_final_component+0x58>
c0105da3: 83 ec 0c                     	sub	esp, 12
c0105da6: 6a 2f                        	push	47
c0105da8: ff 75 10                     	push	dword ptr [ebp + 16]
c0105dab: ff 75 0c                     	push	dword ptr [ebp + 12]
c0105dae: 57                           	push	edi
c0105daf: 56                           	push	esi
c0105db0: e8 ed fc ff ff               	call	0xc0105aa2 <vfs_get_path_component>
c0105db5: 83 c4 20                     	add	esp, 32
c0105db8: 85 c0                        	test	eax, eax
c0105dba: 74 d6                        	je	0xc0105d92 <vfs_get_final_component+0x2c>
c0105dbc: 89 c3                        	mov	ebx, eax
c0105dbe: 8d 65 f4                     	lea	esp, [ebp - 12]
c0105dc1: 89 d8                        	mov	eax, ebx
c0105dc3: 5b                           	pop	ebx
c0105dc4: 5e                           	pop	esi
c0105dc5: 5f                           	pop	edi
c0105dc6: 5d                           	pop	ebp
c0105dc7: c3                           	ret

c0105dc8 <vfs_mount_filesystem>:
c0105dc8: 55                           	push	ebp
c0105dc9: 89 e5                        	mov	ebp, esp
c0105dcb: 57                           	push	edi
c0105dcc: 56                           	push	esi
c0105dcd: 53                           	push	ebx
c0105dce: bb 0d 00 00 00               	mov	ebx, 13
c0105dd3: 81 ec 28 01 00 00            	sub	esp, 296
c0105dd9: 8b 7d 08                     	mov	edi, dword ptr [ebp + 8]
c0105ddc: 57                           	push	edi
c0105ddd: e8 3f b5 ff ff               	call	0xc0101321 <strlen>
c0105de2: 83 c4 10                     	add	esp, 16
c0105de5: 3d fb 00 00 00               	cmp	eax, 251
c0105dea: 0f 87 ef 00 00 00            	ja	0xc0105edf <vfs_mount_filesystem+0x117>
c0105df0: 83 ec 0c                     	sub	esp, 12
c0105df3: 68 20 0e 11 c0               	push	3222343200
c0105df8: e8 81 dd ff ff               	call	0xc0103b7e <spinlock_acquire>
c0105dfd: 5b                           	pop	ebx
c0105dfe: 8d 9d e0 fe ff ff            	lea	ebx, [ebp - 288]
c0105e04: 5e                           	pop	esi
c0105e05: 68 91 ae 10 c0               	push	3222318737
c0105e0a: 53                           	push	ebx
c0105e0b: e8 de b4 ff ff               	call	0xc01012ee <strcpy>
c0105e10: 58                           	pop	eax
c0105e11: 5a                           	pop	edx
c0105e12: 57                           	push	edi
c0105e13: 53                           	push	ebx
c0105e14: e8 76 b4 ff ff               	call	0xc010128f <strcat>
c0105e19: 89 f8                        	mov	eax, edi
c0105e1b: e8 26 fb ff ff               	call	0xc0105946 <vfs_check_device_name_not_used>
c0105e20: 83 c4 10                     	add	esp, 16
c0105e23: 85 c0                        	test	eax, eax
c0105e25: 74 1a                        	je	0xc0105e41 <vfs_mount_filesystem+0x79>
c0105e27: 83 ec 0c                     	sub	esp, 12
c0105e2a: bb 08 00 00 00               	mov	ebx, 8
c0105e2f: 68 20 0e 11 c0               	push	3222343200
c0105e34: e8 4a dd ff ff               	call	0xc0103b83 <spinlock_release>
c0105e39: 83 c4 10                     	add	esp, 16
c0105e3c: e9 9e 00 00 00               	jmp	0xc0105edf <vfs_mount_filesystem+0x117>
c0105e41: 89 d8                        	mov	eax, ebx
c0105e43: e8 fe fa ff ff               	call	0xc0105946 <vfs_check_device_name_not_used>
c0105e48: 85 c0                        	test	eax, eax
c0105e4a: 75 17                        	jne	0xc0105e63 <vfs_mount_filesystem+0x9b>
c0105e4c: 83 ec 0c                     	sub	esp, 12
c0105e4f: bb 03 00 00 00               	mov	ebx, 3
c0105e54: 68 20 0e 11 c0               	push	3222343200
c0105e59: e8 25 dd ff ff               	call	0xc0103b83 <spinlock_release>
c0105e5e: 83 c4 10                     	add	esp, 16
c0105e61: eb 7c                        	jmp	0xc0105edf <vfs_mount_filesystem+0x117>
c0105e63: 89 d8                        	mov	eax, ebx
c0105e65: e8 36 fb ff ff               	call	0xc01059a0 <vfs_get_device_from_name>
c0105e6a: 89 c6                        	mov	esi, eax
c0105e6c: 8d 85 dc fe ff ff            	lea	eax, [ebp - 292]
c0105e72: 51                           	push	ecx
c0105e73: 51                           	push	ecx
c0105e74: 50                           	push	eax
c0105e75: 56                           	push	esi
c0105e76: ff 55 0c                     	call	dword ptr [ebp + 12]
c0105e79: 89 c3                        	mov	ebx, eax
c0105e7b: 83 c4 10                     	add	esp, 16
c0105e7e: 85 c0                        	test	eax, eax
c0105e80: 74 0a                        	je	0xc0105e8c <vfs_mount_filesystem+0xc4>
c0105e82: 83 ec 0c                     	sub	esp, 12
c0105e85: 68 20 0e 11 c0               	push	3222343200
c0105e8a: eb 4b                        	jmp	0xc0105ed7 <vfs_mount_filesystem+0x10f>
c0105e8c: 83 ec 0c                     	sub	esp, 12
c0105e8f: 6a 08                        	push	8
c0105e91: e8 6f c5 ff ff               	call	0xc0102405 <malloc>
c0105e96: 89 30                        	mov	dword ptr [eax], esi
c0105e98: 8b 95 dc fe ff ff            	mov	edx, dword ptr [ebp - 292]
c0105e9e: 89 50 04                     	mov	dword ptr [eax + 4], edx
c0105ea1: c7 04 24 08 00 00 00         	mov	dword ptr [esp], 8
c0105ea8: e8 58 c5 ff ff               	call	0xc0102405 <malloc>
c0105ead: 89 3c 24                     	mov	dword ptr [esp], edi
c0105eb0: 89 c6                        	mov	esi, eax
c0105eb2: e8 a7 b4 ff ff               	call	0xc010135e <strdup>
c0105eb7: 89 46 04                     	mov	dword ptr [esi + 4], eax
c0105eba: 8b 85 dc fe ff ff            	mov	eax, dword ptr [ebp - 292]
c0105ec0: 89 06                        	mov	dword ptr [esi], eax
c0105ec2: 58                           	pop	eax
c0105ec3: 5a                           	pop	edx
c0105ec4: 56                           	push	esi
c0105ec5: ff 35 68 0e 11 c0            	push	dword ptr [-1072624024]
c0105ecb: e8 a9 ed ff ff               	call	0xc0104c79 <adt_list_add_back>
c0105ed0: c7 04 24 20 0e 11 c0         	mov	dword ptr [esp], 3222343200
c0105ed7: e8 a7 dc ff ff               	call	0xc0103b83 <spinlock_release>
c0105edc: 83 c4 10                     	add	esp, 16
c0105edf: 8d 65 f4                     	lea	esp, [ebp - 12]
c0105ee2: 89 d8                        	mov	eax, ebx
c0105ee4: 5b                           	pop	ebx
c0105ee5: 5e                           	pop	esi
c0105ee6: 5f                           	pop	edi
c0105ee7: 5d                           	pop	ebp
c0105ee8: c3                           	ret

c0105ee9 <vfs_write>:
c0105ee9: 55                           	push	ebp
c0105eea: 89 e5                        	mov	ebp, esp
c0105eec: 56                           	push	esi
c0105eed: 53                           	push	ebx
c0105eee: 8b 75 0c                     	mov	esi, dword ptr [ebp + 12]
c0105ef1: 8b 5d 08                     	mov	ebx, dword ptr [ebp + 8]
c0105ef4: 85 f6                        	test	esi, esi
c0105ef6: 74 3a                        	je	0xc0105f32 <vfs_write+0x49>
c0105ef8: 83 3e 00                     	cmp	dword ptr [esi], 0
c0105efb: 74 35                        	je	0xc0105f32 <vfs_write+0x49>
c0105efd: 85 db                        	test	ebx, ebx
c0105eff: 74 31                        	je	0xc0105f32 <vfs_write+0x49>
c0105f01: 8b 43 5c                     	mov	eax, dword ptr [ebx + 92]
c0105f04: 85 c0                        	test	eax, eax
c0105f06: 74 2a                        	je	0xc0105f32 <vfs_write+0x49>
c0105f08: 80 7b 01 00                  	cmp	byte ptr [ebx + 1], 0
c0105f0c: 74 2b                        	je	0xc0105f39 <vfs_write+0x50>
c0105f0e: 83 ec 0c                     	sub	esp, 12
c0105f11: 50                           	push	eax
c0105f12: e8 4e 08 00 00               	call	0xc0106765 <vnode_op_dirent_type>
c0105f17: 83 c4 10                     	add	esp, 16
c0105f1a: 3c 02                        	cmp	al, 2
c0105f1c: 74 22                        	je	0xc0105f40 <vfs_write+0x57>
c0105f1e: 89 75 0c                     	mov	dword ptr [ebp + 12], esi
c0105f21: 8b 43 5c                     	mov	eax, dword ptr [ebx + 92]
c0105f24: 89 45 08                     	mov	dword ptr [ebp + 8], eax
c0105f27: 8d 65 f8                     	lea	esp, [ebp - 8]
c0105f2a: 5b                           	pop	ebx
c0105f2b: 5e                           	pop	esi
c0105f2c: 5d                           	pop	ebp
c0105f2d: e9 07 07 00 00               	jmp	0xc0106639 <vnode_op_write>
c0105f32: b8 07 00 00 00               	mov	eax, 7
c0105f37: eb 0c                        	jmp	0xc0105f45 <vfs_write+0x5c>
c0105f39: b8 14 00 00 00               	mov	eax, 20
c0105f3e: eb 05                        	jmp	0xc0105f45 <vfs_write+0x5c>
c0105f40: b8 0f 00 00 00               	mov	eax, 15
c0105f45: 8d 65 f8                     	lea	esp, [ebp - 8]
c0105f48: 5b                           	pop	ebx
c0105f49: 5e                           	pop	esi
c0105f4a: 5d                           	pop	ebp
c0105f4b: c3                           	ret

c0105f4c <vfs_read>:
c0105f4c: 55                           	push	ebp
c0105f4d: 89 e5                        	mov	ebp, esp
c0105f4f: 56                           	push	esi
c0105f50: 53                           	push	ebx
c0105f51: 8b 75 0c                     	mov	esi, dword ptr [ebp + 12]
c0105f54: 8b 5d 08                     	mov	ebx, dword ptr [ebp + 8]
c0105f57: 85 f6                        	test	esi, esi
c0105f59: 74 39                        	je	0xc0105f94 <vfs_read+0x48>
c0105f5b: 83 3e 00                     	cmp	dword ptr [esi], 0
c0105f5e: 74 34                        	je	0xc0105f94 <vfs_read+0x48>
c0105f60: 85 db                        	test	ebx, ebx
c0105f62: 74 30                        	je	0xc0105f94 <vfs_read+0x48>
c0105f64: 8b 43 5c                     	mov	eax, dword ptr [ebx + 92]
c0105f67: 85 c0                        	test	eax, eax
c0105f69: 74 29                        	je	0xc0105f94 <vfs_read+0x48>
c0105f6b: 80 3b 00                     	cmp	byte ptr [ebx], 0
c0105f6e: 74 2b                        	je	0xc0105f9b <vfs_read+0x4f>
c0105f70: 83 ec 0c                     	sub	esp, 12
c0105f73: 50                           	push	eax
c0105f74: e8 ec 07 00 00               	call	0xc0106765 <vnode_op_dirent_type>
c0105f79: 83 c4 10                     	add	esp, 16
c0105f7c: 3c 02                        	cmp	al, 2
c0105f7e: 74 22                        	je	0xc0105fa2 <vfs_read+0x56>
c0105f80: 89 75 0c                     	mov	dword ptr [ebp + 12], esi
c0105f83: 8b 43 5c                     	mov	eax, dword ptr [ebx + 92]
c0105f86: 89 45 08                     	mov	dword ptr [ebp + 8], eax
c0105f89: 8d 65 f8                     	lea	esp, [ebp - 8]
c0105f8c: 5b                           	pop	ebx
c0105f8d: 5e                           	pop	esi
c0105f8e: 5d                           	pop	ebp
c0105f8f: e9 55 06 00 00               	jmp	0xc01065e9 <vnode_op_read>
c0105f94: b8 07 00 00 00               	mov	eax, 7
c0105f99: eb 0c                        	jmp	0xc0105fa7 <vfs_read+0x5b>
c0105f9b: b8 14 00 00 00               	mov	eax, 20
c0105fa0: eb 05                        	jmp	0xc0105fa7 <vfs_read+0x5b>
c0105fa2: b8 0f 00 00 00               	mov	eax, 15
c0105fa7: 8d 65 f8                     	lea	esp, [ebp - 8]
c0105faa: 5b                           	pop	ebx
c0105fab: 5e                           	pop	esi
c0105fac: 5d                           	pop	ebp
c0105fad: c3                           	ret

c0105fae <vfs_readdir>:
c0105fae: 55                           	push	ebp
c0105faf: 89 e5                        	mov	ebp, esp
c0105fb1: 56                           	push	esi
c0105fb2: 53                           	push	ebx
c0105fb3: 8b 75 0c                     	mov	esi, dword ptr [ebp + 12]
c0105fb6: 8b 5d 08                     	mov	ebx, dword ptr [ebp + 8]
c0105fb9: 85 f6                        	test	esi, esi
c0105fbb: 74 41                        	je	0xc0105ffe <vfs_readdir+0x50>
c0105fbd: 83 3e 00                     	cmp	dword ptr [esi], 0
c0105fc0: 74 3c                        	je	0xc0105ffe <vfs_readdir+0x50>
c0105fc2: 85 db                        	test	ebx, ebx
c0105fc4: 74 38                        	je	0xc0105ffe <vfs_readdir+0x50>
c0105fc6: 8b 43 5c                     	mov	eax, dword ptr [ebx + 92]
c0105fc9: 85 c0                        	test	eax, eax
c0105fcb: 74 31                        	je	0xc0105ffe <vfs_readdir+0x50>
c0105fcd: 80 3b 00                     	cmp	byte ptr [ebx], 0
c0105fd0: 74 33                        	je	0xc0106005 <vfs_readdir+0x57>
c0105fd2: 83 ec 0c                     	sub	esp, 12
c0105fd5: 50                           	push	eax
c0105fd6: e8 8a 07 00 00               	call	0xc0106765 <vnode_op_dirent_type>
c0105fdb: 83 c4 10                     	add	esp, 16
c0105fde: 89 c2                        	mov	edx, eax
c0105fe0: b8 0e 00 00 00               	mov	eax, 14
c0105fe5: 80 fa 02                     	cmp	dl, 2
c0105fe8: 75 20                        	jne	0xc010600a <vfs_readdir+0x5c>
c0105fea: 89 75 0c                     	mov	dword ptr [ebp + 12], esi
c0105fed: 8b 43 5c                     	mov	eax, dword ptr [ebx + 92]
c0105ff0: 89 45 08                     	mov	dword ptr [ebp + 8], eax
c0105ff3: 8d 65 f8                     	lea	esp, [ebp - 8]
c0105ff6: 5b                           	pop	ebx
c0105ff7: 5e                           	pop	esi
c0105ff8: 5d                           	pop	ebp
c0105ff9: e9 13 06 00 00               	jmp	0xc0106611 <vnode_op_readdir>
c0105ffe: b8 07 00 00 00               	mov	eax, 7
c0106003: eb 05                        	jmp	0xc010600a <vfs_readdir+0x5c>
c0106005: b8 14 00 00 00               	mov	eax, 20
c010600a: 8d 65 f8                     	lea	esp, [ebp - 8]
c010600d: 5b                           	pop	ebx
c010600e: 5e                           	pop	esi
c010600f: 5d                           	pop	ebp
c0106010: c3                           	ret

c0106011 <open_file_reference>:
c0106011: 55                           	push	ebp
c0106012: 89 e5                        	mov	ebp, esp
c0106014: 56                           	push	esi
c0106015: 53                           	push	ebx
c0106016: 8b 5d 08                     	mov	ebx, dword ptr [ebp + 8]
c0106019: 8d 73 14                     	lea	esi, [ebx + 20]
c010601c: 83 ec 0c                     	sub	esp, 12
c010601f: 56                           	push	esi
c0106020: e8 59 db ff ff               	call	0xc0103b7e <spinlock_acquire>
c0106025: ff 43 10                     	inc	dword ptr [ebx + 16]
c0106028: 83 c4 10                     	add	esp, 16
c010602b: 89 75 08                     	mov	dword ptr [ebp + 8], esi
c010602e: 8d 65 f8                     	lea	esp, [ebp - 8]
c0106031: 5b                           	pop	ebx
c0106032: 5e                           	pop	esi
c0106033: 5d                           	pop	ebp
c0106034: e9 4a db ff ff               	jmp	0xc0103b83 <spinlock_release>

c0106039 <open_file_dereference>:
c0106039: 55                           	push	ebp
c010603a: 89 e5                        	mov	ebp, esp
c010603c: 56                           	push	esi
c010603d: 53                           	push	ebx
c010603e: 8b 5d 08                     	mov	ebx, dword ptr [ebp + 8]
c0106041: 8d 73 14                     	lea	esi, [ebx + 20]
c0106044: 83 ec 0c                     	sub	esp, 12
c0106047: 56                           	push	esi
c0106048: e8 31 db ff ff               	call	0xc0103b7e <spinlock_acquire>
c010604d: 8b 43 10                     	mov	eax, dword ptr [ebx + 16]
c0106050: 83 c4 10                     	add	esp, 16
c0106053: 48                           	dec	eax
c0106054: 89 43 10                     	mov	dword ptr [ebx + 16], eax
c0106057: 85 c0                        	test	eax, eax
c0106059: 75 1a                        	jne	0xc0106075 <open_file_dereference+0x3c>
c010605b: 83 ec 0c                     	sub	esp, 12
c010605e: 56                           	push	esi
c010605f: e8 1f db ff ff               	call	0xc0103b83 <spinlock_release>
c0106064: 89 5d 08                     	mov	dword ptr [ebp + 8], ebx
c0106067: 83 c4 10                     	add	esp, 16
c010606a: 8d 65 f8                     	lea	esp, [ebp - 8]
c010606d: 5b                           	pop	ebx
c010606e: 5e                           	pop	esi
c010606f: 5d                           	pop	ebp
c0106070: e9 af c4 ff ff               	jmp	0xc0102524 <free>
c0106075: 89 75 08                     	mov	dword ptr [ebp + 8], esi
c0106078: 8d 65 f8                     	lea	esp, [ebp - 8]
c010607b: 5b                           	pop	ebx
c010607c: 5e                           	pop	esi
c010607d: 5d                           	pop	ebp
c010607e: e9 00 db ff ff               	jmp	0xc0103b83 <spinlock_release>

c0106083 <vfs_remove_device>:
c0106083: 55                           	push	ebp
c0106084: 89 e5                        	mov	ebp, esp
c0106086: 57                           	push	edi
c0106087: 56                           	push	esi
c0106088: 53                           	push	ebx
c0106089: bb 07 00 00 00               	mov	ebx, 7
c010608e: 83 ec 0c                     	sub	esp, 12
c0106091: 8b 7d 08                     	mov	edi, dword ptr [ebp + 8]
c0106094: 85 ff                        	test	edi, edi
c0106096: 0f 84 b6 00 00 00            	je	0xc0106152 <vfs_remove_device+0xcf>
c010609c: 89 f8                        	mov	eax, edi
c010609e: e8 9b f9 ff ff               	call	0xc0105a3e <vfs_check_valid_component_name>
c01060a3: 85 c0                        	test	eax, eax
c01060a5: 0f 85 a7 00 00 00            	jne	0xc0106152 <vfs_remove_device+0xcf>
c01060ab: 83 ec 0c                     	sub	esp, 12
c01060ae: 68 20 0e 11 c0               	push	3222343200
c01060b3: e8 c6 da ff ff               	call	0xc0103b7e <spinlock_acquire>
c01060b8: 59                           	pop	ecx
c01060b9: ff 35 68 0e 11 c0            	push	dword ptr [-1072624024]
c01060bf: e8 11 ed ff ff               	call	0xc0104dd5 <adt_list_reset>
c01060c4: 83 c4 10                     	add	esp, 16
c01060c7: 83 ec 0c                     	sub	esp, 12
c01060ca: ff 35 68 0e 11 c0            	push	dword ptr [-1072624024]
c01060d0: e8 11 ed ff ff               	call	0xc0104de6 <adt_list_has_next>
c01060d5: 83 c4 10                     	add	esp, 16
c01060d8: 84 c0                        	test	al, al
c01060da: 74 61                        	je	0xc010613d <vfs_remove_device+0xba>
c01060dc: 83 ec 0c                     	sub	esp, 12
c01060df: ff 35 68 0e 11 c0            	push	dword ptr [-1072624024]
c01060e5: e8 21 ed ff ff               	call	0xc0104e0b <adt_list_get_next>
c01060ea: 89 c6                        	mov	esi, eax
c01060ec: 58                           	pop	eax
c01060ed: 5a                           	pop	edx
c01060ee: 57                           	push	edi
c01060ef: ff 76 04                     	push	dword ptr [esi + 4]
c01060f2: e8 d7 b1 ff ff               	call	0xc01012ce <strcmp>
c01060f7: 83 c4 10                     	add	esp, 16
c01060fa: 89 c3                        	mov	ebx, eax
c01060fc: 85 c0                        	test	eax, eax
c01060fe: 75 c7                        	jne	0xc01060c7 <vfs_remove_device+0x44>
c0106100: 8b 06                        	mov	eax, dword ptr [esi]
c0106102: 83 ec 0c                     	sub	esp, 12
c0106105: ff 70 5c                     	push	dword ptr [eax + 92]
c0106108: e8 ce 05 00 00               	call	0xc01066db <vnode_dereference>
c010610d: 58                           	pop	eax
c010610e: ff 36                        	push	dword ptr [esi]
c0106110: e8 24 ff ff ff               	call	0xc0106039 <open_file_dereference>
c0106115: 5a                           	pop	edx
c0106116: 59                           	pop	ecx
c0106117: 56                           	push	esi
c0106118: ff 35 68 0e 11 c0            	push	dword ptr [-1072624024]
c010611e: e8 45 ed ff ff               	call	0xc0104e68 <adt_list_remove_element>
c0106123: 5f                           	pop	edi
c0106124: ff 76 04                     	push	dword ptr [esi + 4]
c0106127: e8 f8 c3 ff ff               	call	0xc0102524 <free>
c010612c: c7 04 24 20 0e 11 c0         	mov	dword ptr [esp], 3222343200
c0106133: e8 4b da ff ff               	call	0xc0103b83 <spinlock_release>
c0106138: 83 c4 10                     	add	esp, 16
c010613b: eb 15                        	jmp	0xc0106152 <vfs_remove_device+0xcf>
c010613d: 83 ec 0c                     	sub	esp, 12
c0106140: bb 03 00 00 00               	mov	ebx, 3
c0106145: 68 20 0e 11 c0               	push	3222343200
c010614a: e8 34 da ff ff               	call	0xc0103b83 <spinlock_release>
c010614f: 83 c4 10                     	add	esp, 16
c0106152: 8d 65 f4                     	lea	esp, [ebp - 12]
c0106155: 89 d8                        	mov	eax, ebx
c0106157: 5b                           	pop	ebx
c0106158: 5e                           	pop	esi
c0106159: 5f                           	pop	edi
c010615a: 5d                           	pop	ebp
c010615b: c3                           	ret

c010615c <vfs_close>:
c010615c: 55                           	push	ebp
c010615d: 89 e5                        	mov	ebp, esp
c010615f: 53                           	push	ebx
c0106160: 50                           	push	eax
c0106161: 8b 5d 08                     	mov	ebx, dword ptr [ebp + 8]
c0106164: b8 07 00 00 00               	mov	eax, 7
c0106169: 85 db                        	test	ebx, ebx
c010616b: 74 1d                        	je	0xc010618a <vfs_close+0x2e>
c010616d: 8b 53 5c                     	mov	edx, dword ptr [ebx + 92]
c0106170: 85 d2                        	test	edx, edx
c0106172: 74 16                        	je	0xc010618a <vfs_close+0x2e>
c0106174: 83 ec 0c                     	sub	esp, 12
c0106177: 52                           	push	edx
c0106178: e8 5e 05 00 00               	call	0xc01066db <vnode_dereference>
c010617d: 89 1c 24                     	mov	dword ptr [esp], ebx
c0106180: e8 b4 fe ff ff               	call	0xc0106039 <open_file_dereference>
c0106185: 83 c4 10                     	add	esp, 16
c0106188: 31 c0                        	xor	eax, eax
c010618a: 8b 5d fc                     	mov	ebx, dword ptr [ebp - 4]
c010618d: c9                           	leave
c010618e: c3                           	ret

c010618f <open_file_create>:
c010618f: 55                           	push	ebp
c0106190: 89 e5                        	mov	ebp, esp
c0106192: 57                           	push	edi
c0106193: 56                           	push	esi
c0106194: 53                           	push	ebx
c0106195: 83 ec 18                     	sub	esp, 24
c0106198: 8b 7d 14                     	mov	edi, dword ptr [ebp + 20]
c010619b: 8b 75 18                     	mov	esi, dword ptr [ebp + 24]
c010619e: 6a 60                        	push	96
c01061a0: e8 60 c2 ff ff               	call	0xc0102405 <malloc>
c01061a5: c7 40 10 01 00 00 00         	mov	dword ptr [eax + 16], 1
c01061ac: 89 c3                        	mov	ebx, eax
c01061ae: 8b 45 08                     	mov	eax, dword ptr [ebp + 8]
c01061b1: 89 43 5c                     	mov	dword ptr [ebx + 92], eax
c01061b4: 89 f8                        	mov	eax, edi
c01061b6: 88 03                        	mov	byte ptr [ebx], al
c01061b8: 89 f0                        	mov	eax, esi
c01061ba: 88 43 01                     	mov	byte ptr [ebx + 1], al
c01061bd: 8b 45 0c                     	mov	eax, dword ptr [ebp + 12]
c01061c0: 89 43 04                     	mov	dword ptr [ebx + 4], eax
c01061c3: 8b 45 10                     	mov	eax, dword ptr [ebp + 16]
c01061c6: 89 43 0c                     	mov	dword ptr [ebx + 12], eax
c01061c9: 31 c0                        	xor	eax, eax
c01061cb: 89 43 08                     	mov	dword ptr [ebx + 8], eax
c01061ce: 8d 43 14                     	lea	eax, [ebx + 20]
c01061d1: 5a                           	pop	edx
c01061d2: 59                           	pop	ecx
c01061d3: 68 96 ae 10 c0               	push	3222318742
c01061d8: 50                           	push	eax
c01061d9: e8 71 d9 ff ff               	call	0xc0103b4f <spinlock_init>
c01061de: 8d 65 f4                     	lea	esp, [ebp - 12]
c01061e1: 89 d8                        	mov	eax, ebx
c01061e3: 5b                           	pop	ebx
c01061e4: 5e                           	pop	esi
c01061e5: 5f                           	pop	edi
c01061e6: 5d                           	pop	ebp
c01061e7: c3                           	ret

c01061e8 <vfs_add_device>:
c01061e8: 55                           	push	ebp
c01061e9: 89 e5                        	mov	ebp, esp
c01061eb: 57                           	push	edi
c01061ec: 56                           	push	esi
c01061ed: 53                           	push	ebx
c01061ee: 83 ec 0c                     	sub	esp, 12
c01061f1: 8b 75 0c                     	mov	esi, dword ptr [ebp + 12]
c01061f4: 85 f6                        	test	esi, esi
c01061f6: 0f 84 c0 00 00 00            	je	0xc01062bc <vfs_add_device+0xd4>
c01061fc: 83 7d 08 00                  	cmp	dword ptr [ebp + 8], 0
c0106200: 0f 84 b6 00 00 00            	je	0xc01062bc <vfs_add_device+0xd4>
c0106206: 83 ec 0c                     	sub	esp, 12
c0106209: bb 0d 00 00 00               	mov	ebx, 13
c010620e: 56                           	push	esi
c010620f: e8 0d b1 ff ff               	call	0xc0101321 <strlen>
c0106214: 83 c4 10                     	add	esp, 16
c0106217: 3d ff 00 00 00               	cmp	eax, 255
c010621c: 0f 87 9f 00 00 00            	ja	0xc01062c1 <vfs_add_device+0xd9>
c0106222: 89 f0                        	mov	eax, esi
c0106224: e8 15 f8 ff ff               	call	0xc0105a3e <vfs_check_valid_component_name>
c0106229: 89 c3                        	mov	ebx, eax
c010622b: 85 c0                        	test	eax, eax
c010622d: 0f 85 8e 00 00 00            	jne	0xc01062c1 <vfs_add_device+0xd9>
c0106233: 83 ec 0c                     	sub	esp, 12
c0106236: 68 20 0e 11 c0               	push	3222343200
c010623b: e8 3e d9 ff ff               	call	0xc0103b7e <spinlock_acquire>
c0106240: 89 f0                        	mov	eax, esi
c0106242: e8 ff f6 ff ff               	call	0xc0105946 <vfs_check_device_name_not_used>
c0106247: 83 c4 10                     	add	esp, 16
c010624a: 89 c3                        	mov	ebx, eax
c010624c: 85 c0                        	test	eax, eax
c010624e: 74 17                        	je	0xc0106267 <vfs_add_device+0x7f>
c0106250: 83 ec 0c                     	sub	esp, 12
c0106253: bb 08 00 00 00               	mov	ebx, 8
c0106258: 68 20 0e 11 c0               	push	3222343200
c010625d: e8 21 d9 ff ff               	call	0xc0103b83 <spinlock_release>
c0106262: 83 c4 10                     	add	esp, 16
c0106265: eb 5a                        	jmp	0xc01062c1 <vfs_add_device+0xd9>
c0106267: 83 ec 0c                     	sub	esp, 12
c010626a: 6a 08                        	push	8
c010626c: e8 94 c1 ff ff               	call	0xc0102405 <malloc>
c0106271: 89 34 24                     	mov	dword ptr [esp], esi
c0106274: 89 c7                        	mov	edi, eax
c0106276: e8 e3 b0 ff ff               	call	0xc010135e <strdup>
c010627b: 89 47 04                     	mov	dword ptr [edi + 4], eax
c010627e: 58                           	pop	eax
c010627f: ff 75 08                     	push	dword ptr [ebp + 8]
c0106282: e8 2b f2 ff ff               	call	0xc01054b2 <dev_create_vnode>
c0106287: c7 04 24 01 00 00 00         	mov	dword ptr [esp], 1
c010628e: 6a 01                        	push	1
c0106290: 6a 00                        	push	0
c0106292: 6a 00                        	push	0
c0106294: 50                           	push	eax
c0106295: e8 f5 fe ff ff               	call	0xc010618f <open_file_create>
c010629a: 83 c4 18                     	add	esp, 24
c010629d: 89 07                        	mov	dword ptr [edi], eax
c010629f: 57                           	push	edi
c01062a0: ff 35 68 0e 11 c0            	push	dword ptr [-1072624024]
c01062a6: e8 ce e9 ff ff               	call	0xc0104c79 <adt_list_add_back>
c01062ab: c7 04 24 20 0e 11 c0         	mov	dword ptr [esp], 3222343200
c01062b2: e8 cc d8 ff ff               	call	0xc0103b83 <spinlock_release>
c01062b7: 83 c4 10                     	add	esp, 16
c01062ba: eb 05                        	jmp	0xc01062c1 <vfs_add_device+0xd9>
c01062bc: bb 07 00 00 00               	mov	ebx, 7
c01062c1: 8d 65 f4                     	lea	esp, [ebp - 12]
c01062c4: 89 d8                        	mov	eax, ebx
c01062c6: 5b                           	pop	ebx
c01062c7: 5e                           	pop	esi
c01062c8: 5f                           	pop	edi
c01062c9: 5d                           	pop	ebp
c01062ca: c3                           	ret

c01062cb <vfs_open>:
c01062cb: 55                           	push	ebp
c01062cc: 89 e5                        	mov	ebp, esp
c01062ce: 57                           	push	edi
c01062cf: 56                           	push	esi
c01062d0: 53                           	push	ebx
c01062d1: 81 ec 2c 01 00 00            	sub	esp, 300
c01062d7: 8b 5d 08                     	mov	ebx, dword ptr [ebp + 8]
c01062da: 85 db                        	test	ebx, ebx
c01062dc: 74 06                        	je	0xc01062e4 <vfs_open+0x19>
c01062de: 83 7d 14 00                  	cmp	dword ptr [ebp + 20], 0
c01062e2: 75 0a                        	jne	0xc01062ee <vfs_open+0x23>
c01062e4: be 07 00 00 00               	mov	esi, 7
c01062e9: e9 20 01 00 00               	jmp	0xc010640e <vfs_open+0x143>
c01062ee: 83 ec 0c                     	sub	esp, 12
c01062f1: 53                           	push	ebx
c01062f2: e8 2a b0 ff ff               	call	0xc0101321 <strlen>
c01062f7: 83 c4 10                     	add	esp, 16
c01062fa: 85 c0                        	test	eax, eax
c01062fc: 74 e6                        	je	0xc01062e4 <vfs_open+0x19>
c01062fe: 8d 85 e7 fe ff ff            	lea	eax, [ebp - 281]
c0106304: 81 65 0c 7f ff ff ff         	and	dword ptr [ebp + 12], 4294967167
c010630b: 51                           	push	ecx
c010630c: 68 00 01 00 00               	push	256
c0106311: 50                           	push	eax
c0106312: 53                           	push	ebx
c0106313: e8 4e fa ff ff               	call	0xc0105d66 <vfs_get_final_component>
c0106318: 83 c4 10                     	add	esp, 16
c010631b: 89 c6                        	mov	esi, eax
c010631d: 85 c0                        	test	eax, eax
c010631f: 0f 85 e9 00 00 00            	jne	0xc010640e <vfs_open+0x143>
c0106325: 31 c9                        	xor	ecx, ecx
c0106327: 8d 95 e0 fe ff ff            	lea	edx, [ebp - 288]
c010632d: 89 d8                        	mov	eax, ebx
c010632f: e8 da f9 ff ff               	call	0xc0105d0e <vfs_get_vnode_from_path>
c0106334: 89 c6                        	mov	esi, eax
c0106336: 83 f8 09                     	cmp	eax, 9
c0106339: 75 1e                        	jne	0xc0106359 <vfs_open+0x8e>
c010633b: f6 45 0c 04                  	test	byte ptr [ebp + 12], 4
c010633f: 0f 84 c9 00 00 00            	je	0xc010640e <vfs_open+0x143>
c0106345: b9 01 00 00 00               	mov	ecx, 1
c010634a: 8d 95 e0 fe ff ff            	lea	edx, [ebp - 288]
c0106350: 89 d8                        	mov	eax, ebx
c0106352: e8 b7 f9 ff ff               	call	0xc0105d0e <vfs_get_vnode_from_path>
c0106357: 89 c6                        	mov	esi, eax
c0106359: 85 f6                        	test	esi, esi
c010635b: 0f 85 ad 00 00 00            	jne	0xc010640e <vfs_open+0x143>
c0106361: 8b 5d 0c                     	mov	ebx, dword ptr [ebp + 12]
c0106364: 8b bd e0 fe ff ff            	mov	edi, dword ptr [ebp - 288]
c010636a: 8d 85 e7 fe ff ff            	lea	eax, [ebp - 281]
c0106370: 52                           	push	edx
c0106371: 83 e3 03                     	and	ebx, 3
c0106374: 53                           	push	ebx
c0106375: 50                           	push	eax
c0106376: 57                           	push	edi
c0106377: e8 3d 02 00 00               	call	0xc01065b9 <vnode_op_check_open>
c010637c: 83 c4 10                     	add	esp, 16
c010637f: 89 c6                        	mov	esi, eax
c0106381: 85 c0                        	test	eax, eax
c0106383: 74 0e                        	je	0xc0106393 <vfs_open+0xc8>
c0106385: 83 ec 0c                     	sub	esp, 12
c0106388: 57                           	push	edi
c0106389: e8 4d 03 00 00               	call	0xc01066db <vnode_dereference>
c010638e: 83 c4 10                     	add	esp, 16
c0106391: eb 7b                        	jmp	0xc010640e <vfs_open+0x143>
c0106393: 83 fb 01                     	cmp	ebx, 1
c0106396: 0f 95 85 d7 fe ff ff         	setne	byte ptr [ebp - 297]
c010639d: 85 db                        	test	ebx, ebx
c010639f: 0f 95 c3                     	setne	bl
c01063a2: 83 ec 0c                     	sub	esp, 12
c01063a5: 57                           	push	edi
c01063a6: e8 ba 03 00 00               	call	0xc0106765 <vnode_op_dirent_type>
c01063ab: 83 c4 10                     	add	esp, 16
c01063ae: 3c 02                        	cmp	al, 2
c01063b0: 75 17                        	jne	0xc01063c9 <vfs_open+0xfe>
c01063b2: 84 db                        	test	bl, bl
c01063b4: 74 13                        	je	0xc01063c9 <vfs_open+0xfe>
c01063b6: 83 ec 0c                     	sub	esp, 12
c01063b9: be 0f 00 00 00               	mov	esi, 15
c01063be: 57                           	push	edi
c01063bf: e8 17 03 00 00               	call	0xc01066db <vnode_dereference>
c01063c4: 83 c4 10                     	add	esp, 16
c01063c7: eb 45                        	jmp	0xc010640e <vfs_open+0x143>
c01063c9: f6 45 0c 20                  	test	byte ptr [ebp + 12], 32
c01063cd: 74 08                        	je	0xc01063d7 <vfs_open+0x10c>
c01063cf: 84 db                        	test	bl, bl
c01063d1: 0f 84 0d ff ff ff            	je	0xc01062e4 <vfs_open+0x19>
c01063d7: 50                           	push	eax
c01063d8: 8d 85 e7 fe ff ff            	lea	eax, [ebp - 281]
c01063de: 0f b6 db                     	movzx	ebx, bl
c01063e1: ff 77 3c                     	push	dword ptr [edi + 60]
c01063e4: 50                           	push	eax
c01063e5: 68 b1 ae 10 c0               	push	3222318769
c01063ea: e8 73 ed ff ff               	call	0xc0105162 <kprintfnv>
c01063ef: 89 1c 24                     	mov	dword ptr [esp], ebx
c01063f2: 0f b6 85 d7 fe ff ff         	movzx	eax, byte ptr [ebp - 297]
c01063f9: 50                           	push	eax
c01063fa: ff 75 0c                     	push	dword ptr [ebp + 12]
c01063fd: ff 75 10                     	push	dword ptr [ebp + 16]
c0106400: 57                           	push	edi
c0106401: e8 89 fd ff ff               	call	0xc010618f <open_file_create>
c0106406: 8b 4d 14                     	mov	ecx, dword ptr [ebp + 20]
c0106409: 83 c4 20                     	add	esp, 32
c010640c: 89 01                        	mov	dword ptr [ecx], eax
c010640e: 8d 65 f4                     	lea	esp, [ebp - 12]
c0106411: 89 f0                        	mov	eax, esi
c0106413: 5b                           	pop	ebx
c0106414: 5e                           	pop	esi
c0106415: 5f                           	pop	edi
c0106416: 5d                           	pop	ebp
c0106417: c3                           	ret

c0106418 <vfs_add_virtual_mount_point>:
c0106418: 55                           	push	ebp
c0106419: 89 e5                        	mov	ebp, esp
c010641b: 57                           	push	edi
c010641c: 56                           	push	esi
c010641d: 53                           	push	ebx
c010641e: bb 07 00 00 00               	mov	ebx, 7
c0106423: 83 ec 2c                     	sub	esp, 44
c0106426: 8b 75 08                     	mov	esi, dword ptr [ebp + 8]
c0106429: 85 f6                        	test	esi, esi
c010642b: 0f 84 d2 00 00 00            	je	0xc0106503 <vfs_add_virtual_mount_point+0xeb>
c0106431: 83 ec 0c                     	sub	esp, 12
c0106434: bb 0d 00 00 00               	mov	ebx, 13
c0106439: 56                           	push	esi
c010643a: e8 e2 ae ff ff               	call	0xc0101321 <strlen>
c010643f: 83 c4 10                     	add	esp, 16
c0106442: 3d ff 00 00 00               	cmp	eax, 255
c0106447: 0f 87 b6 00 00 00            	ja	0xc0106503 <vfs_add_virtual_mount_point+0xeb>
c010644d: 89 f0                        	mov	eax, esi
c010644f: e8 ea f5 ff ff               	call	0xc0105a3e <vfs_check_valid_component_name>
c0106454: 89 c3                        	mov	ebx, eax
c0106456: 85 c0                        	test	eax, eax
c0106458: 0f 85 a5 00 00 00            	jne	0xc0106503 <vfs_add_virtual_mount_point+0xeb>
c010645e: 8d 45 e4                     	lea	eax, [ebp - 28]
c0106461: 50                           	push	eax
c0106462: 6a 00                        	push	0
c0106464: 6a 00                        	push	0
c0106466: ff 75 0c                     	push	dword ptr [ebp + 12]
c0106469: e8 5d fe ff ff               	call	0xc01062cb <vfs_open>
c010646e: 83 c4 10                     	add	esp, 16
c0106471: 89 c3                        	mov	ebx, eax
c0106473: 85 c0                        	test	eax, eax
c0106475: 0f 85 88 00 00 00            	jne	0xc0106503 <vfs_add_virtual_mount_point+0xeb>
c010647b: 8b 7d e4                     	mov	edi, dword ptr [ebp - 28]
c010647e: 83 ec 0c                     	sub	esp, 12
c0106481: bb 0e 00 00 00               	mov	ebx, 14
c0106486: ff 77 5c                     	push	dword ptr [edi + 92]
c0106489: e8 d7 02 00 00               	call	0xc0106765 <vnode_op_dirent_type>
c010648e: 83 c4 10                     	add	esp, 16
c0106491: 3c 02                        	cmp	al, 2
c0106493: 75 6e                        	jne	0xc0106503 <vfs_add_virtual_mount_point+0xeb>
c0106495: 83 ec 0c                     	sub	esp, 12
c0106498: 68 20 0e 11 c0               	push	3222343200
c010649d: e8 dc d6 ff ff               	call	0xc0103b7e <spinlock_acquire>
c01064a2: 89 f0                        	mov	eax, esi
c01064a4: e8 9d f4 ff ff               	call	0xc0105946 <vfs_check_device_name_not_used>
c01064a9: 83 c4 10                     	add	esp, 16
c01064ac: 89 c3                        	mov	ebx, eax
c01064ae: 85 c0                        	test	eax, eax
c01064b0: 74 17                        	je	0xc01064c9 <vfs_add_virtual_mount_point+0xb1>
c01064b2: 83 ec 0c                     	sub	esp, 12
c01064b5: bb 08 00 00 00               	mov	ebx, 8
c01064ba: 68 20 0e 11 c0               	push	3222343200
c01064bf: e8 bf d6 ff ff               	call	0xc0103b83 <spinlock_release>
c01064c4: 83 c4 10                     	add	esp, 16
c01064c7: eb 3a                        	jmp	0xc0106503 <vfs_add_virtual_mount_point+0xeb>
c01064c9: 83 ec 0c                     	sub	esp, 12
c01064cc: 6a 08                        	push	8
c01064ce: e8 32 bf ff ff               	call	0xc0102405 <malloc>
c01064d3: 89 45 d4                     	mov	dword ptr [ebp - 44], eax
c01064d6: 89 34 24                     	mov	dword ptr [esp], esi
c01064d9: e8 80 ae ff ff               	call	0xc010135e <strdup>
c01064de: 8b 55 d4                     	mov	edx, dword ptr [ebp - 44]
c01064e1: 89 42 04                     	mov	dword ptr [edx + 4], eax
c01064e4: 89 3a                        	mov	dword ptr [edx], edi
c01064e6: 58                           	pop	eax
c01064e7: 59                           	pop	ecx
c01064e8: 52                           	push	edx
c01064e9: ff 35 68 0e 11 c0            	push	dword ptr [-1072624024]
c01064ef: e8 85 e7 ff ff               	call	0xc0104c79 <adt_list_add_back>
c01064f4: c7 04 24 20 0e 11 c0         	mov	dword ptr [esp], 3222343200
c01064fb: e8 83 d6 ff ff               	call	0xc0103b83 <spinlock_release>
c0106500: 83 c4 10                     	add	esp, 16
c0106503: 8d 65 f4                     	lea	esp, [ebp - 12]
c0106506: 89 d8                        	mov	eax, ebx
c0106508: 5b                           	pop	ebx
c0106509: 5e                           	pop	esi
c010650a: 5f                           	pop	edi
c010650b: 5d                           	pop	ebp
c010650c: c3                           	ret

c010650d <vnode_init>:
c010650d: 55                           	push	ebp
c010650e: 89 e5                        	mov	ebp, esp
c0106510: 57                           	push	edi
c0106511: 56                           	push	esi
c0106512: 8d 75 0c                     	lea	esi, [ebp + 12]
c0106515: 53                           	push	ebx
c0106516: 83 ec 18                     	sub	esp, 24
c0106519: 68 88 00 00 00               	push	136
c010651e: e8 e2 be ff ff               	call	0xc0102405 <malloc>
c0106523: b9 0d 00 00 00               	mov	ecx, 13
c0106528: 89 c3                        	mov	ebx, eax
c010652a: 8b 45 08                     	mov	eax, dword ptr [ebp + 8]
c010652d: 8d 7b 04                     	lea	edi, [ebx + 4]
c0106530: 89 03                        	mov	dword ptr [ebx], eax
c0106532: 31 c0                        	xor	eax, eax
c0106534: f3 a5                        	rep		movsd	dword ptr es:[edi], dword ptr [esi]
c0106536: 89 43 38                     	mov	dword ptr [ebx + 56], eax
c0106539: 8d 43 40                     	lea	eax, [ebx + 64]
c010653c: c7 43 3c 01 00 00 00         	mov	dword ptr [ebx + 60], 1
c0106543: 5a                           	pop	edx
c0106544: 59                           	pop	ecx
c0106545: 68 96 ae 10 c0               	push	3222318742
c010654a: 50                           	push	eax
c010654b: e8 ff d5 ff ff               	call	0xc0103b4f <spinlock_init>
c0106550: 8d 65 f4                     	lea	esp, [ebp - 12]
c0106553: 89 d8                        	mov	eax, ebx
c0106555: 5b                           	pop	ebx
c0106556: 5e                           	pop	esi
c0106557: 5f                           	pop	edi
c0106558: 5d                           	pop	ebp
c0106559: c3                           	ret

c010655a <vnode_check>:
c010655a: 55                           	push	ebp
c010655b: 89 e5                        	mov	ebp, esp
c010655d: 53                           	push	ebx
c010655e: 83 ec 10                     	sub	esp, 16
c0106561: 8b 45 08                     	mov	eax, dword ptr [ebp + 8]
c0106564: 8d 58 40                     	lea	ebx, [eax + 64]
c0106567: 53                           	push	ebx
c0106568: e8 d3 d5 ff ff               	call	0xc0103b40 <spinlock_is_held>
c010656d: 83 c4 10                     	add	esp, 16
c0106570: 84 c0                        	test	al, al
c0106572: 75 18                        	jne	0xc010658c <vnode_check+0x32>
c0106574: 83 ec 0c                     	sub	esp, 12
c0106577: 53                           	push	ebx
c0106578: e8 01 d6 ff ff               	call	0xc0103b7e <spinlock_acquire>
c010657d: 89 5d 08                     	mov	dword ptr [ebp + 8], ebx
c0106580: 83 c4 10                     	add	esp, 16
c0106583: 8b 5d fc                     	mov	ebx, dword ptr [ebp - 4]
c0106586: c9                           	leave
c0106587: e9 f7 d5 ff ff               	jmp	0xc0103b83 <spinlock_release>
c010658c: 8b 5d fc                     	mov	ebx, dword ptr [ebp - 4]
c010658f: c9                           	leave
c0106590: c3                           	ret

c0106591 <vnode_reference>:
c0106591: 55                           	push	ebp
c0106592: 89 e5                        	mov	ebp, esp
c0106594: 56                           	push	esi
c0106595: 53                           	push	ebx
c0106596: 8b 5d 08                     	mov	ebx, dword ptr [ebp + 8]
c0106599: 8d 73 40                     	lea	esi, [ebx + 64]
c010659c: 83 ec 0c                     	sub	esp, 12
c010659f: 56                           	push	esi
c01065a0: e8 d9 d5 ff ff               	call	0xc0103b7e <spinlock_acquire>
c01065a5: ff 43 3c                     	inc	dword ptr [ebx + 60]
c01065a8: 83 c4 10                     	add	esp, 16
c01065ab: 89 75 08                     	mov	dword ptr [ebp + 8], esi
c01065ae: 8d 65 f8                     	lea	esp, [ebp - 8]
c01065b1: 5b                           	pop	ebx
c01065b2: 5e                           	pop	esi
c01065b3: 5d                           	pop	ebp
c01065b4: e9 ca d5 ff ff               	jmp	0xc0103b83 <spinlock_release>

c01065b9 <vnode_op_check_open>:
c01065b9: 55                           	push	ebp
c01065ba: 89 e5                        	mov	ebp, esp
c01065bc: 57                           	push	edi
c01065bd: 56                           	push	esi
c01065be: 53                           	push	ebx
c01065bf: 83 ec 18                     	sub	esp, 24
c01065c2: 8b 5d 08                     	mov	ebx, dword ptr [ebp + 8]
c01065c5: 8b 75 0c                     	mov	esi, dword ptr [ebp + 12]
c01065c8: 8b 7d 10                     	mov	edi, dword ptr [ebp + 16]
c01065cb: 53                           	push	ebx
c01065cc: e8 89 ff ff ff               	call	0xc010655a <vnode_check>
c01065d1: 89 7d 10                     	mov	dword ptr [ebp + 16], edi
c01065d4: 83 c4 10                     	add	esp, 16
c01065d7: 89 75 0c                     	mov	dword ptr [ebp + 12], esi
c01065da: 89 5d 08                     	mov	dword ptr [ebp + 8], ebx
c01065dd: 8b 43 04                     	mov	eax, dword ptr [ebx + 4]
c01065e0: 8d 65 f4                     	lea	esp, [ebp - 12]
c01065e3: 5b                           	pop	ebx
c01065e4: 5e                           	pop	esi
c01065e5: 5f                           	pop	edi
c01065e6: 5d                           	pop	ebp
c01065e7: ff e0                        	jmp	eax

c01065e9 <vnode_op_read>:
c01065e9: 55                           	push	ebp
c01065ea: 89 e5                        	mov	ebp, esp
c01065ec: 56                           	push	esi
c01065ed: 53                           	push	ebx
c01065ee: 8b 5d 08                     	mov	ebx, dword ptr [ebp + 8]
c01065f1: 8b 75 0c                     	mov	esi, dword ptr [ebp + 12]
c01065f4: 83 ec 0c                     	sub	esp, 12
c01065f7: 53                           	push	ebx
c01065f8: e8 5d ff ff ff               	call	0xc010655a <vnode_check>
c01065fd: 89 75 0c                     	mov	dword ptr [ebp + 12], esi
c0106600: 83 c4 10                     	add	esp, 16
c0106603: 89 5d 08                     	mov	dword ptr [ebp + 8], ebx
c0106606: 8b 43 08                     	mov	eax, dword ptr [ebx + 8]
c0106609: 8d 65 f8                     	lea	esp, [ebp - 8]
c010660c: 5b                           	pop	ebx
c010660d: 5e                           	pop	esi
c010660e: 5d                           	pop	ebp
c010660f: ff e0                        	jmp	eax

c0106611 <vnode_op_readdir>:
c0106611: 55                           	push	ebp
c0106612: 89 e5                        	mov	ebp, esp
c0106614: 56                           	push	esi
c0106615: 53                           	push	ebx
c0106616: 8b 5d 08                     	mov	ebx, dword ptr [ebp + 8]
c0106619: 8b 75 0c                     	mov	esi, dword ptr [ebp + 12]
c010661c: 83 ec 0c                     	sub	esp, 12
c010661f: 53                           	push	ebx
c0106620: e8 35 ff ff ff               	call	0xc010655a <vnode_check>
c0106625: 89 75 0c                     	mov	dword ptr [ebp + 12], esi
c0106628: 83 c4 10                     	add	esp, 16
c010662b: 89 5d 08                     	mov	dword ptr [ebp + 8], ebx
c010662e: 8b 43 0c                     	mov	eax, dword ptr [ebx + 12]
c0106631: 8d 65 f8                     	lea	esp, [ebp - 8]
c0106634: 5b                           	pop	ebx
c0106635: 5e                           	pop	esi
c0106636: 5d                           	pop	ebp
c0106637: ff e0                        	jmp	eax

c0106639 <vnode_op_write>:
c0106639: 55                           	push	ebp
c010663a: 89 e5                        	mov	ebp, esp
c010663c: 56                           	push	esi
c010663d: 53                           	push	ebx
c010663e: 8b 5d 08                     	mov	ebx, dword ptr [ebp + 8]
c0106641: 8b 75 0c                     	mov	esi, dword ptr [ebp + 12]
c0106644: 83 ec 0c                     	sub	esp, 12
c0106647: 53                           	push	ebx
c0106648: e8 0d ff ff ff               	call	0xc010655a <vnode_check>
c010664d: 89 75 0c                     	mov	dword ptr [ebp + 12], esi
c0106650: 83 c4 10                     	add	esp, 16
c0106653: 89 5d 08                     	mov	dword ptr [ebp + 8], ebx
c0106656: 8b 43 10                     	mov	eax, dword ptr [ebx + 16]
c0106659: 8d 65 f8                     	lea	esp, [ebp - 8]
c010665c: 5b                           	pop	ebx
c010665d: 5e                           	pop	esi
c010665e: 5d                           	pop	ebp
c010665f: ff e0                        	jmp	eax

c0106661 <vnode_op_ioctl>:
c0106661: 55                           	push	ebp
c0106662: 89 e5                        	mov	ebp, esp
c0106664: 57                           	push	edi
c0106665: 56                           	push	esi
c0106666: 53                           	push	ebx
c0106667: 83 ec 18                     	sub	esp, 24
c010666a: 8b 5d 08                     	mov	ebx, dword ptr [ebp + 8]
c010666d: 8b 75 0c                     	mov	esi, dword ptr [ebp + 12]
c0106670: 8b 7d 10                     	mov	edi, dword ptr [ebp + 16]
c0106673: 53                           	push	ebx
c0106674: e8 e1 fe ff ff               	call	0xc010655a <vnode_check>
c0106679: 89 7d 10                     	mov	dword ptr [ebp + 16], edi
c010667c: 83 c4 10                     	add	esp, 16
c010667f: 89 75 0c                     	mov	dword ptr [ebp + 12], esi
c0106682: 89 5d 08                     	mov	dword ptr [ebp + 8], ebx
c0106685: 8b 43 14                     	mov	eax, dword ptr [ebx + 20]
c0106688: 8d 65 f4                     	lea	esp, [ebp - 12]
c010668b: 5b                           	pop	ebx
c010668c: 5e                           	pop	esi
c010668d: 5f                           	pop	edi
c010668e: 5d                           	pop	ebp
c010668f: ff e0                        	jmp	eax

c0106691 <vnode_op_is_seekable>:
c0106691: 55                           	push	ebp
c0106692: 89 e5                        	mov	ebp, esp
c0106694: 53                           	push	ebx
c0106695: 83 ec 10                     	sub	esp, 16
c0106698: 8b 5d 08                     	mov	ebx, dword ptr [ebp + 8]
c010669b: 53                           	push	ebx
c010669c: e8 b9 fe ff ff               	call	0xc010655a <vnode_check>
c01066a1: 89 5d 08                     	mov	dword ptr [ebp + 8], ebx
c01066a4: 83 c4 10                     	add	esp, 16
c01066a7: 8b 43 30                     	mov	eax, dword ptr [ebx + 48]
c01066aa: 8b 5d fc                     	mov	ebx, dword ptr [ebp - 4]
c01066ad: c9                           	leave
c01066ae: ff e0                        	jmp	eax

c01066b0 <vnode_op_is_tty>:
c01066b0: 55                           	push	ebp
c01066b1: 89 e5                        	mov	ebp, esp
c01066b3: 53                           	push	ebx
c01066b4: 83 ec 10                     	sub	esp, 16
c01066b7: 8b 5d 08                     	mov	ebx, dword ptr [ebp + 8]
c01066ba: 53                           	push	ebx
c01066bb: e8 9a fe ff ff               	call	0xc010655a <vnode_check>
c01066c0: 89 5d 08                     	mov	dword ptr [ebp + 8], ebx
c01066c3: 83 c4 10                     	add	esp, 16
c01066c6: 8b 43 2c                     	mov	eax, dword ptr [ebx + 44]
c01066c9: 8b 5d fc                     	mov	ebx, dword ptr [ebp - 4]
c01066cc: c9                           	leave
c01066cd: ff e0                        	jmp	eax

c01066cf <vnode_op_close>:
c01066cf: 55                           	push	ebp
c01066d0: 89 e5                        	mov	ebp, esp
c01066d2: 8b 45 08                     	mov	eax, dword ptr [ebp + 8]
c01066d5: 5d                           	pop	ebp
c01066d6: 8b 40 18                     	mov	eax, dword ptr [eax + 24]
c01066d9: ff e0                        	jmp	eax

c01066db <vnode_dereference>:
c01066db: 55                           	push	ebp
c01066dc: 89 e5                        	mov	ebp, esp
c01066de: 56                           	push	esi
c01066df: 53                           	push	ebx
c01066e0: 8b 5d 08                     	mov	ebx, dword ptr [ebp + 8]
c01066e3: 8d 73 40                     	lea	esi, [ebx + 64]
c01066e6: 83 ec 0c                     	sub	esp, 12
c01066e9: 53                           	push	ebx
c01066ea: e8 6b fe ff ff               	call	0xc010655a <vnode_check>
c01066ef: 89 34 24                     	mov	dword ptr [esp], esi
c01066f2: e8 87 d4 ff ff               	call	0xc0103b7e <spinlock_acquire>
c01066f7: 8b 43 3c                     	mov	eax, dword ptr [ebx + 60]
c01066fa: 83 c4 10                     	add	esp, 16
c01066fd: 48                           	dec	eax
c01066fe: 89 43 3c                     	mov	dword ptr [ebx + 60], eax
c0106701: 85 c0                        	test	eax, eax
c0106703: 75 22                        	jne	0xc0106727 <vnode_dereference+0x4c>
c0106705: 83 ec 0c                     	sub	esp, 12
c0106708: 53                           	push	ebx
c0106709: e8 c1 ff ff ff               	call	0xc01066cf <vnode_op_close>
c010670e: 89 34 24                     	mov	dword ptr [esp], esi
c0106711: e8 6d d4 ff ff               	call	0xc0103b83 <spinlock_release>
c0106716: 89 5d 08                     	mov	dword ptr [ebp + 8], ebx
c0106719: 83 c4 10                     	add	esp, 16
c010671c: 8d 65 f8                     	lea	esp, [ebp - 8]
c010671f: 5b                           	pop	ebx
c0106720: 5e                           	pop	esi
c0106721: 5d                           	pop	ebp
c0106722: e9 fd bd ff ff               	jmp	0xc0102524 <free>
c0106727: 89 75 08                     	mov	dword ptr [ebp + 8], esi
c010672a: 8d 65 f8                     	lea	esp, [ebp - 8]
c010672d: 5b                           	pop	ebx
c010672e: 5e                           	pop	esi
c010672f: 5d                           	pop	ebp
c0106730: e9 4e d4 ff ff               	jmp	0xc0103b83 <spinlock_release>

c0106735 <vnode_op_follow>:
c0106735: 55                           	push	ebp
c0106736: 89 e5                        	mov	ebp, esp
c0106738: 57                           	push	edi
c0106739: 56                           	push	esi
c010673a: 53                           	push	ebx
c010673b: 83 ec 18                     	sub	esp, 24
c010673e: 8b 5d 08                     	mov	ebx, dword ptr [ebp + 8]
c0106741: 8b 75 0c                     	mov	esi, dword ptr [ebp + 12]
c0106744: 8b 7d 10                     	mov	edi, dword ptr [ebp + 16]
c0106747: 53                           	push	ebx
c0106748: e8 0d fe ff ff               	call	0xc010655a <vnode_check>
c010674d: 89 7d 10                     	mov	dword ptr [ebp + 16], edi
c0106750: 83 c4 10                     	add	esp, 16
c0106753: 89 75 0c                     	mov	dword ptr [ebp + 12], esi
c0106756: 89 5d 08                     	mov	dword ptr [ebp + 8], ebx
c0106759: 8b 43 24                     	mov	eax, dword ptr [ebx + 36]
c010675c: 8d 65 f4                     	lea	esp, [ebp - 12]
c010675f: 5b                           	pop	ebx
c0106760: 5e                           	pop	esi
c0106761: 5f                           	pop	edi
c0106762: 5d                           	pop	ebp
c0106763: ff e0                        	jmp	eax

c0106765 <vnode_op_dirent_type>:
c0106765: 55                           	push	ebp
c0106766: 89 e5                        	mov	ebp, esp
c0106768: 53                           	push	ebx
c0106769: 83 ec 10                     	sub	esp, 16
c010676c: 8b 5d 08                     	mov	ebx, dword ptr [ebp + 8]
c010676f: 53                           	push	ebx
c0106770: e8 e5 fd ff ff               	call	0xc010655a <vnode_check>
c0106775: 89 5d 08                     	mov	dword ptr [ebp + 8], ebx
c0106778: 83 c4 10                     	add	esp, 16
c010677b: 8b 43 34                     	mov	eax, dword ptr [ebx + 52]
c010677e: 8b 5d fc                     	mov	ebx, dword ptr [ebp - 4]
c0106781: c9                           	leave
c0106782: ff e0                        	jmp	eax

c0106784 <vnode_op_stat>:
c0106784: 55                           	push	ebp
c0106785: 89 e5                        	mov	ebp, esp
c0106787: 56                           	push	esi
c0106788: 53                           	push	ebx
c0106789: 8b 5d 08                     	mov	ebx, dword ptr [ebp + 8]
c010678c: 8b 75 0c                     	mov	esi, dword ptr [ebp + 12]
c010678f: 83 ec 0c                     	sub	esp, 12
c0106792: 53                           	push	ebx
c0106793: e8 c2 fd ff ff               	call	0xc010655a <vnode_check>
c0106798: 89 75 0c                     	mov	dword ptr [ebp + 12], esi
c010679b: 83 c4 10                     	add	esp, 16
c010679e: 89 5d 08                     	mov	dword ptr [ebp + 8], ebx
c01067a1: 8b 43 28                     	mov	eax, dword ptr [ebx + 40]
c01067a4: 8d 65 f8                     	lea	esp, [ebp - 8]
c01067a7: 5b                           	pop	ebx
c01067a8: 5e                           	pop	esi
c01067a9: 5d                           	pop	ebp
c01067aa: ff e0                        	jmp	eax

c01067ac <demofs_read_inode>:
c01067ac: 55                           	push	ebp
c01067ad: 89 e5                        	mov	ebp, esp
c01067af: 56                           	push	esi
c01067b0: 53                           	push	ebx
c01067b1: 83 ec 20                     	sub	esp, 32
c01067b4: 8b 5d 08                     	mov	ebx, dword ptr [ebp + 8]
c01067b7: 8b 03                        	mov	eax, dword ptr [ebx]
c01067b9: 8b 40 5c                     	mov	eax, dword ptr [eax + 92]
c01067bc: 8b 00                        	mov	eax, dword ptr [eax]
c01067be: 81 78 14 00 02 00 00         	cmp	dword ptr [eax + 20], 512
c01067c5: 74 0d                        	je	0xc01067d4 <demofs_read_inode+0x28>
c01067c7: 83 ec 0c                     	sub	esp, 12
c01067ca: 68 d2 ae 10 c0               	push	3222318802
c01067cf: e8 77 ea ff ff               	call	0xc010524b <panic>
c01067d4: 50                           	push	eax
c01067d5: 8d 75 e4                     	lea	esi, [ebp - 28]
c01067d8: 50                           	push	eax
c01067d9: 6a 00                        	push	0
c01067db: 6a 00                        	push	0
c01067dd: 8b 45 0c                     	mov	eax, dword ptr [ebp + 12]
c01067e0: c1 e0 09                     	shl	eax, 9
c01067e3: 50                           	push	eax
c01067e4: 68 00 02 00 00               	push	512
c01067e9: ff 75 10                     	push	dword ptr [ebp + 16]
c01067ec: 56                           	push	esi
c01067ed: e8 2d f1 ff ff               	call	0xc010591f <uio_construct>
c01067f2: 89 34 24                     	mov	dword ptr [esp], esi
c01067f5: ff 33                        	push	dword ptr [ebx]
c01067f7: e8 50 f7 ff ff               	call	0xc0105f4c <vfs_read>
c01067fc: 8d 65 f8                     	lea	esp, [ebp - 8]
c01067ff: 5b                           	pop	ebx
c0106800: 5e                           	pop	esi
c0106801: 5d                           	pop	ebp
c0106802: c3                           	ret

c0106803 <demofs_read_file>:
c0106803: 55                           	push	ebp
c0106804: 89 e5                        	mov	ebp, esp
c0106806: 57                           	push	edi
c0106807: 56                           	push	esi
c0106808: 53                           	push	ebx
c0106809: 81 ec 3c 02 00 00            	sub	esp, 572
c010680f: 8b 5d 14                     	mov	ebx, dword ptr [ebp + 20]
c0106812: 8b 45 10                     	mov	eax, dword ptr [ebp + 16]
c0106815: 8b 53 08                     	mov	edx, dword ptr [ebx + 8]
c0106818: 89 c6                        	mov	esi, eax
c010681a: 29 d6                        	sub	esi, edx
c010681c: 39 c2                        	cmp	edx, eax
c010681e: 0f 82 87 00 00 00            	jb	0xc01068ab <demofs_read_file+0xa8>
c0106824: 31 c0                        	xor	eax, eax
c0106826: e9 fd 00 00 00               	jmp	0xc0106928 <demofs_read_file+0x125>
c010682b: 85 f6                        	test	esi, esi
c010682d: 74 f5                        	je	0xc0106824 <demofs_read_file+0x21>
c010682f: 8b 43 08                     	mov	eax, dword ptr [ebx + 8]
c0106832: 89 c7                        	mov	edi, eax
c0106834: 89 85 c4 fd ff ff            	mov	dword ptr [ebp - 572], eax
c010683a: c1 ef 09                     	shr	edi, 9
c010683d: 03 7d 0c                     	add	edi, dword ptr [ebp + 12]
c0106840: c1 e7 09                     	shl	edi, 9
c0106843: a9 ff 01 00 00               	test	eax, 511
c0106848: 0f 94 c2                     	sete	dl
c010684b: 81 f9 ff 01 00 00            	cmp	ecx, 511
c0106851: 0f 97 c0                     	seta	al
c0106854: 84 c2                        	test	dl, al
c0106856: 74 63                        	je	0xc01068bb <demofs_read_file+0xb8>
c0106858: 81 fe ff 01 00 00            	cmp	esi, 511
c010685e: 76 5b                        	jbe	0xc01068bb <demofs_read_file+0xb8>
c0106860: 89 c8                        	mov	eax, ecx
c0106862: 81 e1 00 fe ff ff            	and	ecx, 4294966784
c0106868: 89 7b 08                     	mov	dword ptr [ebx + 8], edi
c010686b: 25 ff 01 00 00               	and	eax, 511
c0106870: 89 4b 04                     	mov	dword ptr [ebx + 4], ecx
c0106873: 89 85 c0 fd ff ff            	mov	dword ptr [ebp - 576], eax
c0106879: 50                           	push	eax
c010687a: 50                           	push	eax
c010687b: 53                           	push	ebx
c010687c: 8b 45 08                     	mov	eax, dword ptr [ebp + 8]
c010687f: ff 30                        	push	dword ptr [eax]
c0106881: e8 c6 f6 ff ff               	call	0xc0105f4c <vfs_read>
c0106886: 83 c4 10                     	add	esp, 16
c0106889: 85 c0                        	test	eax, eax
c010688b: 0f 85 97 00 00 00            	jne	0xc0106928 <demofs_read_file+0x125>
c0106891: 8b 85 c4 fd ff ff            	mov	eax, dword ptr [ebp - 572]
c0106897: 81 ee 00 02 00 00            	sub	esi, 512
c010689d: 29 f8                        	sub	eax, edi
c010689f: 01 43 08                     	add	dword ptr [ebx + 8], eax
c01068a2: 8b 85 c0 fd ff ff            	mov	eax, dword ptr [ebp - 576]
c01068a8: 89 43 04                     	mov	dword ptr [ebx + 4], eax
c01068ab: 8b 4b 04                     	mov	ecx, dword ptr [ebx + 4]
c01068ae: 85 c9                        	test	ecx, ecx
c01068b0: 0f 85 75 ff ff ff            	jne	0xc010682b <demofs_read_file+0x28>
c01068b6: e9 69 ff ff ff               	jmp	0xc0106824 <demofs_read_file+0x21>
c01068bb: 8d 85 d4 fd ff ff            	lea	eax, [ebp - 556]
c01068c1: 8d 95 e8 fd ff ff            	lea	edx, [ebp - 536]
c01068c7: 51                           	push	ecx
c01068c8: 51                           	push	ecx
c01068c9: 6a 00                        	push	0
c01068cb: 6a 00                        	push	0
c01068cd: 57                           	push	edi
c01068ce: 68 00 02 00 00               	push	512
c01068d3: 52                           	push	edx
c01068d4: 50                           	push	eax
c01068d5: e8 45 f0 ff ff               	call	0xc010591f <uio_construct>
c01068da: 8d 85 d4 fd ff ff            	lea	eax, [ebp - 556]
c01068e0: 89 04 24                     	mov	dword ptr [esp], eax
c01068e3: 8b 45 08                     	mov	eax, dword ptr [ebp + 8]
c01068e6: ff 30                        	push	dword ptr [eax]
c01068e8: e8 5f f6 ff ff               	call	0xc0105f4c <vfs_read>
c01068ed: 83 c4 20                     	add	esp, 32
c01068f0: 85 c0                        	test	eax, eax
c01068f2: 75 34                        	jne	0xc0106928 <demofs_read_file+0x125>
c01068f4: 8b 43 08                     	mov	eax, dword ptr [ebx + 8]
c01068f7: 8b 4b 04                     	mov	ecx, dword ptr [ebx + 4]
c01068fa: bf 00 02 00 00               	mov	edi, 512
c01068ff: 52                           	push	edx
c0106900: 8d 95 e8 fd ff ff            	lea	edx, [ebp - 536]
c0106906: 25 ff 01 00 00               	and	eax, 511
c010690b: 29 c7                        	sub	edi, eax
c010690d: 39 cf                        	cmp	edi, ecx
c010690f: 0f 47 f9                     	cmova	edi, ecx
c0106912: 39 f7                        	cmp	edi, esi
c0106914: 0f 47 fe                     	cmova	edi, esi
c0106917: 01 c2                        	add	edx, eax
c0106919: 57                           	push	edi
c010691a: 29 fe                        	sub	esi, edi
c010691c: 53                           	push	ebx
c010691d: 52                           	push	edx
c010691e: e8 c1 ee ff ff               	call	0xc01057e4 <uio_move>
c0106923: 83 c4 10                     	add	esp, 16
c0106926: eb 83                        	jmp	0xc01068ab <demofs_read_file+0xa8>
c0106928: 8d 65 f4                     	lea	esp, [ebp - 12]
c010692b: 5b                           	pop	ebx
c010692c: 5e                           	pop	esi
c010692d: 5f                           	pop	edi
c010692e: 5d                           	pop	ebp
c010692f: c3                           	ret

c0106930 <demofs_follow>:
c0106930: 55                           	push	ebp
c0106931: 89 e5                        	mov	ebp, esp
c0106933: 57                           	push	edi
c0106934: 56                           	push	esi
c0106935: 53                           	push	ebx
c0106936: 81 ec 18 02 00 00            	sub	esp, 536
c010693c: 8b 75 14                     	mov	esi, dword ptr [ebp + 20]
c010693f: 8b 5d 0c                     	mov	ebx, dword ptr [ebp + 12]
c0106942: 56                           	push	esi
c0106943: e8 d9 a9 ff ff               	call	0xc0101321 <strlen>
c0106948: 83 c4 10                     	add	esp, 16
c010694b: 89 c2                        	mov	edx, eax
c010694d: b8 0d 00 00 00               	mov	eax, 13
c0106952: 83 fa 18                     	cmp	edx, 24
c0106955: 0f 87 2e 01 00 00            	ja	0xc0106a89 <demofs_follow+0x159>
c010695b: b8 0e 00 00 00               	mov	eax, 14
c0106960: 85 db                        	test	ebx, ebx
c0106962: 0f 89 21 01 00 00            	jns	0xc0106a89 <demofs_follow+0x159>
c0106968: 8d 85 e8 fd ff ff            	lea	eax, [ebp - 536]
c010696e: 52                           	push	edx
c010696f: 50                           	push	eax
c0106970: 53                           	push	ebx
c0106971: ff 75 08                     	push	dword ptr [ebp + 8]
c0106974: e8 33 fe ff ff               	call	0xc01067ac <demofs_read_inode>
c0106979: 83 c4 10                     	add	esp, 16
c010697c: 85 c0                        	test	eax, eax
c010697e: 0f 85 05 01 00 00            	jne	0xc0106a89 <demofs_follow+0x159>
c0106984: 80 bd e8 fd ff ff fd         	cmp	byte ptr [ebp - 536], -3
c010698b: 77 0a                        	ja	0xc0106997 <demofs_follow+0x67>
c010698d: b8 0a 00 00 00               	mov	eax, 10
c0106992: e9 f2 00 00 00               	jmp	0xc0106a89 <demofs_follow+0x159>
c0106997: bb 20 00 00 00               	mov	ebx, 32
c010699c: 80 bc 1d e8 fd ff ff 00      	cmp	byte ptr [ebp + ebx - 536], 0
c01069a4: 75 0a                        	jne	0xc01069b0 <demofs_follow+0x80>
c01069a6: b8 09 00 00 00               	mov	eax, 9
c01069ab: e9 d9 00 00 00               	jmp	0xc0106a89 <demofs_follow+0x159>
c01069b0: 50                           	push	eax
c01069b1: 8d 85 e8 fd ff ff            	lea	eax, [ebp - 536]
c01069b7: 01 d8                        	add	eax, ebx
c01069b9: 6a 18                        	push	24
c01069bb: 50                           	push	eax
c01069bc: 56                           	push	esi
c01069bd: e8 ca a9 ff ff               	call	0xc010138c <strncmp>
c01069c2: 83 c4 10                     	add	esp, 16
c01069c5: 85 c0                        	test	eax, eax
c01069c7: 75 71                        	jne	0xc0106a3a <demofs_follow+0x10a>
c01069c9: 0f b6 94 1d 05 fe ff ff      	movzx	edx, byte ptr [ebp + ebx - 507]
c01069d1: 0f b6 b4 1d 06 fe ff ff      	movzx	esi, byte ptr [ebp + ebx - 506]
c01069d9: 0f b6 8c 1d 04 fe ff ff      	movzx	ecx, byte ptr [ebp + ebx - 508]
c01069e1: c1 e2 08                     	shl	edx, 8
c01069e4: c1 e6 10                     	shl	esi, 16
c01069e7: 09 f2                        	or	edx, esi
c01069e9: 09 ca                        	or	edx, ecx
c01069eb: f6 84 1d 07 fe ff ff 01      	test	byte ptr [ebp + ebx - 505], 1
c01069f3: 74 0a                        	je	0xc01069ff <demofs_follow+0xcf>
c01069f5: 81 ca 00 00 00 80            	or	edx, 2147483648
c01069fb: 31 c9                        	xor	ecx, ecx
c01069fd: eb 2f                        	jmp	0xc0106a2e <demofs_follow+0xfe>
c01069ff: 0f b6 b4 1d 01 fe ff ff      	movzx	esi, byte ptr [ebp + ebx - 511]
c0106a07: 0f b6 bc 1d 02 fe ff ff      	movzx	edi, byte ptr [ebp + ebx - 510]
c0106a0f: 0f b6 8c 1d 00 fe ff ff      	movzx	ecx, byte ptr [ebp + ebx - 512]
c0106a17: c1 e6 08                     	shl	esi, 8
c0106a1a: c1 e7 10                     	shl	edi, 16
c0106a1d: 09 fe                        	or	esi, edi
c0106a1f: 09 ce                        	or	esi, ecx
c0106a21: 0f b6 8c 1d 03 fe ff ff      	movzx	ecx, byte ptr [ebp + ebx - 509]
c0106a29: c1 e1 18                     	shl	ecx, 24
c0106a2c: 09 f1                        	or	ecx, esi
c0106a2e: 8b 5d 18                     	mov	ebx, dword ptr [ebp + 24]
c0106a31: 89 0b                        	mov	dword ptr [ebx], ecx
c0106a33: 8b 4d 10                     	mov	ecx, dword ptr [ebp + 16]
c0106a36: 89 11                        	mov	dword ptr [ecx], edx
c0106a38: eb 4f                        	jmp	0xc0106a89 <demofs_follow+0x159>
c0106a3a: 83 c3 20                     	add	ebx, 32
c0106a3d: 81 fb 00 02 00 00            	cmp	ebx, 512
c0106a43: 0f 85 53 ff ff ff            	jne	0xc010699c <demofs_follow+0x6c>
c0106a49: 8a 85 e8 fd ff ff            	mov	al, byte ptr [ebp - 536]
c0106a4f: 3c ff                        	cmp	al, -1
c0106a51: 0f 84 4f ff ff ff            	je	0xc01069a6 <demofs_follow+0x76>
c0106a57: 3c fe                        	cmp	al, -2
c0106a59: 0f 85 2e ff ff ff            	jne	0xc010698d <demofs_follow+0x5d>
c0106a5f: 0f b6 9d ea fd ff ff         	movzx	ebx, byte ptr [ebp - 534]
c0106a66: 0f b6 95 eb fd ff ff         	movzx	edx, byte ptr [ebp - 533]
c0106a6d: 0f b6 85 e9 fd ff ff         	movzx	eax, byte ptr [ebp - 535]
c0106a74: c1 e3 08                     	shl	ebx, 8
c0106a77: c1 e2 10                     	shl	edx, 16
c0106a7a: 09 d3                        	or	ebx, edx
c0106a7c: 09 c3                        	or	ebx, eax
c0106a7e: 81 cb 00 00 00 80            	or	ebx, 2147483648
c0106a84: e9 df fe ff ff               	jmp	0xc0106968 <demofs_follow+0x38>
c0106a89: 8d 65 f4                     	lea	esp, [ebp - 12]
c0106a8c: 5b                           	pop	ebx
c0106a8d: 5e                           	pop	esi
c0106a8e: 5f                           	pop	edi
c0106a8f: 5d                           	pop	ebp
c0106a90: c3                           	ret

c0106a91 <demofs_read_directory_entry>:
c0106a91: 55                           	push	ebp
c0106a92: b8 0e 00 00 00               	mov	eax, 14
c0106a97: 89 e5                        	mov	ebp, esp
c0106a99: 57                           	push	edi
c0106a9a: 56                           	push	esi
c0106a9b: 53                           	push	ebx
c0106a9c: 81 ec 4c 03 00 00            	sub	esp, 844
c0106aa2: 8b 4d 0c                     	mov	ecx, dword ptr [ebp + 12]
c0106aa5: 85 c9                        	test	ecx, ecx
c0106aa7: 0f 89 3c 01 00 00            	jns	0xc0106be9 <demofs_read_directory_entry+0x158>
c0106aad: 8b 45 10                     	mov	eax, dword ptr [ebp + 16]
c0106ab0: bb 08 01 00 00               	mov	ebx, 264
c0106ab5: 31 d2                        	xor	edx, edx
c0106ab7: 31 f6                        	xor	esi, esi
c0106ab9: 8b 40 08                     	mov	eax, dword ptr [eax + 8]
c0106abc: f7 f3                        	div	ebx
c0106abe: bb 1f 00 00 00               	mov	ebx, 31
c0106ac3: 99                           	cdq
c0106ac4: 89 85 b4 fc ff ff            	mov	dword ptr [ebp - 844], eax
c0106aca: f7 fb                        	idiv	ebx
c0106acc: 89 c7                        	mov	edi, eax
c0106ace: 39 fe                        	cmp	esi, edi
c0106ad0: 8d 9d e8 fd ff ff            	lea	ebx, [ebp - 536]
c0106ad6: 74 51                        	je	0xc0106b29 <demofs_read_directory_entry+0x98>
c0106ad8: 50                           	push	eax
c0106ad9: 53                           	push	ebx
c0106ada: 51                           	push	ecx
c0106adb: ff 75 08                     	push	dword ptr [ebp + 8]
c0106ade: e8 c9 fc ff ff               	call	0xc01067ac <demofs_read_inode>
c0106ae3: 83 c4 10                     	add	esp, 16
c0106ae6: 85 c0                        	test	eax, eax
c0106ae8: 0f 85 fb 00 00 00            	jne	0xc0106be9 <demofs_read_directory_entry+0x158>
c0106aee: 8a 85 e8 fd ff ff            	mov	al, byte ptr [ebp - 536]
c0106af4: 3c ff                        	cmp	al, -1
c0106af6: 75 07                        	jne	0xc0106aff <demofs_read_directory_entry+0x6e>
c0106af8: 31 c0                        	xor	eax, eax
c0106afa: e9 ea 00 00 00               	jmp	0xc0106be9 <demofs_read_directory_entry+0x158>
c0106aff: 3c fe                        	cmp	al, -2
c0106b01: 0f 85 dd 00 00 00            	jne	0xc0106be4 <demofs_read_directory_entry+0x153>
c0106b07: 0f b6 8d ea fd ff ff         	movzx	ecx, byte ptr [ebp - 534]
c0106b0e: 0f b6 85 eb fd ff ff         	movzx	eax, byte ptr [ebp - 533]
c0106b15: 46                           	inc	esi
c0106b16: 0f b6 9d e9 fd ff ff         	movzx	ebx, byte ptr [ebp - 535]
c0106b1d: c1 e1 08                     	shl	ecx, 8
c0106b20: c1 e0 10                     	shl	eax, 16
c0106b23: 09 c1                        	or	ecx, eax
c0106b25: 09 d9                        	or	ecx, ebx
c0106b27: eb a5                        	jmp	0xc0106ace <demofs_read_directory_entry+0x3d>
c0106b29: 56                           	push	esi
c0106b2a: 53                           	push	ebx
c0106b2b: 51                           	push	ecx
c0106b2c: ff 75 08                     	push	dword ptr [ebp + 8]
c0106b2f: e8 78 fc ff ff               	call	0xc01067ac <demofs_read_inode>
c0106b34: 83 c4 10                     	add	esp, 16
c0106b37: 85 c0                        	test	eax, eax
c0106b39: 0f 85 aa 00 00 00            	jne	0xc0106be9 <demofs_read_directory_entry+0x158>
c0106b3f: 8b 85 b4 fc ff ff            	mov	eax, dword ptr [ebp - 844]
c0106b45: b9 1f 00 00 00               	mov	ecx, 31
c0106b4a: 99                           	cdq
c0106b4b: f7 f9                        	idiv	ecx
c0106b4d: 42                           	inc	edx
c0106b4e: 89 d6                        	mov	esi, edx
c0106b50: c1 e6 05                     	shl	esi, 5
c0106b53: 80 bc 35 e8 fd ff ff 00      	cmp	byte ptr [ebp + esi - 536], 0
c0106b5b: 74 9b                        	je	0xc0106af8 <demofs_read_directory_entry+0x67>
c0106b5d: 8d bd c6 fc ff ff            	lea	edi, [ebp - 826]
c0106b63: 50                           	push	eax
c0106b64: 01 f3                        	add	ebx, esi
c0106b66: 6a 1a                        	push	26
c0106b68: 6a 00                        	push	0
c0106b6a: 57                           	push	edi
c0106b6b: e8 0a a7 ff ff               	call	0xc010127a <memset>
c0106b70: 83 c4 0c                     	add	esp, 12
c0106b73: 6a 18                        	push	24
c0106b75: 53                           	push	ebx
c0106b76: 8d 9d e0 fc ff ff            	lea	ebx, [ebp - 800]
c0106b7c: 57                           	push	edi
c0106b7d: e8 b2 a7 ff ff               	call	0xc0101334 <strncpy>
c0106b82: 8d 85 e4 fc ff ff            	lea	eax, [ebp - 796]
c0106b88: 5a                           	pop	edx
c0106b89: 59                           	pop	ecx
c0106b8a: 57                           	push	edi
c0106b8b: 50                           	push	eax
c0106b8c: e8 5d a7 ff ff               	call	0xc01012ee <strcpy>
c0106b91: 89 3c 24                     	mov	dword ptr [esp], edi
c0106b94: e8 88 a7 ff ff               	call	0xc0101321 <strlen>
c0106b99: 0f b6 94 35 06 fe ff ff      	movzx	edx, byte ptr [ebp + esi - 506]
c0106ba1: 83 c4 0c                     	add	esp, 12
c0106ba4: 0f b6 8c 35 04 fe ff ff      	movzx	ecx, byte ptr [ebp + esi - 508]
c0106bac: 88 85 e4 fd ff ff            	mov	byte ptr [ebp - 540], al
c0106bb2: 0f b6 84 35 05 fe ff ff      	movzx	eax, byte ptr [ebp + esi - 507]
c0106bba: c1 e2 10                     	shl	edx, 16
c0106bbd: c6 85 e5 fd ff ff 01         	mov	byte ptr [ebp - 539], 1
c0106bc4: c1 e0 08                     	shl	eax, 8
c0106bc7: 09 d0                        	or	eax, edx
c0106bc9: 09 c8                        	or	eax, ecx
c0106bcb: 89 85 e0 fc ff ff            	mov	dword ptr [ebp - 800], eax
c0106bd1: 68 08 01 00 00               	push	264
c0106bd6: ff 75 10                     	push	dword ptr [ebp + 16]
c0106bd9: 53                           	push	ebx
c0106bda: e8 05 ec ff ff               	call	0xc01057e4 <uio_move>
c0106bdf: 83 c4 10                     	add	esp, 16
c0106be2: eb 05                        	jmp	0xc0106be9 <demofs_read_directory_entry+0x158>
c0106be4: b8 0a 00 00 00               	mov	eax, 10
c0106be9: 8d 65 f4                     	lea	esp, [ebp - 12]
c0106bec: 5b                           	pop	ebx
c0106bed: 5e                           	pop	esi
c0106bee: 5f                           	pop	edi
c0106bef: 5d                           	pop	ebp
c0106bf0: c3                           	ret

c0106bf1 <demofs_vnode_ioctl>:
c0106bf1: b8 01 00 00 00               	mov	eax, 1
c0106bf6: c3                           	ret

c0106bf7 <demofs_vnode_istty>:
c0106bf7: 31 c0                        	xor	eax, eax
c0106bf9: c3                           	ret

c0106bfa <demofs_vnode_isseekable>:
c0106bfa: b0 01                        	mov	al, 1
c0106bfc: c3                           	ret

c0106bfd <demofs_vnode_write>:
c0106bfd: b8 11 00 00 00               	mov	eax, 17
c0106c02: c3                           	ret

c0106c03 <demofs_vnode_create>:
c0106c03: b8 11 00 00 00               	mov	eax, 17
c0106c08: c3                           	ret

c0106c09 <demofs_vnode_truncate>:
c0106c09: b8 11 00 00 00               	mov	eax, 17
c0106c0e: c3                           	ret

c0106c0f <demofs_vnode_follow_file>:
c0106c0f: b8 0e 00 00 00               	mov	eax, 14
c0106c14: c3                           	ret

c0106c15 <demofs_vnode_read_dir>:
c0106c15: b8 0f 00 00 00               	mov	eax, 15
c0106c1a: c3                           	ret

c0106c1b <demofs_vnode_readdir_file>:
c0106c1b: b8 0e 00 00 00               	mov	eax, 14
c0106c20: c3                           	ret

c0106c21 <demofs_vnode_dirent_type_file>:
c0106c21: b0 01                        	mov	al, 1
c0106c23: c3                           	ret

c0106c24 <demofs_vnode_dirent_type_dir>:
c0106c24: b0 02                        	mov	al, 2
c0106c26: c3                           	ret

c0106c27 <demofs_vnode_stat>:
c0106c27: 55                           	push	ebp
c0106c28: 89 e5                        	mov	ebp, esp
c0106c2a: 8b 55 08                     	mov	edx, dword ptr [ebp + 8]
c0106c2d: 8b 45 0c                     	mov	eax, dword ptr [ebp + 12]
c0106c30: 8b 4a 38                     	mov	ecx, dword ptr [edx + 56]
c0106c33: 31 d2                        	xor	edx, edx
c0106c35: c7 40 44 00 02 00 00         	mov	dword ptr [eax + 68], 512
c0106c3c: 89 50 28                     	mov	dword ptr [eax + 40], edx
c0106c3f: 89 50 2c                     	mov	dword ptr [eax + 44], edx
c0106c42: 31 d2                        	xor	edx, edx
c0106c44: 89 50 40                     	mov	dword ptr [eax + 64], edx
c0106c47: 89 50 38                     	mov	dword ptr [eax + 56], edx
c0106c4a: 89 50 3c                     	mov	dword ptr [eax + 60], edx
c0106c4d: 31 d2                        	xor	edx, edx
c0106c4f: c7 00 ad de ad de            	mov	dword ptr [eax], 3735936685
c0106c55: 89 50 04                     	mov	dword ptr [eax + 4], edx
c0106c58: 89 50 18                     	mov	dword ptr [eax + 24], edx
c0106c5b: 8b 11                        	mov	edx, dword ptr [ecx]
c0106c5d: c7 40 10 01 00 00 00         	mov	dword ptr [eax + 16], 1
c0106c64: 89 50 08                     	mov	dword ptr [eax + 8], edx
c0106c67: c1 fa 1f                     	sar	edx, 31
c0106c6a: 81 e2 00 80 00 00            	and	edx, 32768
c0106c70: 81 c2 ff 81 02 00            	add	edx, 164351
c0106c76: 89 50 0c                     	mov	dword ptr [eax + 12], edx
c0106c79: 31 d2                        	xor	edx, edx
c0106c7b: 89 50 30                     	mov	dword ptr [eax + 48], edx
c0106c7e: 89 50 34                     	mov	dword ptr [eax + 52], edx
c0106c81: 31 d2                        	xor	edx, edx
c0106c83: 89 50 1c                     	mov	dword ptr [eax + 28], edx
c0106c86: 89 50 20                     	mov	dword ptr [eax + 32], edx
c0106c89: 8b 51 0c                     	mov	edx, dword ptr [ecx + 12]
c0106c8c: 31 c9                        	xor	ecx, ecx
c0106c8e: 89 48 14                     	mov	dword ptr [eax + 20], ecx
c0106c91: 89 50 24                     	mov	dword ptr [eax + 36], edx
c0106c94: 31 c0                        	xor	eax, eax
c0106c96: 5d                           	pop	ebp
c0106c97: c3                           	ret

c0106c98 <demofs_vnode_read_file>:
c0106c98: 55                           	push	ebp
c0106c99: 89 e5                        	mov	ebp, esp
c0106c9b: 83 ec 08                     	sub	esp, 8
c0106c9e: 8b 45 08                     	mov	eax, dword ptr [ebp + 8]
c0106ca1: 8b 40 38                     	mov	eax, dword ptr [eax + 56]
c0106ca4: ff 75 0c                     	push	dword ptr [ebp + 12]
c0106ca7: 83 c0 04                     	add	eax, 4
c0106caa: ff 70 08                     	push	dword ptr [eax + 8]
c0106cad: ff 70 fc                     	push	dword ptr [eax - 4]
c0106cb0: 50                           	push	eax
c0106cb1: e8 4d fb ff ff               	call	0xc0106803 <demofs_read_file>
c0106cb6: c9                           	leave
c0106cb7: c3                           	ret

c0106cb8 <demofs_vnode_check_open>:
c0106cb8: 55                           	push	ebp
c0106cb9: 89 e5                        	mov	ebp, esp
c0106cbb: 83 ec 14                     	sub	esp, 20
c0106cbe: ff 75 0c                     	push	dword ptr [ebp + 12]
c0106cc1: e8 5b a6 ff ff               	call	0xc0101321 <strlen>
c0106cc6: 83 c4 10                     	add	esp, 16
c0106cc9: 89 c2                        	mov	edx, eax
c0106ccb: b8 0d 00 00 00               	mov	eax, 13
c0106cd0: 83 fa 17                     	cmp	edx, 23
c0106cd3: 77 0f                        	ja	0xc0106ce4 <demofs_vnode_check_open+0x2c>
c0106cd5: 8b 45 10                     	mov	eax, dword ptr [ebp + 16]
c0106cd8: 83 e0 03                     	and	eax, 3
c0106cdb: 48                           	dec	eax
c0106cdc: 83 f8 02                     	cmp	eax, 2
c0106cdf: 19 c0                        	sbb	eax, eax
c0106ce1: 83 e0 11                     	and	eax, 17
c0106ce4: c9                           	leave
c0106ce5: c3                           	ret

c0106ce6 <demofs_vnode_readdir_dir>:
c0106ce6: 55                           	push	ebp
c0106ce7: 89 e5                        	mov	ebp, esp
c0106ce9: 83 ec 0c                     	sub	esp, 12
c0106cec: 8b 45 08                     	mov	eax, dword ptr [ebp + 8]
c0106cef: 8b 40 38                     	mov	eax, dword ptr [eax + 56]
c0106cf2: ff 75 0c                     	push	dword ptr [ebp + 12]
c0106cf5: 83 c0 04                     	add	eax, 4
c0106cf8: ff 70 fc                     	push	dword ptr [eax - 4]
c0106cfb: 50                           	push	eax
c0106cfc: e8 90 fd ff ff               	call	0xc0106a91 <demofs_read_directory_entry>
c0106d01: c9                           	leave
c0106d02: c3                           	ret

c0106d03 <demofs_vnode_close>:
c0106d03: 31 c0                        	xor	eax, eax
c0106d05: c3                           	ret

c0106d06 <demofs_root_creator>:
c0106d06: 55                           	push	ebp
c0106d07: b9 0d 00 00 00               	mov	ecx, 13
c0106d0c: 89 e5                        	mov	ebp, esp
c0106d0e: 57                           	push	edi
c0106d0f: 56                           	push	esi
c0106d10: be c0 a0 10 c0               	mov	esi, 3222315200
c0106d15: 53                           	push	ebx
c0106d16: 83 ec 48                     	sub	esp, 72
c0106d19: 89 e7                        	mov	edi, esp
c0106d1b: f3 a5                        	rep		movsd	dword ptr es:[edi], dword ptr [esi]
c0106d1d: 6a 00                        	push	0
c0106d1f: e8 e9 f7 ff ff               	call	0xc010650d <vnode_init>
c0106d24: 83 c4 34                     	add	esp, 52
c0106d27: 6a 10                        	push	16
c0106d29: 89 c3                        	mov	ebx, eax
c0106d2b: e8 d5 b6 ff ff               	call	0xc0102405 <malloc>
c0106d30: 8b 55 08                     	mov	edx, dword ptr [ebp + 8]
c0106d33: 31 c9                        	xor	ecx, ecx
c0106d35: c7 40 08 09 00 00 80         	mov	dword ptr [eax + 8], 2147483657
c0106d3c: 89 50 04                     	mov	dword ptr [eax + 4], edx
c0106d3f: 31 d2                        	xor	edx, edx
c0106d41: 89 50 0c                     	mov	dword ptr [eax + 12], edx
c0106d44: c7 00 09 00 00 80            	mov	dword ptr [eax], 2147483657
c0106d4a: 89 43 38                     	mov	dword ptr [ebx + 56], eax
c0106d4d: 89 0c 24                     	mov	dword ptr [esp], ecx
c0106d50: 6a 01                        	push	1
c0106d52: 6a 00                        	push	0
c0106d54: 6a 00                        	push	0
c0106d56: 53                           	push	ebx
c0106d57: e8 33 f4 ff ff               	call	0xc010618f <open_file_create>
c0106d5c: 8b 55 0c                     	mov	edx, dword ptr [ebp + 12]
c0106d5f: 89 02                        	mov	dword ptr [edx], eax
c0106d61: 8d 65 f4                     	lea	esp, [ebp - 12]
c0106d64: 31 c0                        	xor	eax, eax
c0106d66: 5b                           	pop	ebx
c0106d67: 5e                           	pop	esi
c0106d68: 5f                           	pop	edi
c0106d69: 5d                           	pop	ebp
c0106d6a: c3                           	ret

c0106d6b <demofs_create_file_vnode>:
c0106d6b: 55                           	push	ebp
c0106d6c: b9 0d 00 00 00               	mov	ecx, 13
c0106d71: 89 e5                        	mov	ebp, esp
c0106d73: 57                           	push	edi
c0106d74: 56                           	push	esi
c0106d75: be 00 a1 10 c0               	mov	esi, 3222315264
c0106d7a: 83 ec 3c                     	sub	esp, 60
c0106d7d: 89 e7                        	mov	edi, esp
c0106d7f: f3 a5                        	rep		movsd	dword ptr es:[edi], dword ptr [esi]
c0106d81: 6a 00                        	push	0
c0106d83: e8 85 f7 ff ff               	call	0xc010650d <vnode_init>
c0106d88: 8d 65 f8                     	lea	esp, [ebp - 8]
c0106d8b: 5e                           	pop	esi
c0106d8c: 5f                           	pop	edi
c0106d8d: 5d                           	pop	ebp
c0106d8e: c3                           	ret

c0106d8f <demofs_create_dir_vnode>:
c0106d8f: 55                           	push	ebp
c0106d90: b9 0d 00 00 00               	mov	ecx, 13
c0106d95: 89 e5                        	mov	ebp, esp
c0106d97: 57                           	push	edi
c0106d98: 56                           	push	esi
c0106d99: be c0 a0 10 c0               	mov	esi, 3222315200
c0106d9e: 83 ec 3c                     	sub	esp, 60
c0106da1: 89 e7                        	mov	edi, esp
c0106da3: f3 a5                        	rep		movsd	dword ptr es:[edi], dword ptr [esi]
c0106da5: 6a 00                        	push	0
c0106da7: e8 61 f7 ff ff               	call	0xc010650d <vnode_init>
c0106dac: 8d 65 f8                     	lea	esp, [ebp - 8]
c0106daf: 5e                           	pop	esi
c0106db0: 5f                           	pop	edi
c0106db1: 5d                           	pop	ebp
c0106db2: c3                           	ret

c0106db3 <demofs_vnode_follow_dir>:
c0106db3: 55                           	push	ebp
c0106db4: 89 e5                        	mov	ebp, esp
c0106db6: 57                           	push	edi
c0106db7: 56                           	push	esi
c0106db8: 53                           	push	ebx
c0106db9: 83 ec 28                     	sub	esp, 40
c0106dbc: 8b 45 08                     	mov	eax, dword ptr [ebp + 8]
c0106dbf: 8b 78 38                     	mov	edi, dword ptr [eax + 56]
c0106dc2: 8d 45 e4                     	lea	eax, [ebp - 28]
c0106dc5: 50                           	push	eax
c0106dc6: 8d 45 e0                     	lea	eax, [ebp - 32]
c0106dc9: ff 75 10                     	push	dword ptr [ebp + 16]
c0106dcc: 50                           	push	eax
c0106dcd: 8d 47 04                     	lea	eax, [edi + 4]
c0106dd0: ff 37                        	push	dword ptr [edi]
c0106dd2: 50                           	push	eax
c0106dd3: e8 58 fb ff ff               	call	0xc0106930 <demofs_follow>
c0106dd8: 83 c4 20                     	add	esp, 32
c0106ddb: 89 c3                        	mov	ebx, eax
c0106ddd: 85 c0                        	test	eax, eax
c0106ddf: 75 42                        	jne	0xc0106e23 <demofs_vnode_follow_dir+0x70>
c0106de1: 83 7d e0 00                  	cmp	dword ptr [ebp - 32], 0
c0106de5: 79 07                        	jns	0xc0106dee <demofs_vnode_follow_dir+0x3b>
c0106de7: e8 a3 ff ff ff               	call	0xc0106d8f <demofs_create_dir_vnode>
c0106dec: eb 05                        	jmp	0xc0106df3 <demofs_vnode_follow_dir+0x40>
c0106dee: e8 78 ff ff ff               	call	0xc0106d6b <demofs_create_file_vnode>
c0106df3: 83 ec 0c                     	sub	esp, 12
c0106df6: 89 c6                        	mov	esi, eax
c0106df8: 6a 10                        	push	16
c0106dfa: e8 06 b6 ff ff               	call	0xc0102405 <malloc>
c0106dff: 83 c4 10                     	add	esp, 16
c0106e02: 89 c1                        	mov	ecx, eax
c0106e04: 8b 45 e0                     	mov	eax, dword ptr [ebp - 32]
c0106e07: 89 01                        	mov	dword ptr [ecx], eax
c0106e09: 8b 47 04                     	mov	eax, dword ptr [edi + 4]
c0106e0c: 8b 57 08                     	mov	edx, dword ptr [edi + 8]
c0106e0f: 89 41 04                     	mov	dword ptr [ecx + 4], eax
c0106e12: 8b 45 e4                     	mov	eax, dword ptr [ebp - 28]
c0106e15: 89 51 08                     	mov	dword ptr [ecx + 8], edx
c0106e18: 89 41 0c                     	mov	dword ptr [ecx + 12], eax
c0106e1b: 8b 45 0c                     	mov	eax, dword ptr [ebp + 12]
c0106e1e: 89 4e 38                     	mov	dword ptr [esi + 56], ecx
c0106e21: 89 30                        	mov	dword ptr [eax], esi
c0106e23: 8d 65 f4                     	lea	esp, [ebp - 12]
c0106e26: 89 d8                        	mov	eax, ebx
c0106e28: 5b                           	pop	ebx
c0106e29: 5e                           	pop	esi
c0106e2a: 5f                           	pop	edi
c0106e2b: 5d                           	pop	ebp
c0106e2c: c3                           	ret

c0106e2d <x86_beeper_start>:
c0106e2d: 55                           	push	ebp
c0106e2e: 89 e5                        	mov	ebp, esp
c0106e30: 8b 4d 08                     	mov	ecx, dword ptr [ebp + 8]
c0106e33: 85 c9                        	test	ecx, ecx
c0106e35: 7e 21                        	jle	0xc0106e58 <x86_beeper_start+0x2b>
c0106e37: b8 dc 34 12 00               	mov	eax, 1193180
c0106e3c: 99                           	cdq
c0106e3d: f7 f9                        	idiv	ecx
c0106e3f: 89 c1                        	mov	ecx, eax
c0106e41: b0 b6                        	mov	al, -74
c0106e43: e6 43                        	out	67, al
c0106e45: 89 c8                        	mov	eax, ecx
c0106e47: e6 42                        	out	66, al
c0106e49: 89 c8                        	mov	eax, ecx
c0106e4b: 66 c1 e8 08                  	shr	ax, 8
c0106e4f: e6 42                        	out	66, al
c0106e51: e4 61                        	in	al, 97
c0106e53: 83 c8 03                     	or	eax, 3
c0106e56: e6 61                        	out	97, al
c0106e58: 5d                           	pop	ebp
c0106e59: c3                           	ret

c0106e5a <x86_beeper_stop>:
c0106e5a: e4 61                        	in	al, 97
c0106e5c: 83 e0 fc                     	and	eax, -4
c0106e5f: e6 61                        	out	97, al
c0106e61: c3                           	ret

c0106e62 <x86_beeper_register>:
c0106e62: 55                           	push	ebp
c0106e63: 89 e5                        	mov	ebp, esp
c0106e65: 83 ec 14                     	sub	esp, 20
c0106e68: c7 05 6c 0e 11 c0 2d 6e 10 c0	mov	dword ptr [-1072624020], 3222302253
c0106e72: 68 6c 0e 11 c0               	push	3222343276
c0106e77: c7 05 70 0e 11 c0 5a 6e 10 c0	mov	dword ptr [-1072624016], 3222302298
c0106e81: e8 1b a6 ff ff               	call	0xc01014a1 <beeper_register_driver>
c0106e86: 83 c4 10                     	add	esp, 16
c0106e89: c9                           	leave
c0106e8a: c3                           	ret

c0106e8b <arch_initialise_devices_no_fs>:
c0106e8b: e9 17 0b 00 00               	jmp	0xc01079a7 <ide_initialise>

c0106e90 <arch_initialise_devices_with_fs>:
c0106e90: 55                           	push	ebp
c0106e91: 89 e5                        	mov	ebp, esp
c0106e93: 83 ec 08                     	sub	esp, 8
c0106e96: e8 c7 ff ff ff               	call	0xc0106e62 <x86_beeper_register>
c0106e9b: 52                           	push	edx
c0106e9c: 52                           	push	edx
c0106e9d: 6a 01                        	push	1
c0106e9f: 68 fb ae 10 c0               	push	3222318843
c0106ea4: e8 de c8 ff ff               	call	0xc0103787 <load_driver>
c0106ea9: 59                           	pop	ecx
c0106eaa: 58                           	pop	eax
c0106eab: 6a 01                        	push	1
c0106ead: 68 0c af 10 c0               	push	3222318860
c0106eb2: e8 d0 c8 ff ff               	call	0xc0103787 <load_driver>
c0106eb7: 83 c4 10                     	add	esp, 16
c0106eba: c9                           	leave
c0106ebb: c3                           	ret

c0106ebc <arch_cpu_initialise_bootstrap>:
c0106ebc: 55                           	push	ebp
c0106ebd: 89 e5                        	mov	ebp, esp
c0106ebf: 83 ec 08                     	sub	esp, 8
c0106ec2: e8 ab 19 00 00               	call	0xc0108872 <x86_per_cpu_virt_initialise>
c0106ec7: 83 ec 0c                     	sub	esp, 12
c0106eca: 68 90 08 00 00               	push	2192
c0106ecf: e8 31 b5 ff ff               	call	0xc0102405 <malloc>
c0106ed4: 8b 15 18 0e 11 c0            	mov	edx, dword ptr [-1072624104]
c0106eda: 31 c9                        	xor	ecx, ecx
c0106edc: 89 42 08                     	mov	dword ptr [edx + 8], eax
c0106edf: 89 0a                        	mov	dword ptr [edx], ecx
c0106ee1: e8 76 14 00 00               	call	0xc010835c <x86_gdt_initialise>
c0106ee6: e8 67 15 00 00               	call	0xc0108452 <x86_idt_initialise>
c0106eeb: e8 73 17 00 00               	call	0xc0108663 <x86_tss_initialise>
c0106ef0: e8 7f 16 00 00               	call	0xc0108574 <x86_interrupt_initialise>
c0106ef5: e8 40 0c 00 00               	call	0xc0107b3a <pic_initialise>
c0106efa: c7 04 24 f4 01 00 00         	mov	dword ptr [esp], 500
c0106f01: e8 98 0c 00 00               	call	0xc0107b9e <pit_initialise>
c0106f06: 83 c4 10                     	add	esp, 16
c0106f09: c9                           	leave
c0106f0a: c3                           	ret

c0106f0b <arch_all_cpus_are_done>:
c0106f0b: c7 05 74 0e 11 c0 01 00 00 00	mov	dword ptr [-1072624012], 1
c0106f15: e9 e9 21 00 00               	jmp	0xc0109103 <arch_enable_interrupts>

c0106f1a <arch_reboot>:
c0106f1a: 55                           	push	ebp
c0106f1b: 89 e5                        	mov	ebp, esp
c0106f1d: 83 ec 08                     	sub	esp, 8
c0106f20: e4 64                        	in	al, 100
c0106f22: a8 02                        	test	al, 2
c0106f24: 75 fa                        	jne	0xc0106f20 <arch_reboot+0x6>
c0106f26: b0 fe                        	mov	al, -2
c0106f28: e6 64                        	out	100, al
c0106f2a: e8 d8 21 00 00               	call	0xc0109107 <arch_stall_processor>
c0106f2f: eb f9                        	jmp	0xc0106f2a <arch_reboot+0x10>

c0106f31 <floppy_irq_handler>:
c0106f31: c6 05 a0 0e 11 c0 01         	mov	byte ptr [-1072623968], 1
c0106f38: 31 c0                        	xor	eax, eax
c0106f3a: c3                           	ret

c0106f3b <floppy_timer>:
c0106f3b: 55                           	push	ebp
c0106f3c: 89 e5                        	mov	ebp, esp
c0106f3e: 83 ec 08                     	sub	esp, 8
c0106f41: 52                           	push	edx
c0106f42: 52                           	push	edx
c0106f43: 6a 00                        	push	0
c0106f45: 68 80 f0 fa 02               	push	50000000
c0106f4a: e8 bc d5 ff ff               	call	0xc010450b <thread_nano_sleep>
c0106f4f: a1 a8 0e 11 c0               	mov	eax, dword ptr [3222343336]
c0106f54: 83 c4 10                     	add	esp, 16
c0106f57: 83 f8 02                     	cmp	eax, 2
c0106f5a: 75 e5                        	jne	0xc0106f41 <floppy_timer+0x6>
c0106f5c: a1 a4 0e 11 c0               	mov	eax, dword ptr [3222343332]
c0106f61: 83 e8 32                     	sub	eax, 50
c0106f64: a3 a4 0e 11 c0               	mov	dword ptr [3222343332], eax
c0106f69: a1 a4 0e 11 c0               	mov	eax, dword ptr [3222343332]
c0106f6e: 85 c0                        	test	eax, eax
c0106f70: 7f cf                        	jg	0xc0106f41 <floppy_timer+0x6>
c0106f72: b0 0c                        	mov	al, 12
c0106f74: ba f2 03 00 00               	mov	edx, 1010
c0106f79: ee                           	out	dx, al
c0106f7a: 31 c0                        	xor	eax, eax
c0106f7c: a3 a8 0e 11 c0               	mov	dword ptr [3222343336], eax
c0106f81: eb be                        	jmp	0xc0106f41 <floppy_timer+0x6>

c0106f83 <floppy_irq_wait>:
c0106f83: a0 a0 0e 11 c0               	mov	al, byte ptr [3222343328]
c0106f88: 84 c0                        	test	al, al
c0106f8a: 74 08                        	je	0xc0106f94 <floppy_irq_wait+0x11>
c0106f8c: c6 05 a0 0e 11 c0 00         	mov	byte ptr [-1072623968], 0
c0106f93: c3                           	ret
c0106f94: 55                           	push	ebp
c0106f95: 89 e5                        	mov	ebp, esp
c0106f97: 83 ec 08                     	sub	esp, 8
c0106f9a: 52                           	push	edx
c0106f9b: 52                           	push	edx
c0106f9c: 6a 00                        	push	0
c0106f9e: 68 80 96 98 00               	push	10000000
c0106fa3: e8 63 d5 ff ff               	call	0xc010450b <thread_nano_sleep>
c0106fa8: a0 a0 0e 11 c0               	mov	al, byte ptr [3222343328]
c0106fad: 83 c4 10                     	add	esp, 16
c0106fb0: 84 c0                        	test	al, al
c0106fb2: 74 e6                        	je	0xc0106f9a <floppy_irq_wait+0x17>
c0106fb4: c6 05 a0 0e 11 c0 00         	mov	byte ptr [-1072623968], 0
c0106fbb: c9                           	leave
c0106fbc: c3                           	ret

c0106fbd <floppy_motor.constprop.0>:
c0106fbd: 84 c0                        	test	al, al
c0106fbf: 74 32                        	je	0xc0106ff3 <floppy_motor.constprop.0+0x36>
c0106fc1: a1 a8 0e 11 c0               	mov	eax, dword ptr [3222343336]
c0106fc6: 85 c0                        	test	eax, eax
c0106fc8: 75 3e                        	jne	0xc0107008 <floppy_motor.constprop.0+0x4b>
c0106fca: 55                           	push	ebp
c0106fcb: b0 1c                        	mov	al, 28
c0106fcd: ba f2 03 00 00               	mov	edx, 1010
c0106fd2: 89 e5                        	mov	ebp, esp
c0106fd4: 83 ec 10                     	sub	esp, 16
c0106fd7: ee                           	out	dx, al
c0106fd8: 6a 00                        	push	0
c0106fda: 68 80 d1 f0 08               	push	150000000
c0106fdf: e8 27 d5 ff ff               	call	0xc010450b <thread_nano_sleep>
c0106fe4: 83 c4 10                     	add	esp, 16
c0106fe7: c7 05 a8 0e 11 c0 01 00 00 00	mov	dword ptr [-1072623960], 1
c0106ff1: c9                           	leave
c0106ff2: c3                           	ret
c0106ff3: c7 05 a8 0e 11 c0 02 00 00 00	mov	dword ptr [-1072623960], 2
c0106ffd: c7 05 a4 0e 11 c0 e8 03 00 00	mov	dword ptr [-1072623964], 1000
c0107007: c3                           	ret
c0107008: c7 05 a8 0e 11 c0 01 00 00 00	mov	dword ptr [-1072623960], 1
c0107012: c3                           	ret

c0107013 <floppy_read_data.constprop.0>:
c0107013: 55                           	push	ebp
c0107014: 89 e5                        	mov	ebp, esp
c0107016: 53                           	push	ebx
c0107017: bb 3c 00 00 00               	mov	ebx, 60
c010701c: 52                           	push	edx
c010701d: 50                           	push	eax
c010701e: 50                           	push	eax
c010701f: 6a 00                        	push	0
c0107021: 68 80 96 98 00               	push	10000000
c0107026: e8 e0 d4 ff ff               	call	0xc010450b <thread_nano_sleep>
c010702b: ba f4 03 00 00               	mov	edx, 1012
c0107030: ec                           	in	al, dx
c0107031: 83 c4 10                     	add	esp, 16
c0107034: 84 c0                        	test	al, al
c0107036: 79 08                        	jns	0xc0107040 <floppy_read_data.constprop.0+0x2d>
c0107038: ba f5 03 00 00               	mov	edx, 1013
c010703d: ec                           	in	al, dx
c010703e: eb 15                        	jmp	0xc0107055 <floppy_read_data.constprop.0+0x42>
c0107040: 4b                           	dec	ebx
c0107041: 75 da                        	jne	0xc010701d <floppy_read_data.constprop.0+0xa>
c0107043: 83 ec 0c                     	sub	esp, 12
c0107046: 68 19 af 10 c0               	push	3222318873
c010704b: e8 33 e0 ff ff               	call	0xc0105083 <kprintf>
c0107050: 83 c4 10                     	add	esp, 16
c0107053: 31 c0                        	xor	eax, eax
c0107055: 8b 5d fc                     	mov	ebx, dword ptr [ebp - 4]
c0107058: c9                           	leave
c0107059: c3                           	ret

c010705a <floppy_write_cmd.constprop.0>:
c010705a: 55                           	push	ebp
c010705b: 89 e5                        	mov	ebp, esp
c010705d: 56                           	push	esi
c010705e: 89 c6                        	mov	esi, eax
c0107060: 53                           	push	ebx
c0107061: bb 3c 00 00 00               	mov	ebx, 60
c0107066: 50                           	push	eax
c0107067: 50                           	push	eax
c0107068: 6a 00                        	push	0
c010706a: 68 80 96 98 00               	push	10000000
c010706f: e8 97 d4 ff ff               	call	0xc010450b <thread_nano_sleep>
c0107074: ba f4 03 00 00               	mov	edx, 1012
c0107079: ec                           	in	al, dx
c010707a: 83 c4 10                     	add	esp, 16
c010707d: 84 c0                        	test	al, al
c010707f: 79 0a                        	jns	0xc010708b <floppy_write_cmd.constprop.0+0x31>
c0107081: ba f5 03 00 00               	mov	edx, 1013
c0107086: 89 f0                        	mov	eax, esi
c0107088: ee                           	out	dx, al
c0107089: eb 13                        	jmp	0xc010709e <floppy_write_cmd.constprop.0+0x44>
c010708b: 4b                           	dec	ebx
c010708c: 75 d8                        	jne	0xc0107066 <floppy_write_cmd.constprop.0+0xc>
c010708e: 83 ec 0c                     	sub	esp, 12
c0107091: 68 34 af 10 c0               	push	3222318900
c0107096: e8 e8 df ff ff               	call	0xc0105083 <kprintf>
c010709b: 83 c4 10                     	add	esp, 16
c010709e: 8d 65 f8                     	lea	esp, [ebp - 8]
c01070a1: 5b                           	pop	ebx
c01070a2: 5e                           	pop	esi
c01070a3: 5d                           	pop	ebp
c01070a4: c3                           	ret

c01070a5 <floppy_check_interrupt.constprop.0>:
c01070a5: 55                           	push	ebp
c01070a6: 89 e5                        	mov	ebp, esp
c01070a8: 56                           	push	esi
c01070a9: 89 c6                        	mov	esi, eax
c01070ab: b8 08 00 00 00               	mov	eax, 8
c01070b0: 53                           	push	ebx
c01070b1: 89 d3                        	mov	ebx, edx
c01070b3: e8 a2 ff ff ff               	call	0xc010705a <floppy_write_cmd.constprop.0>
c01070b8: e8 56 ff ff ff               	call	0xc0107013 <floppy_read_data.constprop.0>
c01070bd: 0f b6 c0                     	movzx	eax, al
c01070c0: 89 06                        	mov	dword ptr [esi], eax
c01070c2: e8 4c ff ff ff               	call	0xc0107013 <floppy_read_data.constprop.0>
c01070c7: 0f b6 c0                     	movzx	eax, al
c01070ca: 89 03                        	mov	dword ptr [ebx], eax
c01070cc: 5b                           	pop	ebx
c01070cd: 5e                           	pop	esi
c01070ce: 5d                           	pop	ebp
c01070cf: c3                           	ret

c01070d0 <floppy_seek.constprop.0>:
c01070d0: 55                           	push	ebp
c01070d1: 89 e5                        	mov	ebp, esp
c01070d3: 57                           	push	edi
c01070d4: 89 c7                        	mov	edi, eax
c01070d6: b8 01 00 00 00               	mov	eax, 1
c01070db: 56                           	push	esi
c01070dc: 89 d6                        	mov	esi, edx
c01070de: 53                           	push	ebx
c01070df: 83 ec 2c                     	sub	esp, 44
c01070e2: e8 d6 fe ff ff               	call	0xc0106fbd <floppy_motor.constprop.0>
c01070e7: 8d 04 b5 00 00 00 00         	lea	eax, [4*esi]
c01070ee: be 0a 00 00 00               	mov	esi, 10
c01070f3: 89 45 d4                     	mov	dword ptr [ebp - 44], eax
c01070f6: b8 0f 00 00 00               	mov	eax, 15
c01070fb: e8 5a ff ff ff               	call	0xc010705a <floppy_write_cmd.constprop.0>
c0107100: 8b 45 d4                     	mov	eax, dword ptr [ebp - 44]
c0107103: e8 52 ff ff ff               	call	0xc010705a <floppy_write_cmd.constprop.0>
c0107108: 89 f8                        	mov	eax, edi
c010710a: e8 4b ff ff ff               	call	0xc010705a <floppy_write_cmd.constprop.0>
c010710f: e8 6f fe ff ff               	call	0xc0106f83 <floppy_irq_wait>
c0107114: 8d 55 e4                     	lea	edx, [ebp - 28]
c0107117: 8d 45 e0                     	lea	eax, [ebp - 32]
c010711a: e8 86 ff ff ff               	call	0xc01070a5 <floppy_check_interrupt.constprop.0>
c010711f: 8b 5d e0                     	mov	ebx, dword ptr [ebp - 32]
c0107122: 81 e3 c0 00 00 00            	and	ebx, 192
c0107128: 75 0e                        	jne	0xc0107138 <floppy_seek.constprop.0+0x68>
c010712a: 3b 7d e4                     	cmp	edi, dword ptr [ebp - 28]
c010712d: 75 09                        	jne	0xc0107138 <floppy_seek.constprop.0+0x68>
c010712f: 31 c0                        	xor	eax, eax
c0107131: e8 87 fe ff ff               	call	0xc0106fbd <floppy_motor.constprop.0>
c0107136: eb 1f                        	jmp	0xc0107157 <floppy_seek.constprop.0+0x87>
c0107138: 4e                           	dec	esi
c0107139: 75 bb                        	jne	0xc01070f6 <floppy_seek.constprop.0+0x26>
c010713b: 83 ec 0c                     	sub	esp, 12
c010713e: bb 0a 00 00 00               	mov	ebx, 10
c0107143: 68 4f af 10 c0               	push	3222318927
c0107148: e8 36 df ff ff               	call	0xc0105083 <kprintf>
c010714d: 31 c0                        	xor	eax, eax
c010714f: e8 69 fe ff ff               	call	0xc0106fbd <floppy_motor.constprop.0>
c0107154: 83 c4 10                     	add	esp, 16
c0107157: 8d 65 f4                     	lea	esp, [ebp - 12]
c010715a: 89 d8                        	mov	eax, ebx
c010715c: 5b                           	pop	ebx
c010715d: 5e                           	pop	esi
c010715e: 5f                           	pop	edi
c010715f: 5d                           	pop	ebp
c0107160: c3                           	ret

c0107161 <floppy_calibrate.constprop.0.isra.0>:
c0107161: 55                           	push	ebp
c0107162: b8 01 00 00 00               	mov	eax, 1
c0107167: 89 e5                        	mov	ebp, esp
c0107169: 53                           	push	ebx
c010716a: bb 0a 00 00 00               	mov	ebx, 10
c010716f: 83 ec 14                     	sub	esp, 20
c0107172: e8 46 fe ff ff               	call	0xc0106fbd <floppy_motor.constprop.0>
c0107177: b8 07 00 00 00               	mov	eax, 7
c010717c: e8 d9 fe ff ff               	call	0xc010705a <floppy_write_cmd.constprop.0>
c0107181: 31 c0                        	xor	eax, eax
c0107183: e8 d2 fe ff ff               	call	0xc010705a <floppy_write_cmd.constprop.0>
c0107188: e8 f6 fd ff ff               	call	0xc0106f83 <floppy_irq_wait>
c010718d: 8d 45 f0                     	lea	eax, [ebp - 16]
c0107190: 8d 55 f4                     	lea	edx, [ebp - 12]
c0107193: e8 0d ff ff ff               	call	0xc01070a5 <floppy_check_interrupt.constprop.0>
c0107198: 8b 45 f0                     	mov	eax, dword ptr [ebp - 16]
c010719b: 25 c0 00 00 00               	and	eax, 192
c01071a0: 0b 45 f4                     	or	eax, dword ptr [ebp - 12]
c01071a3: 74 13                        	je	0xc01071b8 <floppy_calibrate.constprop.0.isra.0+0x57>
c01071a5: 4b                           	dec	ebx
c01071a6: 75 cf                        	jne	0xc0107177 <floppy_calibrate.constprop.0.isra.0+0x16>
c01071a8: 83 ec 0c                     	sub	esp, 12
c01071ab: 68 65 af 10 c0               	push	3222318949
c01071b0: e8 ce de ff ff               	call	0xc0105083 <kprintf>
c01071b5: 83 c4 10                     	add	esp, 16
c01071b8: 8b 5d fc                     	mov	ebx, dword ptr [ebp - 4]
c01071bb: 31 c0                        	xor	eax, eax
c01071bd: c9                           	leave
c01071be: e9 fa fd ff ff               	jmp	0xc0106fbd <floppy_motor.constprop.0>

c01071c3 <floppy_reset.constprop.0.isra.0>:
c01071c3: 55                           	push	ebp
c01071c4: ba f2 03 00 00               	mov	edx, 1010
c01071c9: 31 c0                        	xor	eax, eax
c01071cb: 89 e5                        	mov	ebp, esp
c01071cd: 53                           	push	ebx
c01071ce: 83 ec 14                     	sub	esp, 20
c01071d1: ee                           	out	dx, al
c01071d2: b0 0c                        	mov	al, 12
c01071d4: ee                           	out	dx, al
c01071d5: e8 a9 fd ff ff               	call	0xc0106f83 <floppy_irq_wait>
c01071da: bb 04 00 00 00               	mov	ebx, 4
c01071df: 8d 55 f4                     	lea	edx, [ebp - 12]
c01071e2: 8d 45 f0                     	lea	eax, [ebp - 16]
c01071e5: e8 bb fe ff ff               	call	0xc01070a5 <floppy_check_interrupt.constprop.0>
c01071ea: 4b                           	dec	ebx
c01071eb: 75 f2                        	jne	0xc01071df <floppy_reset.constprop.0.isra.0+0x1c>
c01071ed: 31 c0                        	xor	eax, eax
c01071ef: ba f7 03 00 00               	mov	edx, 1015
c01071f4: ee                           	out	dx, al
c01071f5: b8 01 00 00 00               	mov	eax, 1
c01071fa: e8 be fd ff ff               	call	0xc0106fbd <floppy_motor.constprop.0>
c01071ff: b8 03 00 00 00               	mov	eax, 3
c0107204: e8 51 fe ff ff               	call	0xc010705a <floppy_write_cmd.constprop.0>
c0107209: b8 df 00 00 00               	mov	eax, 223
c010720e: e8 47 fe ff ff               	call	0xc010705a <floppy_write_cmd.constprop.0>
c0107213: b8 02 00 00 00               	mov	eax, 2
c0107218: e8 3d fe ff ff               	call	0xc010705a <floppy_write_cmd.constprop.0>
c010721d: 50                           	push	eax
c010721e: 50                           	push	eax
c010721f: 6a 00                        	push	0
c0107221: 68 00 a3 e1 11               	push	300000000
c0107226: e8 e0 d2 ff ff               	call	0xc010450b <thread_nano_sleep>
c010722b: b8 13 00 00 00               	mov	eax, 19
c0107230: e8 25 fe ff ff               	call	0xc010705a <floppy_write_cmd.constprop.0>
c0107235: 31 c0                        	xor	eax, eax
c0107237: e8 1e fe ff ff               	call	0xc010705a <floppy_write_cmd.constprop.0>
c010723c: b8 08 00 00 00               	mov	eax, 8
c0107241: e8 14 fe ff ff               	call	0xc010705a <floppy_write_cmd.constprop.0>
c0107246: 31 c0                        	xor	eax, eax
c0107248: e8 0d fe ff ff               	call	0xc010705a <floppy_write_cmd.constprop.0>
c010724d: 5a                           	pop	edx
c010724e: 59                           	pop	ecx
c010724f: 6a 00                        	push	0
c0107251: 68 00 a3 e1 11               	push	300000000
c0107256: e8 b0 d2 ff ff               	call	0xc010450b <thread_nano_sleep>
c010725b: 31 c0                        	xor	eax, eax
c010725d: e8 5b fd ff ff               	call	0xc0106fbd <floppy_motor.constprop.0>
c0107262: 8b 5d fc                     	mov	ebx, dword ptr [ebp - 4]
c0107265: 83 c4 10                     	add	esp, 16
c0107268: c9                           	leave
c0107269: e9 f3 fe ff ff               	jmp	0xc0107161 <floppy_calibrate.constprop.0.isra.0>

c010726e <floppy_do_cylinder.constprop.0>:
c010726e: 55                           	push	ebp
c010726f: 31 d2                        	xor	edx, edx
c0107271: 89 e5                        	mov	ebp, esp
c0107273: 57                           	push	edi
c0107274: 56                           	push	esi
c0107275: 53                           	push	ebx
c0107276: 83 ec 1c                     	sub	esp, 28
c0107279: 89 45 e4                     	mov	dword ptr [ebp - 28], eax
c010727c: e8 4f fe ff ff               	call	0xc01070d0 <floppy_seek.constprop.0>
c0107281: 85 c0                        	test	eax, eax
c0107283: 0f 85 78 01 00 00            	jne	0xc0107401 <floppy_do_cylinder.constprop.0+0x193>
c0107289: 8b 45 e4                     	mov	eax, dword ptr [ebp - 28]
c010728c: ba 01 00 00 00               	mov	edx, 1
c0107291: e8 3a fe ff ff               	call	0xc01070d0 <floppy_seek.constprop.0>
c0107296: 89 c7                        	mov	edi, eax
c0107298: 85 c0                        	test	eax, eax
c010729a: 0f 85 61 01 00 00            	jne	0xc0107401 <floppy_do_cylinder.constprop.0+0x193>
c01072a0: 31 db                        	xor	ebx, ebx
c01072a2: b8 01 00 00 00               	mov	eax, 1
c01072a7: e8 11 fd ff ff               	call	0xc0106fbd <floppy_motor.constprop.0>
c01072ac: 89 d8                        	mov	eax, ebx
c01072ae: b9 05 00 00 00               	mov	ecx, 5
c01072b3: 99                           	cdq
c01072b4: f7 f9                        	idiv	ecx
c01072b6: 83 fa 04                     	cmp	edx, 4
c01072b9: 0f 84 c0 00 00 00            	je	0xc010737f <floppy_do_cylinder.constprop.0+0x111>
c01072bf: b0 06                        	mov	al, 6
c01072c1: e6 0a                        	out	10, al
c01072c3: b2 ff                        	mov	dl, -1
c01072c5: 89 d0                        	mov	eax, edx
c01072c7: e6 0c                        	out	12, al
c01072c9: 31 c0                        	xor	eax, eax
c01072cb: e6 04                        	out	4, al
c01072cd: e6 04                        	out	4, al
c01072cf: b0 01                        	mov	al, 1
c01072d1: e6 81                        	out	129, al
c01072d3: 89 d0                        	mov	eax, edx
c01072d5: e6 0c                        	out	12, al
c01072d7: e6 05                        	out	5, al
c01072d9: b0 47                        	mov	al, 71
c01072db: e6 05                        	out	5, al
c01072dd: b0 46                        	mov	al, 70
c01072df: e6 0b                        	out	11, al
c01072e1: b0 02                        	mov	al, 2
c01072e3: e6 0a                        	out	10, al
c01072e5: 50                           	push	eax
c01072e6: 50                           	push	eax
c01072e7: 6a 00                        	push	0
c01072e9: 68 80 96 98 00               	push	10000000
c01072ee: e8 18 d2 ff ff               	call	0xc010450b <thread_nano_sleep>
c01072f3: b8 c6 00 00 00               	mov	eax, 198
c01072f8: e8 5d fd ff ff               	call	0xc010705a <floppy_write_cmd.constprop.0>
c01072fd: 31 c0                        	xor	eax, eax
c01072ff: e8 56 fd ff ff               	call	0xc010705a <floppy_write_cmd.constprop.0>
c0107304: 8b 45 e4                     	mov	eax, dword ptr [ebp - 28]
c0107307: e8 4e fd ff ff               	call	0xc010705a <floppy_write_cmd.constprop.0>
c010730c: 31 c0                        	xor	eax, eax
c010730e: e8 47 fd ff ff               	call	0xc010705a <floppy_write_cmd.constprop.0>
c0107313: b8 01 00 00 00               	mov	eax, 1
c0107318: e8 3d fd ff ff               	call	0xc010705a <floppy_write_cmd.constprop.0>
c010731d: b8 02 00 00 00               	mov	eax, 2
c0107322: e8 33 fd ff ff               	call	0xc010705a <floppy_write_cmd.constprop.0>
c0107327: b8 12 00 00 00               	mov	eax, 18
c010732c: e8 29 fd ff ff               	call	0xc010705a <floppy_write_cmd.constprop.0>
c0107331: b8 1b 00 00 00               	mov	eax, 27
c0107336: e8 1f fd ff ff               	call	0xc010705a <floppy_write_cmd.constprop.0>
c010733b: b8 ff 00 00 00               	mov	eax, 255
c0107340: e8 15 fd ff ff               	call	0xc010705a <floppy_write_cmd.constprop.0>
c0107345: e8 39 fc ff ff               	call	0xc0106f83 <floppy_irq_wait>
c010734a: e8 c4 fc ff ff               	call	0xc0107013 <floppy_read_data.constprop.0>
c010734f: 88 45 e3                     	mov	byte ptr [ebp - 29], al
c0107352: e8 bc fc ff ff               	call	0xc0107013 <floppy_read_data.constprop.0>
c0107357: 89 c6                        	mov	esi, eax
c0107359: e8 b5 fc ff ff               	call	0xc0107013 <floppy_read_data.constprop.0>
c010735e: e8 b0 fc ff ff               	call	0xc0107013 <floppy_read_data.constprop.0>
c0107363: e8 ab fc ff ff               	call	0xc0107013 <floppy_read_data.constprop.0>
c0107368: e8 a6 fc ff ff               	call	0xc0107013 <floppy_read_data.constprop.0>
c010736d: e8 a1 fc ff ff               	call	0xc0107013 <floppy_read_data.constprop.0>
c0107372: 83 c4 10                     	add	esp, 16
c0107375: 80 7d e3 3f                  	cmp	byte ptr [ebp - 29], 63
c0107379: 89 c2                        	mov	edx, eax
c010737b: 76 40                        	jbe	0xc01073bd <floppy_do_cylinder.constprop.0+0x14f>
c010737d: eb 61                        	jmp	0xc01073e0 <floppy_do_cylinder.constprop.0+0x172>
c010737f: 89 d8                        	mov	eax, ebx
c0107381: b9 0a 00 00 00               	mov	ecx, 10
c0107386: 99                           	cdq
c0107387: f7 f9                        	idiv	ecx
c0107389: 83 fa 08                     	cmp	edx, 8
c010738c: 75 05                        	jne	0xc0107393 <floppy_do_cylinder.constprop.0+0x125>
c010738e: e8 30 fe ff ff               	call	0xc01071c3 <floppy_reset.constprop.0.isra.0>
c0107393: e8 c9 fd ff ff               	call	0xc0107161 <floppy_calibrate.constprop.0.isra.0>
c0107398: 8b 45 e4                     	mov	eax, dword ptr [ebp - 28]
c010739b: 31 d2                        	xor	edx, edx
c010739d: e8 2e fd ff ff               	call	0xc01070d0 <floppy_seek.constprop.0>
c01073a2: 85 c0                        	test	eax, eax
c01073a4: 75 5b                        	jne	0xc0107401 <floppy_do_cylinder.constprop.0+0x193>
c01073a6: 8b 45 e4                     	mov	eax, dword ptr [ebp - 28]
c01073a9: ba 01 00 00 00               	mov	edx, 1
c01073ae: e8 1d fd ff ff               	call	0xc01070d0 <floppy_seek.constprop.0>
c01073b3: 85 c0                        	test	eax, eax
c01073b5: 0f 84 04 ff ff ff            	je	0xc01072bf <floppy_do_cylinder.constprop.0+0x51>
c01073bb: eb 44                        	jmp	0xc0107401 <floppy_do_cylinder.constprop.0+0x193>
c01073bd: 89 f0                        	mov	eax, esi
c01073bf: 84 c0                        	test	al, al
c01073c1: 78 1d                        	js	0xc01073e0 <floppy_do_cylinder.constprop.0+0x172>
c01073c3: 8a 45 e3                     	mov	al, byte ptr [ebp - 29]
c01073c6: 89 f1                        	mov	ecx, esi
c01073c8: 83 e1 30                     	and	ecx, 48
c01073cb: 83 e0 08                     	and	eax, 8
c01073ce: 08 c8                        	or	al, cl
c01073d0: 75 0e                        	jne	0xc01073e0 <floppy_do_cylinder.constprop.0+0x172>
c01073d2: 80 fa 02                     	cmp	dl, 2
c01073d5: 75 09                        	jne	0xc01073e0 <floppy_do_cylinder.constprop.0+0x172>
c01073d7: 31 c0                        	xor	eax, eax
c01073d9: e8 df fb ff ff               	call	0xc0106fbd <floppy_motor.constprop.0>
c01073de: eb 26                        	jmp	0xc0107406 <floppy_do_cylinder.constprop.0+0x198>
c01073e0: 43                           	inc	ebx
c01073e1: 83 fb 14                     	cmp	ebx, 20
c01073e4: 0f 85 b8 fe ff ff            	jne	0xc01072a2 <floppy_do_cylinder.constprop.0+0x34>
c01073ea: 83 ec 0c                     	sub	esp, 12
c01073ed: 68 80 af 10 c0               	push	3222318976
c01073f2: e8 8c dc ff ff               	call	0xc0105083 <kprintf>
c01073f7: 31 c0                        	xor	eax, eax
c01073f9: e8 bf fb ff ff               	call	0xc0106fbd <floppy_motor.constprop.0>
c01073fe: 83 c4 10                     	add	esp, 16
c0107401: bf 0a 00 00 00               	mov	edi, 10
c0107406: 8d 65 f4                     	lea	esp, [ebp - 12]
c0107409: 89 f8                        	mov	eax, edi
c010740b: 5b                           	pop	ebx
c010740c: 5e                           	pop	esi
c010740d: 5f                           	pop	edi
c010740e: 5d                           	pop	ebp
c010740f: c3                           	ret

c0107410 <floppy_io>:
c0107410: 55                           	push	ebp
c0107411: b9 01 00 00 00               	mov	ecx, 1
c0107416: 89 e5                        	mov	ebp, esp
c0107418: 57                           	push	edi
c0107419: 56                           	push	esi
c010741a: 53                           	push	ebx
c010741b: 83 ec 1c                     	sub	esp, 28
c010741e: 8b 75 0c                     	mov	esi, dword ptr [ebp + 12]
c0107421: 83 7e 0c 01                  	cmp	dword ptr [esi + 12], 1
c0107425: 0f 84 41 01 00 00            	je	0xc010756c <floppy_io+0x15c>
c010742b: 8b 45 08                     	mov	eax, dword ptr [ebp + 8]
c010742e: 31 d2                        	xor	edx, edx
c0107430: b9 07 00 00 00               	mov	ecx, 7
c0107435: 8b 78 14                     	mov	edi, dword ptr [eax + 20]
c0107438: 8b 46 08                     	mov	eax, dword ptr [esi + 8]
c010743b: f7 f7                        	div	edi
c010743d: 89 c3                        	mov	ebx, eax
c010743f: 85 d2                        	test	edx, edx
c0107441: 0f 85 25 01 00 00            	jne	0xc010756c <floppy_io+0x15c>
c0107447: 8b 46 04                     	mov	eax, dword ptr [esi + 4]
c010744a: 31 d2                        	xor	edx, edx
c010744c: f7 f7                        	div	edi
c010744e: 85 d2                        	test	edx, edx
c0107450: 0f 85 16 01 00 00            	jne	0xc010756c <floppy_io+0x15c>
c0107456: 8d 50 ff                     	lea	edx, [eax - 1]
c0107459: 81 fa fe 00 00 00            	cmp	edx, 254
c010745f: 0f 87 fe 00 00 00            	ja	0xc0107563 <floppy_io+0x153>
c0107465: 81 fb ff ff ff 0f            	cmp	ebx, 268435455
c010746b: 0f 87 f2 00 00 00            	ja	0xc0107563 <floppy_io+0x153>
c0107471: 8b 7d 08                     	mov	edi, dword ptr [ebp + 8]
c0107474: 3b 5f 10                     	cmp	ebx, dword ptr [edi + 16]
c0107477: 0f 83 ef 00 00 00            	jae	0xc010756c <floppy_io+0x15c>
c010747d: 01 d8                        	add	eax, ebx
c010747f: 89 df                        	mov	edi, ebx
c0107481: 89 45 dc                     	mov	dword ptr [ebp - 36], eax
c0107484: 89 f8                        	mov	eax, edi
c0107486: b9 24 00 00 00               	mov	ecx, 36
c010748b: 99                           	cdq
c010748c: f7 f9                        	idiv	ecx
c010748e: b9 12 00 00 00               	mov	ecx, 18
c0107493: 89 c3                        	mov	ebx, eax
c0107495: 89 d0                        	mov	eax, edx
c0107497: 99                           	cdq
c0107498: f7 f9                        	idiv	ecx
c010749a: 89 45 e4                     	mov	dword ptr [ebp - 28], eax
c010749d: 89 f8                        	mov	eax, edi
c010749f: 99                           	cdq
c01074a0: f7 f9                        	idiv	ecx
c01074a2: 89 55 e0                     	mov	dword ptr [ebp - 32], edx
c01074a5: 85 db                        	test	ebx, ebx
c01074a7: 75 69                        	jne	0xc0107512 <floppy_io+0x102>
c01074a9: 80 3d 78 0e 11 c0 00         	cmp	byte ptr [-1072624008], 0
c01074b0: 75 3a                        	jne	0xc01074ec <floppy_io+0xdc>
c01074b2: 31 c0                        	xor	eax, eax
c01074b4: c6 05 78 0e 11 c0 01         	mov	byte ptr [-1072624008], 1
c01074bb: e8 ae fd ff ff               	call	0xc010726e <floppy_do_cylinder.constprop.0>
c01074c0: 89 c1                        	mov	ecx, eax
c01074c2: 85 c0                        	test	eax, eax
c01074c4: 0f 85 a2 00 00 00            	jne	0xc010756c <floppy_io+0x15c>
c01074ca: 51                           	push	ecx
c01074cb: 31 db                        	xor	ebx, ebx
c01074cd: 68 00 48 00 00               	push	18432
c01074d2: ff 35 80 0e 11 c0            	push	dword ptr [-1072624000]
c01074d8: ff 35 7c 0e 11 c0            	push	dword ptr [-1072624004]
c01074de: e8 51 9d ff ff               	call	0xc0101234 <memcpy>
c01074e3: 89 1d 2c c0 10 c0            	mov	dword ptr [-1072644052], ebx
c01074e9: 83 c4 10                     	add	esp, 16
c01074ec: 52                           	push	edx
c01074ed: 8b 45 08                     	mov	eax, dword ptr [ebp + 8]
c01074f0: ff 70 14                     	push	dword ptr [eax + 20]
c01074f3: 56                           	push	esi
c01074f4: 8b 45 e4                     	mov	eax, dword ptr [ebp - 28]
c01074f7: 8b 5d e0                     	mov	ebx, dword ptr [ebp - 32]
c01074fa: f7 d8                        	neg	eax
c01074fc: 83 e0 12                     	and	eax, 18
c01074ff: 01 d8                        	add	eax, ebx
c0107501: c1 e0 09                     	shl	eax, 9
c0107504: 03 05 7c 0e 11 c0            	add	eax, dword ptr [-1072624004]
c010750a: 50                           	push	eax
c010750b: e8 d4 e2 ff ff               	call	0xc01057e4 <uio_move>
c0107510: eb 32                        	jmp	0xc0107544 <floppy_io+0x134>
c0107512: 39 1d 2c c0 10 c0            	cmp	dword ptr [-1072644052], ebx
c0107518: 75 3a                        	jne	0xc0107554 <floppy_io+0x144>
c010751a: 50                           	push	eax
c010751b: 8b 45 08                     	mov	eax, dword ptr [ebp + 8]
c010751e: ff 70 14                     	push	dword ptr [eax + 20]
c0107521: 56                           	push	esi
c0107522: 8b 45 e4                     	mov	eax, dword ptr [ebp - 28]
c0107525: 8b 55 e0                     	mov	edx, dword ptr [ebp - 32]
c0107528: f7 d8                        	neg	eax
c010752a: 83 e0 12                     	and	eax, 18
c010752d: 01 d0                        	add	eax, edx
c010752f: c1 e0 09                     	shl	eax, 9
c0107532: 03 05 80 0e 11 c0            	add	eax, dword ptr [-1072624000]
c0107538: 50                           	push	eax
c0107539: e8 a6 e2 ff ff               	call	0xc01057e4 <uio_move>
c010753e: 89 1d 2c c0 10 c0            	mov	dword ptr [-1072644052], ebx
c0107544: 8b 45 dc                     	mov	eax, dword ptr [ebp - 36]
c0107547: 83 c4 10                     	add	esp, 16
c010754a: 39 c7                        	cmp	edi, eax
c010754c: 74 1c                        	je	0xc010756a <floppy_io+0x15a>
c010754e: 47                           	inc	edi
c010754f: e9 30 ff ff ff               	jmp	0xc0107484 <floppy_io+0x74>
c0107554: 89 d8                        	mov	eax, ebx
c0107556: e8 13 fd ff ff               	call	0xc010726e <floppy_do_cylinder.constprop.0>
c010755b: 89 c1                        	mov	ecx, eax
c010755d: 85 c0                        	test	eax, eax
c010755f: 74 b9                        	je	0xc010751a <floppy_io+0x10a>
c0107561: eb 09                        	jmp	0xc010756c <floppy_io+0x15c>
c0107563: b9 07 00 00 00               	mov	ecx, 7
c0107568: eb 02                        	jmp	0xc010756c <floppy_io+0x15c>
c010756a: 31 c9                        	xor	ecx, ecx
c010756c: 8d 65 f4                     	lea	esp, [ebp - 12]
c010756f: 89 c8                        	mov	eax, ecx
c0107571: 5b                           	pop	ebx
c0107572: 5e                           	pop	esi
c0107573: 5f                           	pop	edi
c0107574: 5d                           	pop	ebp
c0107575: c3                           	ret

c0107576 <floppy_initialise>:
c0107576: 55                           	push	ebp
c0107577: 89 e5                        	mov	ebp, esp
c0107579: 53                           	push	ebx
c010757a: 83 ec 10                     	sub	esp, 16
c010757d: 68 00 48 00 00               	push	18432
c0107582: e8 7e ae ff ff               	call	0xc0102405 <malloc>
c0107587: 5b                           	pop	ebx
c0107588: 31 c9                        	xor	ecx, ecx
c010758a: 31 d2                        	xor	edx, edx
c010758c: a3 7c 0e 11 c0               	mov	dword ptr [3222343292], eax
c0107591: 58                           	pop	eax
c0107592: 31 db                        	xor	ebx, ebx
c0107594: 68 7f a7 10 c0               	push	3222316927
c0107599: 68 84 0e 11 c0               	push	3222343300
c010759e: 89 0d 90 0e 11 c0            	mov	dword ptr [-1072623984], ecx
c01075a4: 89 15 9c 0e 11 c0            	mov	dword ptr [-1072623972], edx
c01075aa: c7 05 98 0e 11 c0 00 02 00 00	mov	dword ptr [-1072623976], 512
c01075b4: c7 05 94 0e 11 c0 40 0b 00 00	mov	dword ptr [-1072623980], 2880
c01075be: c7 05 8c 0e 11 c0 10 74 10 c0	mov	dword ptr [-1072623988], 3222303760
c01075c8: c7 05 84 0e 11 c0 dd 19 10 c0	mov	dword ptr [-1072623996], 3222280669
c01075d2: c7 05 88 0e 11 c0 e0 19 10 c0	mov	dword ptr [-1072623992], 3222280672
c01075dc: e8 07 ec ff ff               	call	0xc01061e8 <vfs_add_device>
c01075e1: 58                           	pop	eax
c01075e2: 5a                           	pop	edx
c01075e3: 68 31 6f 10 c0               	push	3222302513
c01075e8: 6a 26                        	push	38
c01075ea: e8 55 0f 00 00               	call	0xc0108544 <x86_register_interrupt_handler>
c01075ef: c7 04 24 00 48 00 00         	mov	dword ptr [esp], 18432
c01075f6: e8 62 b7 ff ff               	call	0xc0102d5d <virt_allocate_unbacked_krnl_region>
c01075fb: 83 c4 10                     	add	esp, 16
c01075fe: a3 80 0e 11 c0               	mov	dword ptr [3222343296], eax
c0107603: a1 80 0e 11 c0               	mov	eax, dword ptr [3222343296]
c0107608: 6a 21                        	push	33
c010760a: 01 d8                        	add	eax, ebx
c010760c: 50                           	push	eax
c010760d: 8d 83 00 00 01 00            	lea	eax, [ebx + 65536]
c0107613: 81 c3 00 10 00 00            	add	ebx, 4096
c0107619: 50                           	push	eax
c010761a: a1 18 0e 11 c0               	mov	eax, dword ptr [3222343192]
c010761f: ff 70 04                     	push	dword ptr [eax + 4]
c0107622: e8 d1 b4 ff ff               	call	0xc0102af8 <vas_map>
c0107627: 83 c4 10                     	add	esp, 16
c010762a: 81 fb 00 50 00 00            	cmp	ebx, 20480
c0107630: 75 d1                        	jne	0xc0107603 <floppy_initialise+0x8d>
c0107632: 50                           	push	eax
c0107633: a1 18 0e 11 c0               	mov	eax, dword ptr [3222343192]
c0107638: ff 70 04                     	push	dword ptr [eax + 4]
c010763b: 6a 00                        	push	0
c010763d: 68 3b 6f 10 c0               	push	3222302523
c0107642: e8 63 cb ff ff               	call	0xc01041aa <thread_create>
c0107647: 8b 5d fc                     	mov	ebx, dword ptr [ebp - 4]
c010764a: 83 c4 10                     	add	esp, 16
c010764d: c9                           	leave
c010764e: e9 70 fb ff ff               	jmp	0xc01071c3 <floppy_reset.constprop.0.isra.0>

c0107653 <ide_check_errors>:
c0107653: 55                           	push	ebp
c0107654: b8 70 01 00 00               	mov	eax, 368
c0107659: ba f0 01 00 00               	mov	edx, 496
c010765e: 89 e5                        	mov	ebp, esp
c0107660: 83 ec 08                     	sub	esp, 8
c0107663: 83 7d 08 01                  	cmp	dword ptr [ebp + 8], 1
c0107667: 0f 4f d0                     	cmovg	edx, eax
c010766a: 83 c2 07                     	add	edx, 7
c010766d: ec                           	in	al, dx
c010766e: a8 01                        	test	al, 1
c0107670: 74 0a                        	je	0xc010767c <ide_check_errors+0x29>
c0107672: 83 ec 0c                     	sub	esp, 12
c0107675: 68 96 af 10 c0               	push	3222318998
c010767a: eb 0c                        	jmp	0xc0107688 <ide_check_errors+0x35>
c010767c: a8 20                        	test	al, 32
c010767e: 74 17                        	je	0xc0107697 <ide_check_errors+0x44>
c0107680: 83 ec 0c                     	sub	esp, 12
c0107683: 68 a1 af 10 c0               	push	3222319009
c0107688: e8 f6 d9 ff ff               	call	0xc0105083 <kprintf>
c010768d: 83 c4 10                     	add	esp, 16
c0107690: ba 0a 00 00 00               	mov	edx, 10
c0107695: eb 10                        	jmp	0xc01076a7 <ide_check_errors+0x54>
c0107697: 31 d2                        	xor	edx, edx
c0107699: a8 08                        	test	al, 8
c010769b: 75 0a                        	jne	0xc01076a7 <ide_check_errors+0x54>
c010769d: 83 ec 0c                     	sub	esp, 12
c01076a0: 68 ac af 10 c0               	push	3222319020
c01076a5: eb e1                        	jmp	0xc0107688 <ide_check_errors+0x35>
c01076a7: c9                           	leave
c01076a8: 89 d0                        	mov	eax, edx
c01076aa: c3                           	ret

c01076ab <ide_poll>:
c01076ab: 55                           	push	ebp
c01076ac: b8 70 01 00 00               	mov	eax, 368
c01076b1: ba f6 03 00 00               	mov	edx, 1014
c01076b6: 89 e5                        	mov	ebp, esp
c01076b8: 53                           	push	ebx
c01076b9: bb f0 01 00 00               	mov	ebx, 496
c01076be: 83 ec 14                     	sub	esp, 20
c01076c1: 83 7d 08 02                  	cmp	dword ptr [ebp + 8], 2
c01076c5: 0f 4d d8                     	cmovge	ebx, eax
c01076c8: b8 76 03 00 00               	mov	eax, 886
c01076cd: 0f 4d d0                     	cmovge	edx, eax
c01076d0: ec                           	in	al, dx
c01076d1: ec                           	in	al, dx
c01076d2: ec                           	in	al, dx
c01076d3: ec                           	in	al, dx
c01076d4: 31 c9                        	xor	ecx, ecx
c01076d6: 8d 53 07                     	lea	edx, [ebx + 7]
c01076d9: ec                           	in	al, dx
c01076da: 84 c0                        	test	al, al
c01076dc: 79 31                        	jns	0xc010770f <ide_poll+0x64>
c01076de: 81 f9 82 86 01 00            	cmp	ecx, 99970
c01076e4: 8d 49 01                     	lea	ecx, [ecx + 1]
c01076e7: 7e ed                        	jle	0xc01076d6 <ide_poll+0x2b>
c01076e9: 50                           	push	eax
c01076ea: 50                           	push	eax
c01076eb: 6a 00                        	push	0
c01076ed: 68 80 96 98 00               	push	10000000
c01076f2: 89 4d f4                     	mov	dword ptr [ebp - 12], ecx
c01076f5: e8 11 ce ff ff               	call	0xc010450b <thread_nano_sleep>
c01076fa: 8b 4d f4                     	mov	ecx, dword ptr [ebp - 12]
c01076fd: 83 c4 10                     	add	esp, 16
c0107700: 81 f9 a2 86 01 00            	cmp	ecx, 100002
c0107706: 75 ce                        	jne	0xc01076d6 <ide_poll+0x2b>
c0107708: b8 0a 00 00 00               	mov	eax, 10
c010770d: eb 02                        	jmp	0xc0107711 <ide_poll+0x66>
c010770f: 31 c0                        	xor	eax, eax
c0107711: 8b 5d fc                     	mov	ebx, dword ptr [ebp - 4]
c0107714: c9                           	leave
c0107715: c3                           	ret

c0107716 <ide_io>:
c0107716: 55                           	push	ebp
c0107717: 31 d2                        	xor	edx, edx
c0107719: 89 e5                        	mov	ebp, esp
c010771b: 57                           	push	edi
c010771c: 56                           	push	esi
c010771d: 53                           	push	ebx
c010771e: bb 07 00 00 00               	mov	ebx, 7
c0107723: 83 ec 3c                     	sub	esp, 60
c0107726: 8b 45 08                     	mov	eax, dword ptr [ebp + 8]
c0107729: 8b 7d 0c                     	mov	edi, dword ptr [ebp + 12]
c010772c: 8b 48 14                     	mov	ecx, dword ptr [eax + 20]
c010772f: 8b 47 08                     	mov	eax, dword ptr [edi + 8]
c0107732: f7 f1                        	div	ecx
c0107734: 89 45 d8                     	mov	dword ptr [ebp - 40], eax
c0107737: 85 d2                        	test	edx, edx
c0107739: 0f 85 5e 02 00 00            	jne	0xc010799d <ide_io+0x287>
c010773f: 8b 47 04                     	mov	eax, dword ptr [edi + 4]
c0107742: 31 d2                        	xor	edx, edx
c0107744: f7 f1                        	div	ecx
c0107746: 85 d2                        	test	edx, edx
c0107748: 0f 85 4f 02 00 00            	jne	0xc010799d <ide_io+0x287>
c010774e: 89 45 e0                     	mov	dword ptr [ebp - 32], eax
c0107751: 85 c0                        	test	eax, eax
c0107753: 0f 8e 3f 02 00 00            	jle	0xc0107998 <ide_io+0x282>
c0107759: 81 7d d8 ff ff ff 0f         	cmp	dword ptr [ebp - 40], 268435455
c0107760: 0f 87 32 02 00 00            	ja	0xc0107998 <ide_io+0x282>
c0107766: 8b 75 08                     	mov	esi, dword ptr [ebp + 8]
c0107769: 31 d2                        	xor	edx, edx
c010776b: 8b 45 e0                     	mov	eax, dword ptr [ebp - 32]
c010776e: 03 45 d8                     	add	eax, dword ptr [ebp - 40]
c0107771: 8b 4e 10                     	mov	ecx, dword ptr [esi + 16]
c0107774: 83 d2 00                     	adc	edx, 0
c0107777: 31 db                        	xor	ebx, ebx
c0107779: 39 c8                        	cmp	eax, ecx
c010777b: 89 d0                        	mov	eax, edx
c010777d: 19 d8                        	sbb	eax, ebx
c010777f: bb 07 00 00 00               	mov	ebx, 7
c0107784: 0f 83 13 02 00 00            	jae	0xc010799d <ide_io+0x287>
c010778a: 8b 5e 18                     	mov	ebx, dword ptr [esi + 24]
c010778d: 83 ec 0c                     	sub	esp, 12
c0107790: 8b 03                        	mov	eax, dword ptr [ebx]
c0107792: 89 45 e4                     	mov	dword ptr [ebp - 28], eax
c0107795: 8b 43 04                     	mov	eax, dword ptr [ebx + 4]
c0107798: 89 45 dc                     	mov	dword ptr [ebp - 36], eax
c010779b: ff 35 ac 0e 11 c0            	push	dword ptr [-1072623956]
c01077a1: e8 29 c4 ff ff               	call	0xc0103bcf <semaphore_acquire>
c01077a6: 83 c4 10                     	add	esp, 16
c01077a9: 83 7d e4 01                  	cmp	dword ptr [ebp - 28], 1
c01077ad: 7e 08                        	jle	0xc01077b7 <ide_io+0xa1>
c01077af: 8b 73 10                     	mov	esi, dword ptr [ebx + 16]
c01077b2: 8b 43 14                     	mov	eax, dword ptr [ebx + 20]
c01077b5: eb 06                        	jmp	0xc01077bd <ide_io+0xa7>
c01077b7: 8b 73 08                     	mov	esi, dword ptr [ebx + 8]
c01077ba: 8b 43 0c                     	mov	eax, dword ptr [ebx + 12]
c01077bd: 66 89 45 d2                  	mov	word ptr [ebp - 46], ax
c01077c1: 8b 45 d8                     	mov	eax, dword ptr [ebp - 40]
c01077c4: 89 45 d4                     	mov	dword ptr [ebp - 44], eax
c01077c7: 8a 45 e4                     	mov	al, byte ptr [ebp - 28]
c01077ca: c1 e0 04                     	shl	eax, 4
c01077cd: 83 e0 10                     	and	eax, 16
c01077d0: 88 45 d1                     	mov	byte ptr [ebp - 47], al
c01077d3: b8 ff 00 00 00               	mov	eax, 255
c01077d8: 39 45 e0                     	cmp	dword ptr [ebp - 32], eax
c01077db: 0f 4e 45 e0                  	cmovle	eax, dword ptr [ebp - 32]
c01077df: 83 7f 0c 01                  	cmp	dword ptr [edi + 12], 1
c01077e3: 89 45 d8                     	mov	dword ptr [ebp - 40], eax
c01077e6: 75 13                        	jne	0xc01077fb <ide_io+0xe5>
c01077e8: 52                           	push	edx
c01077e9: 8b 45 08                     	mov	eax, dword ptr [ebp + 8]
c01077ec: ff 70 14                     	push	dword ptr [eax + 20]
c01077ef: 57                           	push	edi
c01077f0: ff 75 dc                     	push	dword ptr [ebp - 36]
c01077f3: e8 ec df ff ff               	call	0xc01057e4 <uio_move>
c01077f8: 83 c4 10                     	add	esp, 16
c01077fb: 8b 45 d4                     	mov	eax, dword ptr [ebp - 44]
c01077fe: 8d 56 06                     	lea	edx, [esi + 6]
c0107801: c1 f8 18                     	sar	eax, 24
c0107804: 83 e0 0f                     	and	eax, 15
c0107807: 0a 45 d1                     	or	al, byte ptr [ebp - 47]
c010780a: 83 c8 e0                     	or	eax, -32
c010780d: ee                           	out	dx, al
c010780e: b0 02                        	mov	al, 2
c0107810: 66 8b 55 d2                  	mov	dx, word ptr [ebp - 46]
c0107814: ee                           	out	dx, al
c0107815: 31 c0                        	xor	eax, eax
c0107817: 8d 56 01                     	lea	edx, [esi + 1]
c010781a: ee                           	out	dx, al
c010781b: 8a 45 d8                     	mov	al, byte ptr [ebp - 40]
c010781e: 8d 56 02                     	lea	edx, [esi + 2]
c0107821: ee                           	out	dx, al
c0107822: 8a 45 d4                     	mov	al, byte ptr [ebp - 44]
c0107825: 8d 56 03                     	lea	edx, [esi + 3]
c0107828: ee                           	out	dx, al
c0107829: 8b 45 d4                     	mov	eax, dword ptr [ebp - 44]
c010782c: 8d 56 04                     	lea	edx, [esi + 4]
c010782f: c1 f8 08                     	sar	eax, 8
c0107832: ee                           	out	dx, al
c0107833: 8b 45 d4                     	mov	eax, dword ptr [ebp - 44]
c0107836: 8d 56 05                     	lea	edx, [esi + 5]
c0107839: c1 f8 10                     	sar	eax, 16
c010783c: ee                           	out	dx, al
c010783d: ba 30 00 00 00               	mov	edx, 48
c0107842: 8d 4e 07                     	lea	ecx, [esi + 7]
c0107845: 83 7f 0c 01                  	cmp	dword ptr [edi + 12], 1
c0107849: b8 20 00 00 00               	mov	eax, 32
c010784e: 0f 44 c2                     	cmove	eax, edx
c0107851: 66 89 4d be                  	mov	word ptr [ebp - 66], cx
c0107855: 89 ca                        	mov	edx, ecx
c0107857: ee                           	out	dx, al
c0107858: 83 ec 0c                     	sub	esp, 12
c010785b: ff 75 e4                     	push	dword ptr [ebp - 28]
c010785e: e8 48 fe ff ff               	call	0xc01076ab <ide_poll>
c0107863: 83 c4 10                     	add	esp, 16
c0107866: 83 7f 0c 01                  	cmp	dword ptr [edi + 12], 1
c010786a: 75 7b                        	jne	0xc01078e7 <ide_io+0x1d1>
c010786c: 31 c0                        	xor	eax, eax
c010786e: 89 45 c0                     	mov	dword ptr [ebp - 64], eax
c0107871: 8b 45 08                     	mov	eax, dword ptr [ebp + 8]
c0107874: 31 c9                        	xor	ecx, ecx
c0107876: 31 db                        	xor	ebx, ebx
c0107878: 8b 40 14                     	mov	eax, dword ptr [eax + 20]
c010787b: d1 e8                        	shr	eax
c010787d: 89 45 c8                     	mov	dword ptr [ebp - 56], eax
c0107880: 31 c0                        	xor	eax, eax
c0107882: 89 45 cc                     	mov	dword ptr [ebp - 52], eax
c0107885: 8b 45 c8                     	mov	eax, dword ptr [ebp - 56]
c0107888: 39 c1                        	cmp	ecx, eax
c010788a: 89 d8                        	mov	eax, ebx
c010788c: 1b 45 cc                     	sbb	eax, dword ptr [ebp - 52]
c010788f: 73 13                        	jae	0xc01078a4 <ide_io+0x18e>
c0107891: 8b 55 dc                     	mov	edx, dword ptr [ebp - 36]
c0107894: 66 8b 04 4a                  	mov	ax, word ptr [edx + 2*ecx]
c0107898: 89 f2                        	mov	edx, esi
c010789a: 66 ef                        	out	dx, ax
c010789c: 83 c1 01                     	add	ecx, 1
c010789f: 83 d3 00                     	adc	ebx, 0
c01078a2: eb e1                        	jmp	0xc0107885 <ide_io+0x16f>
c01078a4: ff 45 c0                     	inc	dword ptr [ebp - 64]
c01078a7: 8b 5d c0                     	mov	ebx, dword ptr [ebp - 64]
c01078aa: 39 5d d8                     	cmp	dword ptr [ebp - 40], ebx
c01078ad: 74 1e                        	je	0xc01078cd <ide_io+0x1b7>
c01078af: 50                           	push	eax
c01078b0: 8b 45 08                     	mov	eax, dword ptr [ebp + 8]
c01078b3: ff 70 14                     	push	dword ptr [eax + 20]
c01078b6: 57                           	push	edi
c01078b7: ff 75 dc                     	push	dword ptr [ebp - 36]
c01078ba: e8 25 df ff ff               	call	0xc01057e4 <uio_move>
c01078bf: 58                           	pop	eax
c01078c0: ff 75 e4                     	push	dword ptr [ebp - 28]
c01078c3: e8 e3 fd ff ff               	call	0xc01076ab <ide_poll>
c01078c8: 83 c4 10                     	add	esp, 16
c01078cb: eb a4                        	jmp	0xc0107871 <ide_io+0x15b>
c01078cd: 66 8b 55 be                  	mov	dx, word ptr [ebp - 66]
c01078d1: b0 e7                        	mov	al, -25
c01078d3: ee                           	out	dx, al
c01078d4: 83 ec 0c                     	sub	esp, 12
c01078d7: ff 75 e4                     	push	dword ptr [ebp - 28]
c01078da: e8 cc fd ff ff               	call	0xc01076ab <ide_poll>
c01078df: 83 c4 10                     	add	esp, 16
c01078e2: e9 89 00 00 00               	jmp	0xc0107970 <ide_io+0x25a>
c01078e7: 83 ec 0c                     	sub	esp, 12
c01078ea: ff 75 e4                     	push	dword ptr [ebp - 28]
c01078ed: e8 61 fd ff ff               	call	0xc0107653 <ide_check_errors>
c01078f2: 83 c4 10                     	add	esp, 16
c01078f5: 89 c3                        	mov	ebx, eax
c01078f7: 85 c0                        	test	eax, eax
c01078f9: 74 38                        	je	0xc0107933 <ide_io+0x21d>
c01078fb: 83 ec 0c                     	sub	esp, 12
c01078fe: ff 35 ac 0e 11 c0            	push	dword ptr [-1072623956]
c0107904: e8 85 c3 ff ff               	call	0xc0103c8e <semaphore_release>
c0107909: 83 c4 10                     	add	esp, 16
c010790c: e9 8c 00 00 00               	jmp	0xc010799d <ide_io+0x287>
c0107911: 52                           	push	edx
c0107912: 43                           	inc	ebx
c0107913: 50                           	push	eax
c0107914: 57                           	push	edi
c0107915: ff 75 dc                     	push	dword ptr [ebp - 36]
c0107918: e8 c7 de ff ff               	call	0xc01057e4 <uio_move>
c010791d: 83 c4 10                     	add	esp, 16
c0107920: 39 5d d8                     	cmp	dword ptr [ebp - 40], ebx
c0107923: 74 4b                        	je	0xc0107970 <ide_io+0x25a>
c0107925: 83 ec 0c                     	sub	esp, 12
c0107928: ff 75 e4                     	push	dword ptr [ebp - 28]
c010792b: e8 7b fd ff ff               	call	0xc01076ab <ide_poll>
c0107930: 83 c4 10                     	add	esp, 16
c0107933: 31 c0                        	xor	eax, eax
c0107935: 89 45 c8                     	mov	dword ptr [ebp - 56], eax
c0107938: 89 45 cc                     	mov	dword ptr [ebp - 52], eax
c010793b: 8b 45 08                     	mov	eax, dword ptr [ebp + 8]
c010793e: 31 c9                        	xor	ecx, ecx
c0107940: 89 4d c4                     	mov	dword ptr [ebp - 60], ecx
c0107943: 8b 4d cc                     	mov	ecx, dword ptr [ebp - 52]
c0107946: 8b 40 14                     	mov	eax, dword ptr [eax + 20]
c0107949: 89 c2                        	mov	edx, eax
c010794b: d1 ea                        	shr	edx
c010794d: 39 55 c8                     	cmp	dword ptr [ebp - 56], edx
c0107950: 1b 4d c4                     	sbb	ecx, dword ptr [ebp - 60]
c0107953: 89 55 c0                     	mov	dword ptr [ebp - 64], edx
c0107956: 73 b9                        	jae	0xc0107911 <ide_io+0x1fb>
c0107958: 89 f2                        	mov	edx, esi
c010795a: 66 ed                        	in	ax, dx
c010795c: 8b 55 c8                     	mov	edx, dword ptr [ebp - 56]
c010795f: 8b 4d dc                     	mov	ecx, dword ptr [ebp - 36]
c0107962: 83 45 c8 01                  	add	dword ptr [ebp - 56], 1
c0107966: 66 89 04 51                  	mov	word ptr [ecx + 2*edx], ax
c010796a: 83 55 cc 00                  	adc	dword ptr [ebp - 52], 0
c010796e: eb cb                        	jmp	0xc010793b <ide_io+0x225>
c0107970: 8b 5d d8                     	mov	ebx, dword ptr [ebp - 40]
c0107973: 29 5d e0                     	sub	dword ptr [ebp - 32], ebx
c0107976: 01 5d d4                     	add	dword ptr [ebp - 44], ebx
c0107979: 83 7d e0 00                  	cmp	dword ptr [ebp - 32], 0
c010797d: 0f 8f 50 fe ff ff            	jg	0xc01077d3 <ide_io+0xbd>
c0107983: 83 ec 0c                     	sub	esp, 12
c0107986: ff 35 ac 0e 11 c0            	push	dword ptr [-1072623956]
c010798c: 31 db                        	xor	ebx, ebx
c010798e: e8 fb c2 ff ff               	call	0xc0103c8e <semaphore_release>
c0107993: 83 c4 10                     	add	esp, 16
c0107996: eb 05                        	jmp	0xc010799d <ide_io+0x287>
c0107998: bb 07 00 00 00               	mov	ebx, 7
c010799d: 8d 65 f4                     	lea	esp, [ebp - 12]
c01079a0: 89 d8                        	mov	eax, ebx
c01079a2: 5b                           	pop	ebx
c01079a3: 5e                           	pop	esi
c01079a4: 5f                           	pop	edi
c01079a5: 5d                           	pop	ebp
c01079a6: c3                           	ret

c01079a7 <ide_initialise>:
c01079a7: 55                           	push	ebp
c01079a8: 89 e5                        	mov	ebp, esp
c01079aa: 57                           	push	edi
c01079ab: 56                           	push	esi
c01079ac: 53                           	push	ebx
c01079ad: 83 ec 1c                     	sub	esp, 28
c01079b0: 83 3d ac 0e 11 c0 00         	cmp	dword ptr [-1072623956], 0
c01079b7: 75 12                        	jne	0xc01079cb <ide_initialise+0x24>
c01079b9: 83 ec 0c                     	sub	esp, 12
c01079bc: 6a 01                        	push	1
c01079be: e8 e6 c1 ff ff               	call	0xc0103ba9 <semaphore_create>
c01079c3: 83 c4 10                     	add	esp, 16
c01079c6: a3 ac 0e 11 c0               	mov	dword ptr [3222343340], eax
c01079cb: 83 ec 0c                     	sub	esp, 12
c01079ce: 6a 1c                        	push	28
c01079d0: e8 30 aa ff ff               	call	0xc0102405 <malloc>
c01079d5: 89 c3                        	mov	ebx, eax
c01079d7: 31 c0                        	xor	eax, eax
c01079d9: 89 03                        	mov	dword ptr [ebx], eax
c01079db: c7 04 24 00 10 00 00         	mov	dword ptr [esp], 4096
c01079e2: e8 1e aa ff ff               	call	0xc0102405 <malloc>
c01079e7: 31 d2                        	xor	edx, edx
c01079e9: c7 43 08 f0 01 00 00         	mov	dword ptr [ebx + 8], 496
c01079f0: 89 43 04                     	mov	dword ptr [ebx + 4], eax
c01079f3: c7 43 0c f6 03 00 00         	mov	dword ptr [ebx + 12], 1014
c01079fa: c7 43 10 70 01 00 00         	mov	dword ptr [ebx + 16], 368
c0107a01: c7 43 14 76 03 00 00         	mov	dword ptr [ebx + 20], 886
c0107a08: 89 15 bc 0e 11 c0            	mov	dword ptr [-1072623940], edx
c0107a0e: 89 1d c8 0e 11 c0            	mov	dword ptr [-1072623928], ebx
c0107a14: c7 05 c4 0e 11 c0 00 02 00 00	mov	dword ptr [-1072623932], 512
c0107a1e: 8b 3b                        	mov	edi, dword ptr [ebx]
c0107a20: bb f0 01 00 00               	mov	ebx, 496
c0107a25: 59                           	pop	ecx
c0107a26: ff 35 ac 0e 11 c0            	push	dword ptr [-1072623956]
c0107a2c: e8 9e c1 ff ff               	call	0xc0103bcf <semaphore_acquire>
c0107a31: 83 ff 02                     	cmp	edi, 2
c0107a34: b8 70 01 00 00               	mov	eax, 368
c0107a39: 0f 4d d8                     	cmovge	ebx, eax
c0107a3c: 89 f8                        	mov	eax, edi
c0107a3e: c1 e0 04                     	shl	eax, 4
c0107a41: 8d 73 06                     	lea	esi, [ebx + 6]
c0107a44: 83 e0 10                     	and	eax, 16
c0107a47: 83 c8 e0                     	or	eax, -32
c0107a4a: 89 f2                        	mov	edx, esi
c0107a4c: ee                           	out	dx, al
c0107a4d: b0 f8                        	mov	al, -8
c0107a4f: 8d 53 07                     	lea	edx, [ebx + 7]
c0107a52: ee                           	out	dx, al
c0107a53: 89 3c 24                     	mov	dword ptr [esp], edi
c0107a56: e8 50 fc ff ff               	call	0xc01076ab <ide_poll>
c0107a5b: 8d 53 03                     	lea	edx, [ebx + 3]
c0107a5e: ec                           	in	al, dx
c0107a5f: 88 45 e7                     	mov	byte ptr [ebp - 25], al
c0107a62: 8d 53 04                     	lea	edx, [ebx + 4]
c0107a65: ec                           	in	al, dx
c0107a66: 0f b6 c8                     	movzx	ecx, al
c0107a69: 8d 53 05                     	lea	edx, [ebx + 5]
c0107a6c: ec                           	in	al, dx
c0107a6d: 0f b6 c0                     	movzx	eax, al
c0107a70: c1 e1 08                     	shl	ecx, 8
c0107a73: 89 f2                        	mov	edx, esi
c0107a75: c1 e0 10                     	shl	eax, 16
c0107a78: 09 c1                        	or	ecx, eax
c0107a7a: 0f b6 45 e7                  	movzx	eax, byte ptr [ebp - 25]
c0107a7e: 09 c1                        	or	ecx, eax
c0107a80: ec                           	in	al, dx
c0107a81: 89 c3                        	mov	ebx, eax
c0107a83: 5e                           	pop	esi
c0107a84: ff 35 ac 0e 11 c0            	push	dword ptr [-1072623956]
c0107a8a: c1 e3 18                     	shl	ebx, 24
c0107a8d: 81 e3 00 00 00 0f            	and	ebx, 251658240
c0107a93: 09 cb                        	or	ebx, ecx
c0107a95: e8 f4 c1 ff ff               	call	0xc0103c8e <semaphore_release>
c0107a9a: 89 1d c0 0e 11 c0            	mov	dword ptr [-1072623936], ebx
c0107aa0: c7 05 b8 0e 11 c0 16 77 10 c0	mov	dword ptr [-1072623944], 3222304534
c0107aaa: c7 05 b0 0e 11 c0 dd 19 10 c0	mov	dword ptr [-1072623952], 3222280669
c0107ab4: c7 05 b4 0e 11 c0 e0 19 10 c0	mov	dword ptr [-1072623948], 3222280672
c0107abe: 5f                           	pop	edi
c0107abf: 58                           	pop	eax
c0107ac0: 68 7f a7 10 c0               	push	3222316927
c0107ac5: 68 b0 0e 11 c0               	push	3222343344
c0107aca: e8 19 e7 ff ff               	call	0xc01061e8 <vfs_add_device>
c0107acf: 83 c4 10                     	add	esp, 16
c0107ad2: 8d 65 f4                     	lea	esp, [ebp - 12]
c0107ad5: 5b                           	pop	ebx
c0107ad6: 5e                           	pop	esi
c0107ad7: 5f                           	pop	edi
c0107ad8: 5d                           	pop	ebp
c0107ad9: c3                           	ret

c0107ada <pic_is_spurious>:
c0107ada: 55                           	push	ebp
c0107adb: 89 e5                        	mov	ebp, esp
c0107add: 8b 45 08                     	mov	eax, dword ptr [ebp + 8]
c0107ae0: 83 f8 27                     	cmp	eax, 39
c0107ae3: 75 20                        	jne	0xc0107b05 <pic_is_spurious+0x2b>
c0107ae5: b0 0b                        	mov	al, 11
c0107ae7: e6 20                        	out	32, al
c0107ae9: e6 a0                        	out	160, al
c0107aeb: e4 a0                        	in	al, 160
c0107aed: 89 c2                        	mov	edx, eax
c0107aef: e4 20                        	in	al, 32
c0107af1: c1 e2 08                     	shl	edx, 8
c0107af4: 0f b6 c0                     	movzx	eax, al
c0107af7: 09 c2                        	or	edx, eax
c0107af9: 66 c1 ea 07                  	shr	dx, 7
c0107afd: 83 f2 01                     	xor	edx, 1
c0107b00: 83 e2 01                     	and	edx, 1
c0107b03: eb 1e                        	jmp	0xc0107b23 <pic_is_spurious+0x49>
c0107b05: 31 d2                        	xor	edx, edx
c0107b07: 83 f8 2f                     	cmp	eax, 47
c0107b0a: 75 17                        	jne	0xc0107b23 <pic_is_spurious+0x49>
c0107b0c: b0 0b                        	mov	al, 11
c0107b0e: e6 20                        	out	32, al
c0107b10: e6 a0                        	out	160, al
c0107b12: e4 a0                        	in	al, 160
c0107b14: 89 c1                        	mov	ecx, eax
c0107b16: e4 20                        	in	al, 32
c0107b18: 80 e1 80                     	and	cl, -128
c0107b1b: 75 06                        	jne	0xc0107b23 <pic_is_spurious+0x49>
c0107b1d: b0 20                        	mov	al, 32
c0107b1f: e6 20                        	out	32, al
c0107b21: b2 01                        	mov	dl, 1
c0107b23: 89 d0                        	mov	eax, edx
c0107b25: 5d                           	pop	ebp
c0107b26: c3                           	ret

c0107b27 <pic_eoi>:
c0107b27: 55                           	push	ebp
c0107b28: 89 e5                        	mov	ebp, esp
c0107b2a: 83 7d 08 27                  	cmp	dword ptr [ebp + 8], 39
c0107b2e: 7e 04                        	jle	0xc0107b34 <pic_eoi+0xd>
c0107b30: b0 20                        	mov	al, 32
c0107b32: e6 a0                        	out	160, al
c0107b34: b0 20                        	mov	al, 32
c0107b36: e6 20                        	out	32, al
c0107b38: 5d                           	pop	ebp
c0107b39: c3                           	ret

c0107b3a <pic_initialise>:
c0107b3a: e4 21                        	in	al, 33
c0107b3c: 89 c1                        	mov	ecx, eax
c0107b3e: e4 a1                        	in	al, 161
c0107b40: 89 c2                        	mov	edx, eax
c0107b42: b0 11                        	mov	al, 17
c0107b44: e6 20                        	out	32, al
c0107b46: e6 a0                        	out	160, al
c0107b48: b0 20                        	mov	al, 32
c0107b4a: e6 21                        	out	33, al
c0107b4c: b0 28                        	mov	al, 40
c0107b4e: e6 a1                        	out	161, al
c0107b50: b0 04                        	mov	al, 4
c0107b52: e6 21                        	out	33, al
c0107b54: b0 02                        	mov	al, 2
c0107b56: e6 a1                        	out	161, al
c0107b58: b0 01                        	mov	al, 1
c0107b5a: e6 21                        	out	33, al
c0107b5c: e6 a1                        	out	161, al
c0107b5e: 89 c8                        	mov	eax, ecx
c0107b60: e6 21                        	out	33, al
c0107b62: 89 d0                        	mov	eax, edx
c0107b64: e6 a1                        	out	161, al
c0107b66: 31 c0                        	xor	eax, eax
c0107b68: e6 21                        	out	33, al
c0107b6a: e6 a1                        	out	161, al
c0107b6c: c3                           	ret

c0107b6d <pit_handler>:
c0107b6d: 55                           	push	ebp
c0107b6e: 89 e5                        	mov	ebp, esp
c0107b70: 83 ec 18                     	sub	esp, 24
c0107b73: ff 35 d4 0e 11 c0            	push	dword ptr [-1072623916]
c0107b79: ff 35 d0 0e 11 c0            	push	dword ptr [-1072623920]
c0107b7f: 6a 00                        	push	0
c0107b81: 68 00 ca 9a 3b               	push	1000000000
c0107b86: e8 95 17 00 00               	call	0xc0109320 <__udivdi3>
c0107b8b: 83 c4 18                     	add	esp, 24
c0107b8e: 52                           	push	edx
c0107b8f: 50                           	push	eax
c0107b90: e8 aa cb ff ff               	call	0xc010473f <thread_received_timer_interrupt_bsp>
c0107b95: e8 de cb ff ff               	call	0xc0104778 <thread_received_timer_interrupt>
c0107b9a: 31 c0                        	xor	eax, eax
c0107b9c: c9                           	leave
c0107b9d: c3                           	ret

c0107b9e <pit_initialise>:
c0107b9e: 55                           	push	ebp
c0107b9f: 89 e5                        	mov	ebp, esp
c0107ba1: 83 ec 10                     	sub	esp, 16
c0107ba4: 8b 4d 08                     	mov	ecx, dword ptr [ebp + 8]
c0107ba7: 89 c8                        	mov	eax, ecx
c0107ba9: 89 0d d0 0e 11 c0            	mov	dword ptr [-1072623920], ecx
c0107baf: c1 f8 1f                     	sar	eax, 31
c0107bb2: a3 d4 0e 11 c0               	mov	dword ptr [3222343380], eax
c0107bb7: b8 dc 34 12 00               	mov	eax, 1193180
c0107bbc: 99                           	cdq
c0107bbd: f7 f9                        	idiv	ecx
c0107bbf: 89 c1                        	mov	ecx, eax
c0107bc1: b0 36                        	mov	al, 54
c0107bc3: e6 43                        	out	67, al
c0107bc5: 89 c8                        	mov	eax, ecx
c0107bc7: e6 40                        	out	64, al
c0107bc9: 89 c8                        	mov	eax, ecx
c0107bcb: c1 f8 08                     	sar	eax, 8
c0107bce: e6 40                        	out	64, al
c0107bd0: 68 6d 7b 10 c0               	push	3222305645
c0107bd5: 6a 20                        	push	32
c0107bd7: e8 68 09 00 00               	call	0xc0108544 <x86_register_interrupt_handler>
c0107bdc: 83 c4 10                     	add	esp, 16
c0107bdf: c9                           	leave
c0107be0: c3                           	ret

c0107be1 <is_elf_valid>:
c0107be1: 55                           	push	ebp
c0107be2: 31 d2                        	xor	edx, edx
c0107be4: 89 e5                        	mov	ebp, esp
c0107be6: 8b 45 08                     	mov	eax, dword ptr [ebp + 8]
c0107be9: 80 38 7f                     	cmp	byte ptr [eax], 127
c0107bec: 75 13                        	jne	0xc0107c01 <is_elf_valid+0x20>
c0107bee: 80 78 01 45                  	cmp	byte ptr [eax + 1], 69
c0107bf2: 75 0d                        	jne	0xc0107c01 <is_elf_valid+0x20>
c0107bf4: 80 78 02 4c                  	cmp	byte ptr [eax + 2], 76
c0107bf8: 75 07                        	jne	0xc0107c01 <is_elf_valid+0x20>
c0107bfa: 80 78 03 46                  	cmp	byte ptr [eax + 3], 70
c0107bfe: 0f 94 c2                     	sete	dl
c0107c01: 89 d0                        	mov	eax, edx
c0107c03: 5d                           	pop	ebp
c0107c04: c3                           	ret

c0107c05 <elf_load>:
c0107c05: 55                           	push	ebp
c0107c06: 89 e5                        	mov	ebp, esp
c0107c08: 57                           	push	edi
c0107c09: 56                           	push	esi
c0107c0a: 53                           	push	ebx
c0107c0b: 89 c3                        	mov	ebx, eax
c0107c0d: 83 ec 48                     	sub	esp, 72
c0107c10: 89 4d d4                     	mov	dword ptr [ebp - 44], ecx
c0107c13: 8a 45 d4                     	mov	al, byte ptr [ebp - 44]
c0107c16: 89 55 d0                     	mov	dword ptr [ebp - 48], edx
c0107c19: 88 45 c3                     	mov	byte ptr [ebp - 61], al
c0107c1c: 53                           	push	ebx
c0107c1d: e8 bf ff ff ff               	call	0xc0107be1 <is_elf_valid>
c0107c22: 83 c4 10                     	add	esp, 16
c0107c25: 84 c0                        	test	al, al
c0107c27: 75 0a                        	jne	0xc0107c33 <elf_load+0x2e>
c0107c29: 31 db                        	xor	ebx, ebx
c0107c2b: 89 5d e4                     	mov	dword ptr [ebp - 28], ebx
c0107c2e: e9 e4 02 00 00               	jmp	0xc0107f17 <elf_load+0x312>
c0107c33: 66 83 7b 30 00               	cmp	word ptr [ebx + 48], 0
c0107c38: 75 06                        	jne	0xc0107c40 <elf_load+0x3b>
c0107c3a: 80 7d d4 00                  	cmp	byte ptr [ebp - 44], 0
c0107c3e: 75 e9                        	jne	0xc0107c29 <elf_load+0x24>
c0107c40: 66 83 7b 2c 00               	cmp	word ptr [ebx + 44], 0
c0107c45: 74 e2                        	je	0xc0107c29 <elf_load+0x24>
c0107c47: 80 7d d4 01                  	cmp	byte ptr [ebp - 44], 1
c0107c4b: 8b 73 1c                     	mov	esi, dword ptr [ebx + 28]
c0107c4e: 19 c0                        	sbb	eax, eax
c0107c50: 31 c9                        	xor	ecx, ecx
c0107c52: 89 45 d8                     	mov	dword ptr [ebp - 40], eax
c0107c55: 01 de                        	add	esi, ebx
c0107c57: 81 65 d8 00 00 00 40         	and	dword ptr [ebp - 40], 1073741824
c0107c5e: 81 6d d8 00 00 00 30         	sub	dword ptr [ebp - 40], 805306368
c0107c65: 8b 45 d8                     	mov	eax, dword ptr [ebp - 40]
c0107c68: 89 4d cc                     	mov	dword ptr [ebp - 52], ecx
c0107c6b: 89 45 e4                     	mov	dword ptr [ebp - 28], eax
c0107c6e: 0f b7 43 2c                  	movzx	eax, word ptr [ebx + 44]
c0107c72: 39 45 cc                     	cmp	dword ptr [ebp - 52], eax
c0107c75: 0f 8d cd 00 00 00            	jge	0xc0107d48 <elf_load+0x143>
c0107c7b: 83 3e 01                     	cmp	dword ptr [esi], 1
c0107c7e: 0f 85 b9 00 00 00            	jne	0xc0107d3d <elf_load+0x138>
c0107c84: 8b 46 08                     	mov	eax, dword ptr [esi + 8]
c0107c87: 8b 7e 14                     	mov	edi, dword ptr [esi + 20]
c0107c8a: 89 45 e0                     	mov	dword ptr [ebp - 32], eax
c0107c8d: 8b 46 10                     	mov	eax, dword ptr [esi + 16]
c0107c90: 89 45 dc                     	mov	dword ptr [ebp - 36], eax
c0107c93: 8b 46 04                     	mov	eax, dword ptr [esi + 4]
c0107c96: 01 d8                        	add	eax, ebx
c0107c98: 80 7d c3 00                  	cmp	byte ptr [ebp - 61], 0
c0107c9c: 89 45 c4                     	mov	dword ptr [ebp - 60], eax
c0107c9f: 75 66                        	jne	0xc0107d07 <elf_load+0x102>
c0107ca1: 83 ec 0c                     	sub	esp, 12
c0107ca4: 57                           	push	edi
c0107ca5: e8 a3 b0 ff ff               	call	0xc0102d4d <virt_bytes_to_pages>
c0107caa: 83 c4 10                     	add	esp, 16
c0107cad: 31 d2                        	xor	edx, edx
c0107caf: 89 45 c8                     	mov	dword ptr [ebp - 56], eax
c0107cb2: 39 55 c8                     	cmp	dword ptr [ebp - 56], edx
c0107cb5: 74 25                        	je	0xc0107cdc <elf_load+0xd7>
c0107cb7: 89 d7                        	mov	edi, edx
c0107cb9: 8b 45 e0                     	mov	eax, dword ptr [ebp - 32]
c0107cbc: 89 55 bc                     	mov	dword ptr [ebp - 68], edx
c0107cbf: c1 e7 0c                     	shl	edi, 12
c0107cc2: 01 c7                        	add	edi, eax
c0107cc4: e8 4d ad ff ff               	call	0xc0102a16 <vas_get_current_vas>
c0107cc9: 52                           	push	edx
c0107cca: 6a 45                        	push	69
c0107ccc: 57                           	push	edi
c0107ccd: 50                           	push	eax
c0107cce: e8 6d ae ff ff               	call	0xc0102b40 <vas_reflag>
c0107cd3: 8b 55 bc                     	mov	edx, dword ptr [ebp - 68]
c0107cd6: 83 c4 10                     	add	esp, 16
c0107cd9: 42                           	inc	edx
c0107cda: eb d6                        	jmp	0xc0107cb2 <elf_load+0xad>
c0107cdc: e8 3e ad ff ff               	call	0xc0102a1f <vas_flush_tlb>
c0107ce1: 50                           	push	eax
c0107ce2: ff 75 dc                     	push	dword ptr [ebp - 36]
c0107ce5: ff 75 c4                     	push	dword ptr [ebp - 60]
c0107ce8: ff 75 e0                     	push	dword ptr [ebp - 32]
c0107ceb: e8 44 95 ff ff               	call	0xc0101234 <memcpy>
c0107cf0: 8b 45 c8                     	mov	eax, dword ptr [ebp - 56]
c0107cf3: 8b 7d e0                     	mov	edi, dword ptr [ebp - 32]
c0107cf6: c1 e0 0c                     	shl	eax, 12
c0107cf9: 01 f8                        	add	eax, edi
c0107cfb: 39 45 e4                     	cmp	dword ptr [ebp - 28], eax
c0107cfe: 0f 43 45 e4                  	cmovae	eax, dword ptr [ebp - 28]
c0107d02: 89 45 e4                     	mov	dword ptr [ebp - 28], eax
c0107d05: eb 33                        	jmp	0xc0107d3a <elf_load+0x135>
c0107d07: 8b 45 d0                     	mov	eax, dword ptr [ebp - 48]
c0107d0a: 8b 4d d8                     	mov	ecx, dword ptr [ebp - 40]
c0107d0d: 8b 55 e0                     	mov	edx, dword ptr [ebp - 32]
c0107d10: 29 c8                        	sub	eax, ecx
c0107d12: 01 c2                        	add	edx, eax
c0107d14: 50                           	push	eax
c0107d15: ff 75 dc                     	push	dword ptr [ebp - 36]
c0107d18: ff 75 c4                     	push	dword ptr [ebp - 60]
c0107d1b: 52                           	push	edx
c0107d1c: 89 55 e0                     	mov	dword ptr [ebp - 32], edx
c0107d1f: e8 10 95 ff ff               	call	0xc0101234 <memcpy>
c0107d24: 8b 45 dc                     	mov	eax, dword ptr [ebp - 36]
c0107d27: 83 c4 0c                     	add	esp, 12
c0107d2a: 29 c7                        	sub	edi, eax
c0107d2c: 57                           	push	edi
c0107d2d: 6a 00                        	push	0
c0107d2f: 8b 55 e0                     	mov	edx, dword ptr [ebp - 32]
c0107d32: 01 d0                        	add	eax, edx
c0107d34: 50                           	push	eax
c0107d35: e8 40 95 ff ff               	call	0xc010127a <memset>
c0107d3a: 83 c4 10                     	add	esp, 16
c0107d3d: ff 45 cc                     	inc	dword ptr [ebp - 52]
c0107d40: 83 c6 20                     	add	esi, 32
c0107d43: e9 26 ff ff ff               	jmp	0xc0107c6e <elf_load+0x69>
c0107d48: 80 7d d4 00                  	cmp	byte ptr [ebp - 44], 0
c0107d4c: 0f 84 bd 01 00 00            	je	0xc0107f0f <elf_load+0x30a>
c0107d52: 31 c0                        	xor	eax, eax
c0107d54: 8b 7b 20                     	mov	edi, dword ptr [ebx + 32]
c0107d57: 89 45 d8                     	mov	dword ptr [ebp - 40], eax
c0107d5a: 01 df                        	add	edi, ebx
c0107d5c: 0f b7 43 30                  	movzx	eax, word ptr [ebx + 48]
c0107d60: 39 45 d8                     	cmp	dword ptr [ebp - 40], eax
c0107d63: 0f 8d 94 01 00 00            	jge	0xc0107efd <elf_load+0x2f8>
c0107d69: 8b 47 04                     	mov	eax, dword ptr [edi + 4]
c0107d6c: 83 f8 09                     	cmp	eax, 9
c0107d6f: 0f 85 6b 01 00 00            	jne	0xc0107ee0 <elf_load+0x2db>
c0107d75: 8b 47 10                     	mov	eax, dword ptr [edi + 16]
c0107d78: 8b 77 24                     	mov	esi, dword ptr [edi + 36]
c0107d7b: 31 c9                        	xor	ecx, ecx
c0107d7d: 8b 17                        	mov	edx, dword ptr [edi]
c0107d7f: 89 45 e4                     	mov	dword ptr [ebp - 28], eax
c0107d82: 8b 47 14                     	mov	eax, dword ptr [edi + 20]
c0107d85: 89 45 e0                     	mov	dword ptr [ebp - 32], eax
c0107d88: 0f b7 43 32                  	movzx	eax, word ptr [ebx + 50]
c0107d8c: 66 85 c0                     	test	ax, ax
c0107d8f: 74 0e                        	je	0xc0107d9f <elf_load+0x19a>
c0107d91: 6b c0 28                     	imul	eax, eax, 40
c0107d94: 01 d8                        	add	eax, ebx
c0107d96: 03 43 20                     	add	eax, dword ptr [ebx + 32]
c0107d99: 03 50 10                     	add	edx, dword ptr [eax + 16]
c0107d9c: 8d 0c 13                     	lea	ecx, [ebx + edx]
c0107d9f: 50                           	push	eax
c0107da0: 50                           	push	eax
c0107da1: 68 b7 af 10 c0               	push	3222319031
c0107da6: 51                           	push	ecx
c0107da7: e8 22 95 ff ff               	call	0xc01012ce <strcmp>
c0107dac: 83 c4 10                     	add	esp, 16
c0107daf: 85 c0                        	test	eax, eax
c0107db1: 0f 85 3b 01 00 00            	jne	0xc0107ef2 <elf_load+0x2ed>
c0107db7: 8b 45 e0                     	mov	eax, dword ptr [ebp - 32]
c0107dba: 31 d2                        	xor	edx, edx
c0107dbc: f7 f6                        	div	esi
c0107dbe: 31 d2                        	xor	edx, edx
c0107dc0: 89 55 d4                     	mov	dword ptr [ebp - 44], edx
c0107dc3: 89 45 c8                     	mov	dword ptr [ebp - 56], eax
c0107dc6: 8b 45 e4                     	mov	eax, dword ptr [ebp - 28]
c0107dc9: 01 d8                        	add	eax, ebx
c0107dcb: 89 45 e0                     	mov	dword ptr [ebp - 32], eax
c0107dce: 8b 4d d4                     	mov	ecx, dword ptr [ebp - 44]
c0107dd1: 39 4d c8                     	cmp	dword ptr [ebp - 56], ecx
c0107dd4: 0f 8e 18 01 00 00            	jle	0xc0107ef2 <elf_load+0x2ed>
c0107dda: 8b 45 d0                     	mov	eax, dword ptr [ebp - 48]
c0107ddd: 8b 75 e0                     	mov	esi, dword ptr [ebp - 32]
c0107de0: 05 00 00 00 30               	add	eax, 805306368
c0107de5: 89 45 dc                     	mov	dword ptr [ebp - 36], eax
c0107de8: 03 06                        	add	eax, dword ptr [esi]
c0107dea: 89 45 e4                     	mov	dword ptr [ebp - 28], eax
c0107ded: 8b 46 04                     	mov	eax, dword ptr [esi + 4]
c0107df0: 89 c1                        	mov	ecx, eax
c0107df2: 89 45 cc                     	mov	dword ptr [ebp - 52], eax
c0107df5: c1 e9 08                     	shr	ecx, 8
c0107df8: 75 07                        	jne	0xc0107e01 <elf_load+0x1fc>
c0107dfa: 31 c0                        	xor	eax, eax
c0107dfc: e9 97 00 00 00               	jmp	0xc0107e98 <elf_load+0x293>
c0107e01: 8b 77 18                     	mov	esi, dword ptr [edi + 24]
c0107e04: 85 f6                        	test	esi, esi
c0107e06: 0f 84 1d fe ff ff            	je	0xc0107c29 <elf_load+0x24>
c0107e0c: 6b f6 28                     	imul	esi, esi, 40
c0107e0f: 8b 43 20                     	mov	eax, dword ptr [ebx + 32]
c0107e12: 31 d2                        	xor	edx, edx
c0107e14: 01 d8                        	add	eax, ebx
c0107e16: 01 c6                        	add	esi, eax
c0107e18: 89 45 cc                     	mov	dword ptr [ebp - 52], eax
c0107e1b: 8b 46 14                     	mov	eax, dword ptr [esi + 20]
c0107e1e: f7 76 24                     	div	dword ptr [esi + 36]
c0107e21: 39 c1                        	cmp	ecx, eax
c0107e23: 0f 83 00 fe ff ff            	jae	0xc0107c29 <elf_load+0x24>
c0107e29: c1 e1 04                     	shl	ecx, 4
c0107e2c: 03 4e 10                     	add	ecx, dword ptr [esi + 16]
c0107e2f: 01 d9                        	add	ecx, ebx
c0107e31: 66 8b 51 0e                  	mov	dx, word ptr [ecx + 14]
c0107e35: 66 85 d2                     	test	dx, dx
c0107e38: 75 4f                        	jne	0xc0107e89 <elf_load+0x284>
c0107e3a: 6b 56 18 28                  	imul	edx, dword ptr [esi + 24], 40
c0107e3e: 8b 01                        	mov	eax, dword ptr [ecx]
c0107e40: 83 ec 0c                     	sub	esp, 12
c0107e43: 89 4d c4                     	mov	dword ptr [ebp - 60], ecx
c0107e46: 8b 75 cc                     	mov	esi, dword ptr [ebp - 52]
c0107e49: 01 d8                        	add	eax, ebx
c0107e4b: 03 44 16 10                  	add	eax, dword ptr [esi + edx + 16]
c0107e4f: 50                           	push	eax
c0107e50: 89 c6                        	mov	esi, eax
c0107e52: e8 80 04 00 00               	call	0xc01082d7 <ksymbol_get_address_from_name>
c0107e57: 83 c4 10                     	add	esp, 16
c0107e5a: 85 c0                        	test	eax, eax
c0107e5c: 75 3a                        	jne	0xc0107e98 <elf_load+0x293>
c0107e5e: 8b 4d c4                     	mov	ecx, dword ptr [ebp - 60]
c0107e61: 8a 41 0c                     	mov	al, byte ptr [ecx + 12]
c0107e64: 83 e0 20                     	and	eax, 32
c0107e67: 88 45 cc                     	mov	byte ptr [ebp - 52], al
c0107e6a: 50                           	push	eax
c0107e6b: 50                           	push	eax
c0107e6c: 56                           	push	esi
c0107e6d: 68 c0 af 10 c0               	push	3222319040
c0107e72: e8 0c d2 ff ff               	call	0xc0105083 <kprintf>
c0107e77: 83 c4 10                     	add	esp, 16
c0107e7a: 80 7d cc 00                  	cmp	byte ptr [ebp - 52], 0
c0107e7e: 0f 84 a5 fd ff ff            	je	0xc0107c29 <elf_load+0x24>
c0107e84: e9 71 ff ff ff               	jmp	0xc0107dfa <elf_load+0x1f5>
c0107e89: 8b 49 04                     	mov	ecx, dword ptr [ecx + 4]
c0107e8c: 8b 45 dc                     	mov	eax, dword ptr [ebp - 36]
c0107e8f: 01 c8                        	add	eax, ecx
c0107e91: 66 83 fa f1                  	cmp	dx, -15
c0107e95: 0f 44 c1                     	cmove	eax, ecx
c0107e98: 8b 75 e0                     	mov	esi, dword ptr [ebp - 32]
c0107e9b: 0f b6 56 04                  	movzx	edx, byte ptr [esi + 4]
c0107e9f: 83 fa 01                     	cmp	edx, 1
c0107ea2: 75 05                        	jne	0xc0107ea9 <elf_load+0x2a4>
c0107ea4: 8b 4d e4                     	mov	ecx, dword ptr [ebp - 28]
c0107ea7: eb 24                        	jmp	0xc0107ecd <elf_load+0x2c8>
c0107ea9: 83 fa 02                     	cmp	edx, 2
c0107eac: 75 10                        	jne	0xc0107ebe <elf_load+0x2b9>
c0107eae: 8b 75 e4                     	mov	esi, dword ptr [ebp - 28]
c0107eb1: 8b 0e                        	mov	ecx, dword ptr [esi]
c0107eb3: 89 ca                        	mov	edx, ecx
c0107eb5: 89 4d dc                     	mov	dword ptr [ebp - 36], ecx
c0107eb8: 29 f2                        	sub	edx, esi
c0107eba: 01 d0                        	add	eax, edx
c0107ebc: eb 11                        	jmp	0xc0107ecf <elf_load+0x2ca>
c0107ebe: 83 fa 08                     	cmp	edx, 8
c0107ec1: 0f 85 62 fd ff ff            	jne	0xc0107c29 <elf_load+0x24>
c0107ec7: 8b 4d e4                     	mov	ecx, dword ptr [ebp - 28]
c0107eca: 8b 45 dc                     	mov	eax, dword ptr [ebp - 36]
c0107ecd: 03 01                        	add	eax, dword ptr [ecx]
c0107ecf: 8b 75 e4                     	mov	esi, dword ptr [ebp - 28]
c0107ed2: ff 45 d4                     	inc	dword ptr [ebp - 44]
c0107ed5: 83 45 e0 08                  	add	dword ptr [ebp - 32], 8
c0107ed9: 89 06                        	mov	dword ptr [esi], eax
c0107edb: e9 ee fe ff ff               	jmp	0xc0107dce <elf_load+0x1c9>
c0107ee0: 83 f8 04                     	cmp	eax, 4
c0107ee3: 75 0d                        	jne	0xc0107ef2 <elf_load+0x2ed>
c0107ee5: 83 ec 0c                     	sub	esp, 12
c0107ee8: 68 d4 af 10 c0               	push	3222319060
c0107eed: e8 59 d3 ff ff               	call	0xc010524b <panic>
c0107ef2: ff 45 d8                     	inc	dword ptr [ebp - 40]
c0107ef5: 83 c7 28                     	add	edi, 40
c0107ef8: e9 5f fe ff ff               	jmp	0xc0107d5c <elf_load+0x157>
c0107efd: 8b 43 18                     	mov	eax, dword ptr [ebx + 24]
c0107f00: 8b 5d d0                     	mov	ebx, dword ptr [ebp - 48]
c0107f03: 8d 84 03 00 00 00 30         	lea	eax, [ebx + eax + 805306368]
c0107f0a: 89 45 e4                     	mov	dword ptr [ebp - 28], eax
c0107f0d: eb 08                        	jmp	0xc0107f17 <elf_load+0x312>
c0107f0f: 8b 53 18                     	mov	edx, dword ptr [ebx + 24]
c0107f12: 8b 45 08                     	mov	eax, dword ptr [ebp + 8]
c0107f15: 89 10                        	mov	dword ptr [eax], edx
c0107f17: 8b 45 e4                     	mov	eax, dword ptr [ebp - 28]
c0107f1a: 8d 65 f4                     	lea	esp, [ebp - 12]
c0107f1d: 5b                           	pop	ebx
c0107f1e: 5e                           	pop	esi
c0107f1f: 5f                           	pop	edi
c0107f20: 5d                           	pop	ebp
c0107f21: c3                           	ret

c0107f22 <arch_load_driver>:
c0107f22: 55                           	push	ebp
c0107f23: 31 d2                        	xor	edx, edx
c0107f25: b9 01 00 00 00               	mov	ecx, 1
c0107f2a: 89 e5                        	mov	ebp, esp
c0107f2c: 8b 45 08                     	mov	eax, dword ptr [ebp + 8]
c0107f2f: 89 55 08                     	mov	dword ptr [ebp + 8], edx
c0107f32: 8b 55 10                     	mov	edx, dword ptr [ebp + 16]
c0107f35: 5d                           	pop	ebp
c0107f36: e9 ca fc ff ff               	jmp	0xc0107c05 <elf_load>

c0107f3b <arch_start_driver>:
c0107f3b: 55                           	push	ebp
c0107f3c: b8 07 00 00 00               	mov	eax, 7
c0107f41: 89 e5                        	mov	ebp, esp
c0107f43: 83 ec 08                     	sub	esp, 8
c0107f46: 8b 55 08                     	mov	edx, dword ptr [ebp + 8]
c0107f49: 85 d2                        	test	edx, edx
c0107f4b: 74 0d                        	je	0xc0107f5a <arch_start_driver+0x1f>
c0107f4d: 83 ec 0c                     	sub	esp, 12
c0107f50: ff 75 0c                     	push	dword ptr [ebp + 12]
c0107f53: ff d2                        	call	edx
c0107f55: 31 c0                        	xor	eax, eax
c0107f57: 83 c4 10                     	add	esp, 16
c0107f5a: c9                           	leave
c0107f5b: c3                           	ret

c0107f5c <arch_exec>:
c0107f5c: 55                           	push	ebp
c0107f5d: 31 d2                        	xor	edx, edx
c0107f5f: 31 c9                        	xor	ecx, ecx
c0107f61: 89 e5                        	mov	ebp, esp
c0107f63: 83 ec 14                     	sub	esp, 20
c0107f66: ff 75 10                     	push	dword ptr [ebp + 16]
c0107f69: 8b 45 08                     	mov	eax, dword ptr [ebp + 8]
c0107f6c: e8 94 fc ff ff               	call	0xc0107c05 <elf_load>
c0107f71: 83 c4 10                     	add	esp, 16
c0107f74: ba 07 00 00 00               	mov	edx, 7
c0107f79: 85 c0                        	test	eax, eax
c0107f7b: 74 07                        	je	0xc0107f84 <arch_exec+0x28>
c0107f7d: 8b 55 14                     	mov	edx, dword ptr [ebp + 20]
c0107f80: 89 02                        	mov	dword ptr [edx], eax
c0107f82: 31 d2                        	xor	edx, edx
c0107f84: c9                           	leave
c0107f85: 89 d0                        	mov	eax, edx
c0107f87: c3                           	ret

c0107f88 <ksymbol_add_symbol>:
c0107f88: 55                           	push	ebp
c0107f89: 89 e5                        	mov	ebp, esp
c0107f8b: 83 ec 08                     	sub	esp, 8
c0107f8e: 83 3d d8 0e 11 c0 00         	cmp	dword ptr [-1072623912], 0
c0107f95: 75 05                        	jne	0xc0107f9c <ksymbol_add_symbol+0x14>
c0107f97: e8 17 00 00 00               	call	0xc0107fb3 <ksymbol_init>
c0107f9c: 50                           	push	eax
c0107f9d: ff 75 0c                     	push	dword ptr [ebp + 12]
c0107fa0: ff 75 08                     	push	dword ptr [ebp + 8]
c0107fa3: ff 35 d8 0e 11 c0            	push	dword ptr [-1072623912]
c0107fa9: e8 41 cb ff ff               	call	0xc0104aef <adt_hashmap_add>
c0107fae: 83 c4 10                     	add	esp, 16
c0107fb1: c9                           	leave
c0107fb2: c3                           	ret

c0107fb3 <ksymbol_init>:
c0107fb3: 55                           	push	ebp
c0107fb4: 89 e5                        	mov	ebp, esp
c0107fb6: 57                           	push	edi
c0107fb7: 56                           	push	esi
c0107fb8: 53                           	push	ebx
c0107fb9: 81 ec 90 00 00 00            	sub	esp, 144
c0107fbf: 68 02 4c 10 c0               	push	3222293506
c0107fc4: 68 e6 4b 10 c0               	push	3222293478
c0107fc9: 68 00 02 00 00               	push	512
c0107fce: e8 48 ca ff ff               	call	0xc0104a1b <adt_hashmap_create>
c0107fd3: a3 d8 0e 11 c0               	mov	dword ptr [3222343384], eax
c0107fd8: 8d 45 b0                     	lea	eax, [ebp - 80]
c0107fdb: 50                           	push	eax
c0107fdc: 6a 00                        	push	0
c0107fde: 6a 00                        	push	0
c0107fe0: 68 f7 af 10 c0               	push	3222319095
c0107fe5: e8 e1 e2 ff ff               	call	0xc01062cb <vfs_open>
c0107fea: 83 c4 20                     	add	esp, 32
c0107fed: 85 c0                        	test	eax, eax
c0107fef: 0f 85 d5 02 00 00            	jne	0xc01082ca <ksymbol_init+0x317>
c0107ff5: 83 ec 0c                     	sub	esp, 12
c0107ff8: 8d 75 b4                     	lea	esi, [ebp - 76]
c0107ffb: 6a 34                        	push	52
c0107ffd: e8 03 a4 ff ff               	call	0xc0102405 <malloc>
c0108002: 89 c3                        	mov	ebx, eax
c0108004: 58                           	pop	eax
c0108005: 5a                           	pop	edx
c0108006: 6a 00                        	push	0
c0108008: 6a 00                        	push	0
c010800a: 6a 00                        	push	0
c010800c: 6a 34                        	push	52
c010800e: 53                           	push	ebx
c010800f: 56                           	push	esi
c0108010: e8 0a d9 ff ff               	call	0xc010591f <uio_construct>
c0108015: 89 34 24                     	mov	dword ptr [esp], esi
c0108018: ff 75 b0                     	push	dword ptr [ebp - 80]
c010801b: e8 2c df ff ff               	call	0xc0105f4c <vfs_read>
c0108020: 83 c4 20                     	add	esp, 32
c0108023: 85 c0                        	test	eax, eax
c0108025: 0f 85 9f 02 00 00            	jne	0xc01082ca <ksymbol_init+0x317>
c010802b: 83 ec 0c                     	sub	esp, 12
c010802e: 53                           	push	ebx
c010802f: e8 ad fb ff ff               	call	0xc0107be1 <is_elf_valid>
c0108034: 83 c4 10                     	add	esp, 16
c0108037: 84 c0                        	test	al, al
c0108039: 0f 84 8b 02 00 00            	je	0xc01082ca <ksymbol_init+0x317>
c010803f: 83 7b 20 00                  	cmp	dword ptr [ebx + 32], 0
c0108043: 0f 84 81 02 00 00            	je	0xc01082ca <ksymbol_init+0x317>
c0108049: 0f b7 53 2e                  	movzx	edx, word ptr [ebx + 46]
c010804d: 0f b7 43 30                  	movzx	eax, word ptr [ebx + 48]
c0108051: 83 ec 0c                     	sub	esp, 12
c0108054: 0f af c2                     	imul	eax, edx
c0108057: 50                           	push	eax
c0108058: e8 a8 a3 ff ff               	call	0xc0102405 <malloc>
c010805d: 0f b7 53 2e                  	movzx	edx, word ptr [ebx + 46]
c0108061: 89 85 7c ff ff ff            	mov	dword ptr [ebp - 132], eax
c0108067: 89 45 b4                     	mov	dword ptr [ebp - 76], eax
c010806a: 8b 43 20                     	mov	eax, dword ptr [ebx + 32]
c010806d: 89 45 bc                     	mov	dword ptr [ebp - 68], eax
c0108070: 0f b7 43 30                  	movzx	eax, word ptr [ebx + 48]
c0108074: 0f af c2                     	imul	eax, edx
c0108077: 89 45 b8                     	mov	dword ptr [ebp - 72], eax
c010807a: 5f                           	pop	edi
c010807b: 58                           	pop	eax
c010807c: 56                           	push	esi
c010807d: ff 75 b0                     	push	dword ptr [ebp - 80]
c0108080: e8 c7 de ff ff               	call	0xc0105f4c <vfs_read>
c0108085: 83 c4 10                     	add	esp, 16
c0108088: 89 85 78 ff ff ff            	mov	dword ptr [ebp - 136], eax
c010808e: 85 c0                        	test	eax, eax
c0108090: 0f 85 34 02 00 00            	jne	0xc01082ca <ksymbol_init+0x317>
c0108096: 31 c9                        	xor	ecx, ecx
c0108098: 8b bd 7c ff ff ff            	mov	edi, dword ptr [ebp - 132]
c010809e: 89 4d 80                     	mov	dword ptr [ebp - 128], ecx
c01080a1: 89 8d 70 ff ff ff            	mov	dword ptr [ebp - 144], ecx
c01080a7: 89 4d 84                     	mov	dword ptr [ebp - 124], ecx
c01080aa: 89 8d 74 ff ff ff            	mov	dword ptr [ebp - 140], ecx
c01080b0: 0f b7 43 30                  	movzx	eax, word ptr [ebx + 48]
c01080b4: 8b 95 78 ff ff ff            	mov	edx, dword ptr [ebp - 136]
c01080ba: 39 d0                        	cmp	eax, edx
c01080bc: 0f 8e b8 00 00 00            	jle	0xc010817a <ksymbol_init+0x1c7>
c01080c2: 8b 47 10                     	mov	eax, dword ptr [edi + 16]
c01080c5: 8b 95 7c ff ff ff            	mov	edx, dword ptr [ebp - 132]
c01080cb: 8d 75 c8                     	lea	esi, [ebp - 56]
c01080ce: 8b 0f                        	mov	ecx, dword ptr [edi]
c01080d0: 89 85 6c ff ff ff            	mov	dword ptr [ebp - 148], eax
c01080d6: 0f b7 43 32                  	movzx	eax, word ptr [ebx + 50]
c01080da: 6b c0 28                     	imul	eax, eax, 40
c01080dd: 03 4c 02 10                  	add	ecx, dword ptr [edx + eax + 16]
c01080e1: 89 8d 68 ff ff ff            	mov	dword ptr [ebp - 152], ecx
c01080e7: 50                           	push	eax
c01080e8: 6a 20                        	push	32
c01080ea: 6a 00                        	push	0
c01080ec: 56                           	push	esi
c01080ed: e8 88 91 ff ff               	call	0xc010127a <memset>
c01080f2: 8b 8d 68 ff ff ff            	mov	ecx, dword ptr [ebp - 152]
c01080f8: 89 75 b4                     	mov	dword ptr [ebp - 76], esi
c01080fb: c7 45 b8 1f 00 00 00         	mov	dword ptr [ebp - 72], 31
c0108102: 89 4d bc                     	mov	dword ptr [ebp - 68], ecx
c0108105: 58                           	pop	eax
c0108106: 8d 45 b4                     	lea	eax, [ebp - 76]
c0108109: 5a                           	pop	edx
c010810a: 50                           	push	eax
c010810b: ff 75 b0                     	push	dword ptr [ebp - 80]
c010810e: e8 39 de ff ff               	call	0xc0105f4c <vfs_read>
c0108113: 83 c4 10                     	add	esp, 16
c0108116: 85 c0                        	test	eax, eax
c0108118: 0f 85 ac 01 00 00            	jne	0xc01082ca <ksymbol_init+0x317>
c010811e: 50                           	push	eax
c010811f: 50                           	push	eax
c0108120: 68 07 b0 10 c0               	push	3222319111
c0108125: 56                           	push	esi
c0108126: e8 a3 91 ff ff               	call	0xc01012ce <strcmp>
c010812b: 83 c4 10                     	add	esp, 16
c010812e: 85 c0                        	test	eax, eax
c0108130: 75 14                        	jne	0xc0108146 <ksymbol_init+0x193>
c0108132: 8b 47 14                     	mov	eax, dword ptr [edi + 20]
c0108135: 89 45 84                     	mov	dword ptr [ebp - 124], eax
c0108138: 8b 85 6c ff ff ff            	mov	eax, dword ptr [ebp - 148]
c010813e: 89 85 74 ff ff ff            	mov	dword ptr [ebp - 140], eax
c0108144: eb 26                        	jmp	0xc010816c <ksymbol_init+0x1b9>
c0108146: 50                           	push	eax
c0108147: 50                           	push	eax
c0108148: 68 0f b0 10 c0               	push	3222319119
c010814d: 56                           	push	esi
c010814e: e8 7b 91 ff ff               	call	0xc01012ce <strcmp>
c0108153: 83 c4 10                     	add	esp, 16
c0108156: 85 c0                        	test	eax, eax
c0108158: 75 12                        	jne	0xc010816c <ksymbol_init+0x1b9>
c010815a: 8b 47 14                     	mov	eax, dword ptr [edi + 20]
c010815d: 89 45 80                     	mov	dword ptr [ebp - 128], eax
c0108160: 8b 85 6c ff ff ff            	mov	eax, dword ptr [ebp - 148]
c0108166: 89 85 70 ff ff ff            	mov	dword ptr [ebp - 144], eax
c010816c: ff 85 78 ff ff ff            	inc	dword ptr [ebp - 136]
c0108172: 83 c7 28                     	add	edi, 40
c0108175: e9 36 ff ff ff               	jmp	0xc01080b0 <ksymbol_init+0xfd>
c010817a: 83 bd 74 ff ff ff 00         	cmp	dword ptr [ebp - 140], 0
c0108181: 0f 84 43 01 00 00            	je	0xc01082ca <ksymbol_init+0x317>
c0108187: 83 bd 70 ff ff ff 00         	cmp	dword ptr [ebp - 144], 0
c010818e: 0f 84 36 01 00 00            	je	0xc01082ca <ksymbol_init+0x317>
c0108194: 83 7d 84 00                  	cmp	dword ptr [ebp - 124], 0
c0108198: 0f 84 2c 01 00 00            	je	0xc01082ca <ksymbol_init+0x317>
c010819e: 83 7d 80 00                  	cmp	dword ptr [ebp - 128], 0
c01081a2: 0f 84 22 01 00 00            	je	0xc01082ca <ksymbol_init+0x317>
c01081a8: 83 ec 0c                     	sub	esp, 12
c01081ab: ff 75 84                     	push	dword ptr [ebp - 124]
c01081ae: 8d 7d b4                     	lea	edi, [ebp - 76]
c01081b1: 8d 75 88                     	lea	esi, [ebp - 120]
c01081b4: e8 4c a2 ff ff               	call	0xc0102405 <malloc>
c01081b9: 89 85 78 ff ff ff            	mov	dword ptr [ebp - 136], eax
c01081bf: 5a                           	pop	edx
c01081c0: 59                           	pop	ecx
c01081c1: 6a 00                        	push	0
c01081c3: 6a 00                        	push	0
c01081c5: ff b5 74 ff ff ff            	push	dword ptr [ebp - 140]
c01081cb: ff 75 84                     	push	dword ptr [ebp - 124]
c01081ce: 50                           	push	eax
c01081cf: 8d 45 88                     	lea	eax, [ebp - 120]
c01081d2: 50                           	push	eax
c01081d3: e8 47 d7 ff ff               	call	0xc010591f <uio_construct>
c01081d8: 8d 45 b4                     	lea	eax, [ebp - 76]
c01081db: b9 05 00 00 00               	mov	ecx, 5
c01081e0: f3 a5                        	rep		movsd	dword ptr es:[edi], dword ptr [esi]
c01081e2: 89 04 24                     	mov	dword ptr [esp], eax
c01081e5: ff 75 b0                     	push	dword ptr [ebp - 80]
c01081e8: e8 5f dd ff ff               	call	0xc0105f4c <vfs_read>
c01081ed: 83 c4 20                     	add	esp, 32
c01081f0: 85 c0                        	test	eax, eax
c01081f2: 0f 85 d2 00 00 00            	jne	0xc01082ca <ksymbol_init+0x317>
c01081f8: 83 ec 0c                     	sub	esp, 12
c01081fb: ff 75 80                     	push	dword ptr [ebp - 128]
c01081fe: e8 02 a2 ff ff               	call	0xc0102405 <malloc>
c0108203: 89 85 74 ff ff ff            	mov	dword ptr [ebp - 140], eax
c0108209: 5e                           	pop	esi
c010820a: 8d 75 88                     	lea	esi, [ebp - 120]
c010820d: 5f                           	pop	edi
c010820e: 6a 00                        	push	0
c0108210: 8d 7d b4                     	lea	edi, [ebp - 76]
c0108213: 6a 00                        	push	0
c0108215: ff b5 70 ff ff ff            	push	dword ptr [ebp - 144]
c010821b: ff 75 80                     	push	dword ptr [ebp - 128]
c010821e: 50                           	push	eax
c010821f: 8d 45 88                     	lea	eax, [ebp - 120]
c0108222: 50                           	push	eax
c0108223: e8 f7 d6 ff ff               	call	0xc010591f <uio_construct>
c0108228: 8d 45 b4                     	lea	eax, [ebp - 76]
c010822b: b9 05 00 00 00               	mov	ecx, 5
c0108230: f3 a5                        	rep		movsd	dword ptr es:[edi], dword ptr [esi]
c0108232: 89 04 24                     	mov	dword ptr [esp], eax
c0108235: ff 75 b0                     	push	dword ptr [ebp - 80]
c0108238: e8 0f dd ff ff               	call	0xc0105f4c <vfs_read>
c010823d: 83 c4 20                     	add	esp, 32
c0108240: 85 c0                        	test	eax, eax
c0108242: 0f 85 82 00 00 00            	jne	0xc01082ca <ksymbol_init+0x317>
c0108248: 8b 75 84                     	mov	esi, dword ptr [ebp - 124]
c010824b: 8b bd 78 ff ff ff            	mov	edi, dword ptr [ebp - 136]
c0108251: 83 e6 f0                     	and	esi, -16
c0108254: 89 f8                        	mov	eax, edi
c0108256: 01 f0                        	add	eax, esi
c0108258: 89 45 84                     	mov	dword ptr [ebp - 124], eax
c010825b: 8b 45 84                     	mov	eax, dword ptr [ebp - 124]
c010825e: 39 c7                        	cmp	edi, eax
c0108260: 74 29                        	je	0xc010828b <ksymbol_init+0x2d8>
c0108262: 8b 77 04                     	mov	esi, dword ptr [edi + 4]
c0108265: 85 f6                        	test	esi, esi
c0108267: 74 1d                        	je	0xc0108286 <ksymbol_init+0x2d3>
c0108269: 83 ec 0c                     	sub	esp, 12
c010826c: 8b 85 74 ff ff ff            	mov	eax, dword ptr [ebp - 140]
c0108272: 03 07                        	add	eax, dword ptr [edi]
c0108274: 50                           	push	eax
c0108275: e8 e4 90 ff ff               	call	0xc010135e <strdup>
c010827a: 5a                           	pop	edx
c010827b: 59                           	pop	ecx
c010827c: 56                           	push	esi
c010827d: 50                           	push	eax
c010827e: e8 05 fd ff ff               	call	0xc0107f88 <ksymbol_add_symbol>
c0108283: 83 c4 10                     	add	esp, 16
c0108286: 83 c7 10                     	add	edi, 16
c0108289: eb d0                        	jmp	0xc010825b <ksymbol_init+0x2a8>
c010828b: 83 ec 0c                     	sub	esp, 12
c010828e: ff b5 78 ff ff ff            	push	dword ptr [ebp - 136]
c0108294: e8 8b a2 ff ff               	call	0xc0102524 <free>
c0108299: 58                           	pop	eax
c010829a: ff b5 74 ff ff ff            	push	dword ptr [ebp - 140]
c01082a0: e8 7f a2 ff ff               	call	0xc0102524 <free>
c01082a5: 89 1c 24                     	mov	dword ptr [esp], ebx
c01082a8: e8 77 a2 ff ff               	call	0xc0102524 <free>
c01082ad: 5a                           	pop	edx
c01082ae: ff b5 7c ff ff ff            	push	dword ptr [ebp - 132]
c01082b4: e8 6b a2 ff ff               	call	0xc0102524 <free>
c01082b9: 59                           	pop	ecx
c01082ba: ff 75 b0                     	push	dword ptr [ebp - 80]
c01082bd: e8 9a de ff ff               	call	0xc010615c <vfs_close>
c01082c2: 8d 65 f4                     	lea	esp, [ebp - 12]
c01082c5: 5b                           	pop	ebx
c01082c6: 5e                           	pop	esi
c01082c7: 5f                           	pop	edi
c01082c8: 5d                           	pop	ebp
c01082c9: c3                           	ret
c01082ca: 83 ec 0c                     	sub	esp, 12
c01082cd: 68 17 b0 10 c0               	push	3222319127
c01082d2: e8 74 cf ff ff               	call	0xc010524b <panic>

c01082d7 <ksymbol_get_address_from_name>:
c01082d7: 55                           	push	ebp
c01082d8: 89 e5                        	mov	ebp, esp
c01082da: 53                           	push	ebx
c01082db: 51                           	push	ecx
c01082dc: 83 3d d8 0e 11 c0 00         	cmp	dword ptr [-1072623912], 0
c01082e3: 8b 5d 08                     	mov	ebx, dword ptr [ebp + 8]
c01082e6: 75 05                        	jne	0xc01082ed <ksymbol_get_address_from_name+0x16>
c01082e8: e8 c6 fc ff ff               	call	0xc0107fb3 <ksymbol_init>
c01082ed: 52                           	push	edx
c01082ee: 52                           	push	edx
c01082ef: 53                           	push	ebx
c01082f0: ff 35 d8 0e 11 c0            	push	dword ptr [-1072623912]
c01082f6: e8 89 c7 ff ff               	call	0xc0104a84 <adt_hashmap_contains>
c01082fb: 83 c4 10                     	add	esp, 16
c01082fe: 89 c2                        	mov	edx, eax
c0108300: 31 c0                        	xor	eax, eax
c0108302: 84 d2                        	test	dl, dl
c0108304: 74 11                        	je	0xc0108317 <ksymbol_get_address_from_name+0x40>
c0108306: 50                           	push	eax
c0108307: 50                           	push	eax
c0108308: 53                           	push	ebx
c0108309: ff 35 d8 0e 11 c0            	push	dword ptr [-1072623912]
c010830f: e8 49 c8 ff ff               	call	0xc0104b5d <adt_hashmap_get>
c0108314: 83 c4 10                     	add	esp, 16
c0108317: 8b 5d fc                     	mov	ebx, dword ptr [ebp - 4]
c010831a: c9                           	leave
c010831b: c3                           	ret

c010831c <x86_gdt_create_entry>:
c010831c: 55                           	push	ebp
c010831d: 89 e5                        	mov	ebp, esp
c010831f: 53                           	push	ebx
c0108320: 8b 4d 0c                     	mov	ecx, dword ptr [ebp + 12]
c0108323: 8b 55 08                     	mov	edx, dword ptr [ebp + 8]
c0108326: 8b 45 10                     	mov	eax, dword ptr [ebp + 16]
c0108329: 89 cb                        	mov	ebx, ecx
c010832b: 66 89 4a 02                  	mov	word ptr [edx + 2], cx
c010832f: c1 e9 18                     	shr	ecx, 24
c0108332: c1 eb 10                     	shr	ebx, 16
c0108335: 66 89 02                     	mov	word ptr [edx], ax
c0108338: c1 e8 10                     	shr	eax, 16
c010833b: 88 5a 04                     	mov	byte ptr [edx + 4], bl
c010833e: 8b 5d 14                     	mov	ebx, dword ptr [ebp + 20]
c0108341: 83 e0 0f                     	and	eax, 15
c0108344: 88 4a 07                     	mov	byte ptr [edx + 7], cl
c0108347: 88 5a 05                     	mov	byte ptr [edx + 5], bl
c010834a: 8a 5d 18                     	mov	bl, byte ptr [ebp + 24]
c010834d: c1 e3 04                     	shl	ebx, 4
c0108350: 09 d8                        	or	eax, ebx
c0108352: 88 42 06                     	mov	byte ptr [edx + 6], al
c0108355: 89 d0                        	mov	eax, edx
c0108357: 5b                           	pop	ebx
c0108358: 5d                           	pop	ebp
c0108359: c2 04 00                     	ret	4

c010835c <x86_gdt_initialise>:
c010835c: 55                           	push	ebp
c010835d: 31 d2                        	xor	edx, edx
c010835f: 89 e5                        	mov	ebp, esp
c0108361: 83 ec 14                     	sub	esp, 20
c0108364: a1 18 0e 11 c0               	mov	eax, dword ptr [3222343192]
c0108369: 8b 40 08                     	mov	eax, dword ptr [eax + 8]
c010836c: 89 50 04                     	mov	dword ptr [eax + 4], edx
c010836f: 89 50 08                     	mov	dword ptr [eax + 8], edx
c0108372: 8d 50 04                     	lea	edx, [eax + 4]
c0108375: 05 84 08 00 00               	add	eax, 2180
c010837a: c7 80 88 f7 ff ff ff ff 00 00	mov	dword ptr [eax - 2168], 65535
c0108384: c7 80 8c f7 ff ff 00 9a cf 00	mov	dword ptr [eax - 2164], 13605376
c010838e: c7 80 90 f7 ff ff ff ff 00 00	mov	dword ptr [eax - 2160], 65535
c0108398: c7 80 94 f7 ff ff 00 92 cf 00	mov	dword ptr [eax - 2156], 13603328
c01083a2: c7 80 98 f7 ff ff ff ff 00 00	mov	dword ptr [eax - 2152], 65535
c01083ac: c7 80 9c f7 ff ff 00 fa cf 00	mov	dword ptr [eax - 2148], 13629952
c01083b6: c7 80 a0 f7 ff ff ff ff 00 00	mov	dword ptr [eax - 2144], 65535
c01083c0: c7 80 a4 f7 ff ff 00 f2 cf 00	mov	dword ptr [eax - 2140], 13627904
c01083ca: 66 c7 00 7f 00               	mov	word ptr [eax], 127
c01083cf: 89 50 02                     	mov	dword ptr [eax + 2], edx
c01083d2: 50                           	push	eax
c01083d3: e8 f8 0c 00 00               	call	0xc01090d0 <x86_gdt_load>
c01083d8: 83 c4 10                     	add	esp, 16
c01083db: c9                           	leave
c01083dc: c3                           	ret

c01083dd <x86_gdt_add_tss>:
c01083dd: 55                           	push	ebp
c01083de: a1 18 0e 11 c0               	mov	eax, dword ptr [3222343192]
c01083e3: 8b 40 08                     	mov	eax, dword ptr [eax + 8]
c01083e6: 89 e5                        	mov	ebp, esp
c01083e8: 8b 55 08                     	mov	edx, dword ptr [ebp + 8]
c01083eb: 66 c7 40 2c 68 00            	mov	word ptr [eax + 44], 104
c01083f1: 66 c7 40 31 89 00            	mov	word ptr [eax + 49], 137
c01083f7: 89 d1                        	mov	ecx, edx
c01083f9: 66 89 50 2e                  	mov	word ptr [eax + 46], dx
c01083fd: c1 ea 18                     	shr	edx, 24
c0108400: c1 e9 10                     	shr	ecx, 16
c0108403: 88 50 33                     	mov	byte ptr [eax + 51], dl
c0108406: 88 48 30                     	mov	byte ptr [eax + 48], cl
c0108409: b8 28 00 00 00               	mov	eax, 40
c010840e: 5d                           	pop	ebp
c010840f: c3                           	ret

c0108410 <x86_idt_set_entry>:
c0108410: 55                           	push	ebp
c0108411: a1 18 0e 11 c0               	mov	eax, dword ptr [3222343192]
c0108416: 89 e5                        	mov	ebp, esp
c0108418: 53                           	push	ebx
c0108419: 8b 40 08                     	mov	eax, dword ptr [eax + 8]
c010841c: 8b 5d 08                     	mov	ebx, dword ptr [ebp + 8]
c010841f: 8b 55 0c                     	mov	edx, dword ptr [ebp + 12]
c0108422: 8b 4d 10                     	mov	ecx, dword ptr [ebp + 16]
c0108425: 8d 04 d8                     	lea	eax, [eax + 8*ebx]
c0108428: 66 89 90 84 00 00 00         	mov	word ptr [eax + 132], dx
c010842f: c1 ea 10                     	shr	edx, 16
c0108432: 66 89 90 8a 00 00 00         	mov	word ptr [eax + 138], dx
c0108439: 66 c7 80 86 00 00 00 08 00   	mov	word ptr [eax + 134], 8
c0108442: c6 80 88 00 00 00 00         	mov	byte ptr [eax + 136], 0
c0108449: 88 88 89 00 00 00            	mov	byte ptr [eax + 137], cl
c010844f: 5b                           	pop	ebx
c0108450: 5d                           	pop	ebp
c0108451: c3                           	ret

c0108452 <x86_idt_initialise>:
c0108452: 55                           	push	ebp
c0108453: b9 16 00 00 00               	mov	ecx, 22
c0108458: 89 e5                        	mov	ebp, esp
c010845a: 57                           	push	edi
c010845b: 56                           	push	esi
c010845c: 8d 7d 90                     	lea	edi, [ebp - 112]
c010845f: be 40 a1 10 c0               	mov	esi, 3222315328
c0108464: 53                           	push	ebx
c0108465: 81 ec ac 00 00 00            	sub	esp, 172
c010846b: a1 18 0e 11 c0               	mov	eax, dword ptr [3222343192]
c0108470: f3 a5                        	rep		movsd	dword ptr es:[edi], dword ptr [esi]
c0108472: 8d bd 50 ff ff ff            	lea	edi, [ebp - 176]
c0108478: be a0 a1 10 c0               	mov	esi, 3222315424
c010847d: b9 10 00 00 00               	mov	ecx, 16
c0108482: f3 a5                        	rep		movsd	dword ptr es:[edi], dword ptr [esi]
c0108484: 8b 58 08                     	mov	ebx, dword ptr [eax + 8]
c0108487: 31 f6                        	xor	esi, esi
c0108489: 51                           	push	ecx
c010848a: 68 8e 00 00 00               	push	142
c010848f: ff 74 b5 90                  	push	dword ptr [ebp + 4*esi - 112]
c0108493: 56                           	push	esi
c0108494: 46                           	inc	esi
c0108495: e8 76 ff ff ff               	call	0xc0108410 <x86_idt_set_entry>
c010849a: 83 c4 10                     	add	esp, 16
c010849d: 83 fe 15                     	cmp	esi, 21
c01084a0: 75 e7                        	jne	0xc0108489 <x86_idt_initialise+0x37>
c01084a2: be 20 00 00 00               	mov	esi, 32
c01084a7: 52                           	push	edx
c01084a8: 68 8e 00 00 00               	push	142
c01084ad: ff b4 b5 d0 fe ff ff         	push	dword ptr [ebp + 4*esi - 304]
c01084b4: 56                           	push	esi
c01084b5: 46                           	inc	esi
c01084b6: e8 55 ff ff ff               	call	0xc0108410 <x86_idt_set_entry>
c01084bb: 83 c4 10                     	add	esp, 16
c01084be: 83 fe 30                     	cmp	esi, 48
c01084c1: 75 e4                        	jne	0xc01084a7 <x86_idt_initialise+0x55>
c01084c3: 50                           	push	eax
c01084c4: 68 ee 00 00 00               	push	238
c01084c9: 68 c9 91 10 c0               	push	3222311369
c01084ce: 6a 60                        	push	96
c01084d0: e8 3b ff ff ff               	call	0xc0108410 <x86_idt_set_entry>
c01084d5: 8d 83 84 00 00 00            	lea	eax, [ebx + 132]
c01084db: 66 c7 83 8a 08 00 00 ff 07   	mov	word ptr [ebx + 2186], 2047
c01084e4: 81 c3 8a 08 00 00            	add	ebx, 2186
c01084ea: 89 43 02                     	mov	dword ptr [ebx + 2], eax
c01084ed: 89 1c 24                     	mov	dword ptr [esp], ebx
c01084f0: e8 fb 0b 00 00               	call	0xc01090f0 <x86_idt_load>
c01084f5: 83 c4 10                     	add	esp, 16
c01084f8: 8d 65 f4                     	lea	esp, [ebp - 12]
c01084fb: 5b                           	pop	ebx
c01084fc: 5e                           	pop	esi
c01084fd: 5f                           	pop	edi
c01084fe: 5d                           	pop	ebp
c01084ff: c3                           	ret

c0108500 <x86_handle_syscall>:
c0108500: 55                           	push	ebp
c0108501: 89 e5                        	mov	ebp, esp
c0108503: 53                           	push	ebx
c0108504: 83 ec 20                     	sub	esp, 32
c0108507: 8b 5d 08                     	mov	ebx, dword ptr [ebp + 8]
c010850a: 8b 43 20                     	mov	eax, dword ptr [ebx + 32]
c010850d: 89 45 e8                     	mov	dword ptr [ebp - 24], eax
c0108510: 8b 43 28                     	mov	eax, dword ptr [ebx + 40]
c0108513: 89 45 ec                     	mov	dword ptr [ebp - 20], eax
c0108516: 8b 43 14                     	mov	eax, dword ptr [ebx + 20]
c0108519: 89 45 f0                     	mov	dword ptr [ebp - 16], eax
c010851c: 8b 43 10                     	mov	eax, dword ptr [ebx + 16]
c010851f: 89 45 f4                     	mov	dword ptr [ebp - 12], eax
c0108522: a1 18 0e 11 c0               	mov	eax, dword ptr [3222343192]
c0108527: ff 30                        	push	dword ptr [eax]
c0108529: e8 f8 b4 ff ff               	call	0xc0103a26 <signal_check>
c010852e: 58                           	pop	eax
c010852f: 8d 45 e8                     	lea	eax, [ebp - 24]
c0108532: 5a                           	pop	edx
c0108533: 50                           	push	eax
c0108534: ff 73 2c                     	push	dword ptr [ebx + 44]
c0108537: e8 06 ae ff ff               	call	0xc0103342 <syscall_perform>
c010853c: 89 43 2c                     	mov	dword ptr [ebx + 44], eax
c010853f: 8b 5d fc                     	mov	ebx, dword ptr [ebp - 4]
c0108542: c9                           	leave
c0108543: c3                           	ret

c0108544 <x86_register_interrupt_handler>:
c0108544: 55                           	push	ebp
c0108545: b8 04 00 00 00               	mov	eax, 4
c010854a: 89 e5                        	mov	ebp, esp
c010854c: 8b 55 08                     	mov	edx, dword ptr [ebp + 8]
c010854f: 83 3c 95 e0 0e 11 c0 00      	cmp	dword ptr [4*edx - 1072623904], 0
c0108557: 75 19                        	jne	0xc0108572 <x86_register_interrupt_handler+0x2e>
c0108559: b8 07 00 00 00               	mov	eax, 7
c010855e: 81 fa ff 00 00 00            	cmp	edx, 255
c0108564: 77 0c                        	ja	0xc0108572 <x86_register_interrupt_handler+0x2e>
c0108566: 8b 45 0c                     	mov	eax, dword ptr [ebp + 12]
c0108569: 89 04 95 e0 0e 11 c0         	mov	dword ptr [4*edx - 1072623904], eax
c0108570: 31 c0                        	xor	eax, eax
c0108572: 5d                           	pop	ebp
c0108573: c3                           	ret

c0108574 <x86_interrupt_initialise>:
c0108574: 55                           	push	ebp
c0108575: 89 e5                        	mov	ebp, esp
c0108577: 83 ec 0c                     	sub	esp, 12
c010857a: 68 00 04 00 00               	push	1024
c010857f: 6a 00                        	push	0
c0108581: 68 e0 0e 11 c0               	push	3222343392
c0108586: e8 ef 8c ff ff               	call	0xc010127a <memset>
c010858b: 58                           	pop	eax
c010858c: 5a                           	pop	edx
c010858d: 68 aa 8c 10 c0               	push	3222310058
c0108592: 6a 0e                        	push	14
c0108594: e8 ab ff ff ff               	call	0xc0108544 <x86_register_interrupt_handler>
c0108599: 59                           	pop	ecx
c010859a: 58                           	pop	eax
c010859b: 68 00 85 10 c0               	push	3222308096
c01085a0: 6a 60                        	push	96
c01085a2: e8 9d ff ff ff               	call	0xc0108544 <x86_register_interrupt_handler>
c01085a7: 83 c4 10                     	add	esp, 16
c01085aa: c9                           	leave
c01085ab: c3                           	ret

c01085ac <x86_interrupt_handler>:
c01085ac: 55                           	push	ebp
c01085ad: 89 e5                        	mov	ebp, esp
c01085af: 56                           	push	esi
c01085b0: 53                           	push	ebx
c01085b1: 8b 75 08                     	mov	esi, dword ptr [ebp + 8]
c01085b4: 8b 5e 30                     	mov	ebx, dword ptr [esi + 48]
c01085b7: 83 ec 0c                     	sub	esp, 12
c01085ba: 53                           	push	ebx
c01085bb: e8 1a f5 ff ff               	call	0xc0107ada <pic_is_spurious>
c01085c0: 83 c4 10                     	add	esp, 16
c01085c3: 84 c0                        	test	al, al
c01085c5: 0f 85 91 00 00 00            	jne	0xc010865c <x86_interrupt_handler+0xb0>
c01085cb: 8d 43 e0                     	lea	eax, [ebx - 32]
c01085ce: 83 f8 0f                     	cmp	eax, 15
c01085d1: 77 10                        	ja	0xc01085e3 <x86_interrupt_handler+0x37>
c01085d3: 83 ec 0c                     	sub	esp, 12
c01085d6: 53                           	push	ebx
c01085d7: e8 4b f5 ff ff               	call	0xc0107b27 <pic_eoi>
c01085dc: 83 c4 10                     	add	esp, 16
c01085df: 31 c0                        	xor	eax, eax
c01085e1: eb 0a                        	jmp	0xc01085ed <x86_interrupt_handler+0x41>
c01085e3: 83 fb 1f                     	cmp	ebx, 31
c01085e6: 7f f7                        	jg	0xc01085df <x86_interrupt_handler+0x33>
c01085e8: b8 13 00 00 00               	mov	eax, 19
c01085ed: 8b 14 9d e0 0e 11 c0         	mov	edx, dword ptr [4*ebx - 1072623904]
c01085f4: 85 d2                        	test	edx, edx
c01085f6: 74 09                        	je	0xc0108601 <x86_interrupt_handler+0x55>
c01085f8: 83 ec 0c                     	sub	esp, 12
c01085fb: 56                           	push	esi
c01085fc: ff d2                        	call	edx
c01085fe: 83 c4 10                     	add	esp, 16
c0108601: 85 c0                        	test	eax, eax
c0108603: 74 57                        	je	0xc010865c <x86_interrupt_handler+0xb0>
c0108605: 83 fb 60                     	cmp	ebx, 96
c0108608: 74 52                        	je	0xc010865c <x86_interrupt_handler+0xb0>
c010860a: b8 50 b0 10 c0               	mov	eax, 3222319184
c010860f: 83 fb 12                     	cmp	ebx, 18
c0108612: 7f 0a                        	jg	0xc010861e <x86_interrupt_handler+0x72>
c0108614: 89 d8                        	mov	eax, ebx
c0108616: c1 e0 05                     	shl	eax, 5
c0108619: 05 40 c0 10 c0               	add	eax, 3222323264
c010861e: 52                           	push	edx
c010861f: 53                           	push	ebx
c0108620: 50                           	push	eax
c0108621: 68 58 b0 10 c0               	push	3222319192
c0108626: e8 58 ca ff ff               	call	0xc0105083 <kprintf>
c010862b: 83 c4 10                     	add	esp, 16
c010862e: 83 7e 3c 10                  	cmp	dword ptr [esi + 60], 16
c0108632: 77 0d                        	ja	0xc0108641 <x86_interrupt_handler+0x95>
c0108634: 83 ec 0c                     	sub	esp, 12
c0108637: 68 77 b0 10 c0               	push	3222319223
c010863c: e8 0a cc ff ff               	call	0xc010524b <panic>
c0108641: 83 ec 0c                     	sub	esp, 12
c0108644: 68 84 b0 10 c0               	push	3222319236
c0108649: e8 35 ca ff ff               	call	0xc0105083 <kprintf>
c010864e: 83 c4 10                     	add	esp, 16
c0108651: 8d 65 f8                     	lea	esp, [ebp - 8]
c0108654: 5b                           	pop	ebx
c0108655: 5e                           	pop	esi
c0108656: 5d                           	pop	ebp
c0108657: e9 11 bf ff ff               	jmp	0xc010456d <thread_terminate>
c010865c: 8d 65 f8                     	lea	esp, [ebp - 8]
c010865f: 5b                           	pop	ebx
c0108660: 5e                           	pop	esi
c0108661: 5d                           	pop	ebp
c0108662: c3                           	ret

c0108663 <x86_tss_initialise>:
c0108663: 55                           	push	ebp
c0108664: 89 e5                        	mov	ebp, esp
c0108666: 53                           	push	ebx
c0108667: 83 ec 10                     	sub	esp, 16
c010866a: a1 18 0e 11 c0               	mov	eax, dword ptr [3222343192]
c010866f: 8b 58 08                     	mov	ebx, dword ptr [eax + 8]
c0108672: 6a 68                        	push	104
c0108674: e8 8c 9d ff ff               	call	0xc0102405 <malloc>
c0108679: 31 d2                        	xor	edx, edx
c010867b: 89 03                        	mov	dword ptr [ebx], eax
c010867d: 66 c7 00 10 00               	mov	word ptr [eax], 16
c0108682: 8b 03                        	mov	eax, dword ptr [ebx]
c0108684: 89 50 04                     	mov	dword ptr [eax + 4], edx
c0108687: 8b 03                        	mov	eax, dword ptr [ebx]
c0108689: 66 c7 40 08 10 00            	mov	word ptr [eax + 8], 16
c010868f: 8b 03                        	mov	eax, dword ptr [ebx]
c0108691: 66 c7 40 66 68 00            	mov	word ptr [eax + 102], 104
c0108697: 59                           	pop	ecx
c0108698: ff 33                        	push	dword ptr [ebx]
c010869a: e8 3e fd ff ff               	call	0xc01083dd <x86_gdt_add_tss>
c010869f: 0f b7 c0                     	movzx	eax, ax
c01086a2: 89 04 24                     	mov	dword ptr [esp], eax
c01086a5: e8 b6 0b 00 00               	call	0xc0109260 <x86_tss_load>
c01086aa: 8b 5d fc                     	mov	ebx, dword ptr [ebp - 4]
c01086ad: 83 c4 10                     	add	esp, 16
c01086b0: c9                           	leave
c01086b1: c3                           	ret

c01086b2 <arch_get_memory>:
c01086b2: 55                           	push	ebp
c01086b3: 89 e5                        	mov	ebp, esp
c01086b5: 56                           	push	esi
c01086b6: 53                           	push	ebx
c01086b7: ff 05 a0 c2 10 c0            	inc	dword ptr [-1072643424]
c01086bd: 83 3d e0 12 11 c0 00         	cmp	dword ptr [-1072622880], 0
c01086c4: 75 44                        	jne	0xc010870a <arch_get_memory+0x58>
c01086c6: 83 ec 0c                     	sub	esp, 12
c01086c9: ff 35 6b 90 10 c0            	push	dword ptr [-1072656277]
c01086cf: e8 b8 00 00 00               	call	0xc010878c <lowmem_physical_to_virtual>
c01086d4: 83 c4 10                     	add	esp, 16
c01086d7: a3 6b 90 10 c0               	mov	dword ptr [3222311019], eax
c01086dc: f6 00 40                     	test	byte ptr [eax], 64
c01086df: 75 0d                        	jne	0xc01086ee <arch_get_memory+0x3c>
c01086e1: 83 ec 0c                     	sub	esp, 12
c01086e4: 68 dc b0 10 c0               	push	3222319324
c01086e9: e8 5d cb ff ff               	call	0xc010524b <panic>
c01086ee: 8b 50 2c                     	mov	edx, dword ptr [eax + 44]
c01086f1: 83 ec 0c                     	sub	esp, 12
c01086f4: 89 15 f0 12 11 c0            	mov	dword ptr [-1072622864], edx
c01086fa: ff 70 30                     	push	dword ptr [eax + 48]
c01086fd: e8 8a 00 00 00               	call	0xc010878c <lowmem_physical_to_virtual>
c0108702: 83 c4 10                     	add	esp, 16
c0108705: a3 e0 12 11 c0               	mov	dword ptr [3222344416], eax
c010870a: 8b 1d ec 12 11 c0            	mov	ebx, dword ptr [-1072622868]
c0108710: 3b 1d f0 12 11 c0            	cmp	ebx, dword ptr [-1072622864]
c0108716: 7d 6b                        	jge	0xc0108783 <arch_get_memory+0xd1>
c0108718: 8b 15 e0 12 11 c0            	mov	edx, dword ptr [-1072622880]
c010871e: 83 c8 ff                     	or	eax, -1
c0108721: 8b 4a 04                     	mov	ecx, dword ptr [edx + 4]
c0108724: 83 7a 10 00                  	cmp	dword ptr [edx + 16], 0
c0108728: 8b 72 14                     	mov	esi, dword ptr [edx + 20]
c010872b: 89 0d e4 12 11 c0            	mov	dword ptr [-1072622876], ecx
c0108731: 75 03                        	jne	0xc0108736 <arch_get_memory+0x84>
c0108733: 8b 42 0c                     	mov	eax, dword ptr [edx + 12]
c0108736: 83 c2 18                     	add	edx, 24
c0108739: 83 c3 18                     	add	ebx, 24
c010873c: 4e                           	dec	esi
c010873d: a3 e8 12 11 c0               	mov	dword ptr [3222344424], eax
c0108742: 89 15 e0 12 11 c0            	mov	dword ptr [-1072622880], edx
c0108748: 89 1d ec 12 11 c0            	mov	dword ptr [-1072622868], ebx
c010874e: 0f 85 69 ff ff ff            	jne	0xc01086bd <arch_get_memory+0xb>
c0108754: ba ff cf 11 00               	mov	edx, 1167359
c0108759: 01 c8                        	add	eax, ecx
c010875b: 81 e2 00 f0 ff ff            	and	edx, 4294963200
c0108761: 39 d0                        	cmp	eax, edx
c0108763: 0f 82 54 ff ff ff            	jb	0xc01086bd <arch_get_memory+0xb>
c0108769: 39 d1                        	cmp	ecx, edx
c010876b: 72 07                        	jb	0xc0108774 <arch_get_memory+0xc2>
c010876d: b8 e4 12 11 c0               	mov	eax, 3222344420
c0108772: eb 11                        	jmp	0xc0108785 <arch_get_memory+0xd3>
c0108774: 29 d0                        	sub	eax, edx
c0108776: 89 15 e4 12 11 c0            	mov	dword ptr [-1072622876], edx
c010877c: a3 e8 12 11 c0               	mov	dword ptr [3222344424], eax
c0108781: eb ea                        	jmp	0xc010876d <arch_get_memory+0xbb>
c0108783: 31 c0                        	xor	eax, eax
c0108785: 8d 65 f8                     	lea	esp, [ebp - 8]
c0108788: 5b                           	pop	ebx
c0108789: 5e                           	pop	esi
c010878a: 5d                           	pop	ebp
c010878b: c3                           	ret

c010878c <lowmem_physical_to_virtual>:
c010878c: 55                           	push	ebp
c010878d: 89 e5                        	mov	ebp, esp
c010878f: 8b 45 08                     	mov	eax, dword ptr [ebp + 8]
c0108792: 5d                           	pop	ebp
c0108793: 2d 00 00 00 40               	sub	eax, 1073741824
c0108798: c3                           	ret

c0108799 <arch_vas_destroy>:
c0108799: e9 86 9d ff ff               	jmp	0xc0102524 <free>

c010879e <arch_vas_load>:
c010879e: 55                           	push	ebp
c010879f: 89 e5                        	mov	ebp, esp
c01087a1: 8b 45 08                     	mov	eax, dword ptr [ebp + 8]
c01087a4: 8b 00                        	mov	eax, dword ptr [eax]
c01087a6: 89 45 08                     	mov	dword ptr [ebp + 8], eax
c01087a9: 5d                           	pop	ebp
c01087aa: e9 c1 0a 00 00               	jmp	0xc0109270 <x86_set_cr3>

c01087af <arch_vas_set_entry>:
c01087af: 55                           	push	ebp
c01087b0: 89 e5                        	mov	ebp, esp
c01087b2: 53                           	push	ebx
c01087b3: 52                           	push	edx
c01087b4: 8b 45 14                     	mov	eax, dword ptr [ebp + 20]
c01087b7: 89 c3                        	mov	ebx, eax
c01087b9: 83 e3 01                     	and	ebx, 1
c01087bc: 01 db                        	add	ebx, ebx
c01087be: a8 04                        	test	al, 4
c01087c0: 74 03                        	je	0xc01087c5 <arch_vas_set_entry+0x16>
c01087c2: 83 cb 04                     	or	ebx, 4
c01087c5: a8 10                        	test	al, 16
c01087c7: 74 03                        	je	0xc01087cc <arch_vas_set_entry+0x1d>
c01087c9: 83 cb 01                     	or	ebx, 1
c01087cc: a8 20                        	test	al, 32
c01087ce: 74 03                        	je	0xc01087d3 <arch_vas_set_entry+0x24>
c01087d0: 80 cf 01                     	or	bh, 1
c01087d3: a8 08                        	test	al, 8
c01087d5: 74 03                        	je	0xc01087da <arch_vas_set_entry+0x2b>
c01087d7: 80 cf 08                     	or	bh, 8
c01087da: a8 40                        	test	al, 64
c01087dc: 74 03                        	je	0xc01087e1 <arch_vas_set_entry+0x32>
c01087de: 80 cf 04                     	or	bh, 4
c01087e1: 50                           	push	eax
c01087e2: 6a 01                        	push	1
c01087e4: ff 75 0c                     	push	dword ptr [ebp + 12]
c01087e7: ff 75 08                     	push	dword ptr [ebp + 8]
c01087ea: e8 47 02 00 00               	call	0xc0108a36 <x86_get_entry>
c01087ef: 0b 5d 10                     	or	ebx, dword ptr [ebp + 16]
c01087f2: 83 c4 10                     	add	esp, 16
c01087f5: 89 18                        	mov	dword ptr [eax], ebx
c01087f7: 8b 5d fc                     	mov	ebx, dword ptr [ebp - 4]
c01087fa: c9                           	leave
c01087fb: c3                           	ret

c01087fc <allocate_page_table>:
c01087fc: 55                           	push	ebp
c01087fd: 89 e5                        	mov	ebp, esp
c01087ff: 57                           	push	edi
c0108800: 89 d7                        	mov	edi, edx
c0108802: 56                           	push	esi
c0108803: 89 c6                        	mov	esi, eax
c0108805: 53                           	push	ebx
c0108806: 83 ec 1c                     	sub	esp, 28
c0108809: 89 4d e4                     	mov	dword ptr [ebp - 28], ecx
c010880c: e8 12 9f ff ff               	call	0xc0102723 <phys_allocate_page>
c0108811: 6a 31                        	push	49
c0108813: 50                           	push	eax
c0108814: 89 c3                        	mov	ebx, eax
c0108816: 68 00 50 11 c0               	push	3222360064
c010881b: 56                           	push	esi
c010881c: e8 8e ff ff ff               	call	0xc01087af <arch_vas_set_entry>
c0108821: e8 f9 a1 ff ff               	call	0xc0102a1f <vas_flush_tlb>
c0108826: 83 c4 0c                     	add	esp, 12
c0108829: 68 00 10 00 00               	push	4096
c010882e: 6a 00                        	push	0
c0108830: 68 00 50 11 c0               	push	3222360064
c0108835: e8 40 8a ff ff               	call	0xc010127a <memset>
c010883a: 6a 00                        	push	0
c010883c: 53                           	push	ebx
c010883d: 68 00 50 11 c0               	push	3222360064
c0108842: 56                           	push	esi
c0108843: e8 67 ff ff ff               	call	0xc01087af <arch_vas_set_entry>
c0108848: 8b 4d e4                     	mov	ecx, dword ptr [ebp - 28]
c010884b: 83 c4 20                     	add	esp, 32
c010884e: 31 c0                        	xor	eax, eax
c0108850: 81 f9 ff 02 00 00            	cmp	ecx, 767
c0108856: 0f 9e c0                     	setle	al
c0108859: c1 e0 02                     	shl	eax, 2
c010885c: 09 d8                        	or	eax, ebx
c010885e: 0d 03 01 00 00               	or	eax, 259
c0108863: 89 04 8f                     	mov	dword ptr [edi + 4*ecx], eax
c0108866: 8d 65 f4                     	lea	esp, [ebp - 12]
c0108869: 5b                           	pop	ebx
c010886a: 5e                           	pop	esi
c010886b: 5f                           	pop	edi
c010886c: 5d                           	pop	ebp
c010886d: e9 ad a1 ff ff               	jmp	0xc0102a1f <vas_flush_tlb>

c0108872 <x86_per_cpu_virt_initialise>:
c0108872: 55                           	push	ebp
c0108873: 89 e5                        	mov	ebp, esp
c0108875: 56                           	push	esi
c0108876: 53                           	push	ebx
c0108877: bb ff cf 11 c0               	mov	ebx, 3222392831
c010887c: 51                           	push	ecx
c010887d: 81 e3 00 f0 ff ff            	and	ebx, 4294963200
c0108883: 68 00 10 00 00               	push	4096
c0108888: 6a 00                        	push	0
c010888a: 68 00 40 11 c0               	push	3222355968
c010888f: e8 e6 89 ff ff               	call	0xc010127a <memset>
c0108894: 5e                           	pop	esi
c0108895: 58                           	pop	eax
c0108896: 53                           	push	ebx
c0108897: 68 f4 b0 10 c0               	push	3222319348
c010889c: 81 c3 00 00 00 40            	add	ebx, 1073741824
c01088a2: c1 eb 0c                     	shr	ebx, 12
c01088a5: e8 d9 c7 ff ff               	call	0xc0105083 <kprintf>
c01088aa: b8 00 30 11 00               	mov	eax, 1126400
c01088af: 83 c4 10                     	add	esp, 16
c01088b2: 31 d2                        	xor	edx, edx
c01088b4: 0d 07 01 00 00               	or	eax, 263
c01088b9: a3 00 4c 11 c0               	mov	dword ptr [3222359040], eax
c01088be: 39 da                        	cmp	edx, ebx
c01088c0: 8d 42 01                     	lea	eax, [edx + 1]
c01088c3: 74 16                        	je	0xc01088db <x86_per_cpu_virt_initialise+0x69>
c01088c5: 89 d1                        	mov	ecx, edx
c01088c7: c1 e1 0c                     	shl	ecx, 12
c01088ca: 81 c9 01 01 00 00            	or	ecx, 257
c01088d0: 89 0c 95 00 30 11 c0         	mov	dword ptr [4*edx - 1072615424], ecx
c01088d7: 89 c2                        	mov	edx, eax
c01088d9: eb e3                        	jmp	0xc01088be <x86_per_cpu_virt_initialise+0x4c>
c01088db: 3d ff 03 00 00               	cmp	eax, 1023
c01088e0: 77 0e                        	ja	0xc01088f0 <x86_per_cpu_virt_initialise+0x7e>
c01088e2: c7 04 85 00 30 11 c0 00 01 00 00     	mov	dword ptr [4*eax - 1072615424], 256
c01088ed: 40                           	inc	eax
c01088ee: eb eb                        	jmp	0xc01088db <x86_per_cpu_virt_initialise+0x69>
c01088f0: b8 00 40 11 00               	mov	eax, 1130496
c01088f5: 0d 03 01 00 00               	or	eax, 259
c01088fa: a3 fc 4f 11 c0               	mov	dword ptr [3222360060], eax
c01088ff: e8 9b c6 ff ff               	call	0xc0104f9f <cpu_get_count>
c0108904: 6b c0 50                     	imul	eax, eax, 80
c0108907: 52                           	push	edx
c0108908: 52                           	push	edx
c0108909: 68 0c b1 10 c0               	push	3222319372
c010890e: 05 88 20 11 c0               	add	eax, 3222347912
c0108913: 50                           	push	eax
c0108914: e8 36 b2 ff ff               	call	0xc0103b4f <spinlock_init>
c0108919: e8 81 c6 ff ff               	call	0xc0104f9f <cpu_get_count>
c010891e: 89 c3                        	mov	ebx, eax
c0108920: e8 7a c6 ff ff               	call	0xc0104f9f <cpu_get_count>
c0108925: 8d 14 dd 00 20 11 c0         	lea	edx, [8*ebx - 1072619520]
c010892c: bb 01 03 00 00               	mov	ebx, 769
c0108931: 6b c0 50                     	imul	eax, eax, 80
c0108934: 89 90 80 20 11 c0            	mov	dword ptr [eax - 1072619392], edx
c010893a: e8 60 c6 ff ff               	call	0xc0104f9f <cpu_get_count>
c010893f: c7 04 c5 00 20 11 c0 00 40 11 00     	mov	dword ptr [8*eax - 1072619520], 1130496
c010894a: e8 50 c6 ff ff               	call	0xc0104f9f <cpu_get_count>
c010894f: c7 04 c5 04 20 11 c0 00 40 11 c0     	mov	dword ptr [8*eax - 1072619516], 3222355968
c010895a: e8 40 c6 ff ff               	call	0xc0104f9f <cpu_get_count>
c010895f: 8d 04 c5 00 20 11 c0         	lea	eax, [8*eax - 1072619520]
c0108966: 89 04 24                     	mov	dword ptr [esp], eax
c0108969: e8 30 fe ff ff               	call	0xc010879e <arch_vas_load>
c010896e: 83 c4 10                     	add	esp, 16
c0108971: e8 29 c6 ff ff               	call	0xc0104f9f <cpu_get_count>
c0108976: 83 ec 0c                     	sub	esp, 12
c0108979: 6b c0 50                     	imul	eax, eax, 80
c010897c: 05 88 20 11 c0               	add	eax, 3222347912
c0108981: 50                           	push	eax
c0108982: e8 f7 b1 ff ff               	call	0xc0103b7e <spinlock_acquire>
c0108987: e8 13 c6 ff ff               	call	0xc0104f9f <cpu_get_count>
c010898c: 89 d9                        	mov	ecx, ebx
c010898e: ba 00 40 11 c0               	mov	edx, 3222355968
c0108993: 43                           	inc	ebx
c0108994: 6b c0 50                     	imul	eax, eax, 80
c0108997: 05 80 20 11 c0               	add	eax, 3222347904
c010899c: e8 5b fe ff ff               	call	0xc01087fc <allocate_page_table>
c01089a1: e8 f9 c5 ff ff               	call	0xc0104f9f <cpu_get_count>
c01089a6: 6b c0 50                     	imul	eax, eax, 80
c01089a9: 05 88 20 11 c0               	add	eax, 3222347912
c01089ae: 89 04 24                     	mov	dword ptr [esp], eax
c01089b1: e8 cd b1 ff ff               	call	0xc0103b83 <spinlock_release>
c01089b6: 83 c4 10                     	add	esp, 16
c01089b9: 81 fb ff 03 00 00            	cmp	ebx, 1023
c01089bf: 75 b0                        	jne	0xc0108971 <x86_per_cpu_virt_initialise+0xff>
c01089c1: e8 d9 c5 ff ff               	call	0xc0104f9f <cpu_get_count>
c01089c6: 85 c0                        	test	eax, eax
c01089c8: 75 12                        	jne	0xc01089dc <x86_per_cpu_virt_initialise+0x16a>
c01089ca: 83 ec 0c                     	sub	esp, 12
c01089cd: 6a 10                        	push	16
c01089cf: e8 89 a3 ff ff               	call	0xc0102d5d <virt_allocate_unbacked_krnl_region>
c01089d4: 83 c4 10                     	add	esp, 16
c01089d7: a3 18 0e 11 c0               	mov	dword ptr [3222343192], eax
c01089dc: 8b 35 18 0e 11 c0            	mov	esi, dword ptr [-1072624104]
c01089e2: e8 3c 9d ff ff               	call	0xc0102723 <phys_allocate_page>
c01089e7: 89 c3                        	mov	ebx, eax
c01089e9: e8 b1 c5 ff ff               	call	0xc0104f9f <cpu_get_count>
c01089ee: 6a 21                        	push	33
c01089f0: 6b c0 50                     	imul	eax, eax, 80
c01089f3: 56                           	push	esi
c01089f4: 53                           	push	ebx
c01089f5: 05 80 20 11 c0               	add	eax, 3222347904
c01089fa: 50                           	push	eax
c01089fb: e8 f8 a0 ff ff               	call	0xc0102af8 <vas_map>
c0108a00: e8 9a c5 ff ff               	call	0xc0104f9f <cpu_get_count>
c0108a05: 8b 1d 18 0e 11 c0            	mov	ebx, dword ptr [-1072624104]
c0108a0b: 6b c0 50                     	imul	eax, eax, 80
c0108a0e: 05 80 20 11 c0               	add	eax, 3222347904
c0108a13: 89 43 04                     	mov	dword ptr [ebx + 4], eax
c0108a16: e8 84 c5 ff ff               	call	0xc0104f9f <cpu_get_count>
c0108a1b: 89 43 0c                     	mov	dword ptr [ebx + 12], eax
c0108a1e: 58                           	pop	eax
c0108a1f: a1 18 0e 11 c0               	mov	eax, dword ptr [3222343192]
c0108a24: ff 70 04                     	push	dword ptr [eax + 4]
c0108a27: e8 49 a0 ff ff               	call	0xc0102a75 <vas_load>
c0108a2c: 83 c4 10                     	add	esp, 16
c0108a2f: 8d 65 f8                     	lea	esp, [ebp - 8]
c0108a32: 5b                           	pop	ebx
c0108a33: 5e                           	pop	esi
c0108a34: 5d                           	pop	ebp
c0108a35: c3                           	ret

c0108a36 <x86_get_entry>:
c0108a36: 55                           	push	ebp
c0108a37: 89 e5                        	mov	ebp, esp
c0108a39: 57                           	push	edi
c0108a3a: 56                           	push	esi
c0108a3b: 53                           	push	ebx
c0108a3c: 83 ec 0c                     	sub	esp, 12
c0108a3f: 8b 7d 08                     	mov	edi, dword ptr [ebp + 8]
c0108a42: 8b 5d 0c                     	mov	ebx, dword ptr [ebp + 12]
c0108a45: 8b 4d 10                     	mov	ecx, dword ptr [ebp + 16]
c0108a48: 8b 07                        	mov	eax, dword ptr [edi]
c0108a4a: 89 de                        	mov	esi, ebx
c0108a4c: c1 ee 16                     	shr	esi, 22
c0108a4f: 8b 50 04                     	mov	edx, dword ptr [eax + 4]
c0108a52: f6 04 b2 01                  	test	byte ptr [edx + 4*esi], 1
c0108a56: 75 24                        	jne	0xc0108a7c <x86_get_entry+0x46>
c0108a58: 81 fb ff ff ff bf            	cmp	ebx, 3221225471
c0108a5e: 76 0d                        	jbe	0xc0108a6d <x86_get_entry+0x37>
c0108a60: 83 ec 0c                     	sub	esp, 12
c0108a63: 68 1c b1 10 c0               	push	3222319388
c0108a68: e8 de c7 ff ff               	call	0xc010524b <panic>
c0108a6d: 31 c0                        	xor	eax, eax
c0108a6f: 84 c9                        	test	cl, cl
c0108a71: 74 1c                        	je	0xc0108a8f <x86_get_entry+0x59>
c0108a73: 89 f1                        	mov	ecx, esi
c0108a75: 89 f8                        	mov	eax, edi
c0108a77: e8 80 fd ff ff               	call	0xc01087fc <allocate_page_table>
c0108a7c: c1 eb 0a                     	shr	ebx, 10
c0108a7f: c1 e6 0c                     	shl	esi, 12
c0108a82: 81 e3 fc 0f 00 00            	and	ebx, 4092
c0108a88: 8d 84 1e 00 00 c0 ff         	lea	eax, [esi + ebx - 4194304]
c0108a8f: 8d 65 f4                     	lea	esp, [ebp - 12]
c0108a92: 5b                           	pop	ebx
c0108a93: 5e                           	pop	esi
c0108a94: 5f                           	pop	edi
c0108a95: 5d                           	pop	ebp
c0108a96: c3                           	ret

c0108a97 <x86_perform_copy_on_write>:
c0108a97: 55                           	push	ebp
c0108a98: 89 e5                        	mov	ebp, esp
c0108a9a: 57                           	push	edi
c0108a9b: 56                           	push	esi
c0108a9c: 89 c6                        	mov	esi, eax
c0108a9e: 53                           	push	ebx
c0108a9f: 89 f7                        	mov	edi, esi
c0108aa1: 81 e7 00 f0 ff ff            	and	edi, 4294963200
c0108aa7: 81 ec 10 10 00 00            	sub	esp, 4112
c0108aad: 6a 00                        	push	0
c0108aaf: 50                           	push	eax
c0108ab0: a1 18 0e 11 c0               	mov	eax, dword ptr [3222343192]
c0108ab5: ff 70 04                     	push	dword ptr [eax + 4]
c0108ab8: e8 79 ff ff ff               	call	0xc0108a36 <x86_get_entry>
c0108abd: 83 c4 0c                     	add	esp, 12
c0108ac0: 8d 95 e8 ef ff ff            	lea	edx, [ebp - 4120]
c0108ac6: 68 00 10 00 00               	push	4096
c0108acb: 89 c3                        	mov	ebx, eax
c0108acd: 57                           	push	edi
c0108ace: 52                           	push	edx
c0108acf: e8 60 87 ff ff               	call	0xc0101234 <memcpy>
c0108ad4: e8 4a 9c ff ff               	call	0xc0102723 <phys_allocate_page>
c0108ad9: 8b 0b                        	mov	ecx, dword ptr [ebx]
c0108adb: 81 e1 00 f0 ff ff            	and	ecx, 4294963200
c0108ae1: 09 c8                        	or	eax, ecx
c0108ae3: 89 03                        	mov	dword ptr [ebx], eax
c0108ae5: e8 35 9f ff ff               	call	0xc0102a1f <vas_flush_tlb>
c0108aea: 83 c4 0c                     	add	esp, 12
c0108aed: 8d 95 e8 ef ff ff            	lea	edx, [ebp - 4120]
c0108af3: 68 00 10 00 00               	push	4096
c0108af8: 52                           	push	edx
c0108af9: 57                           	push	edi
c0108afa: e8 35 87 ff ff               	call	0xc0101234 <memcpy>
c0108aff: 8b 03                        	mov	eax, dword ptr [ebx]
c0108b01: 83 c4 10                     	add	esp, 16
c0108b04: 80 e4 f7                     	and	ah, -9
c0108b07: 83 c8 02                     	or	eax, 2
c0108b0a: 89 03                        	mov	dword ptr [ebx], eax
c0108b0c: a1 18 0e 11 c0               	mov	eax, dword ptr [3222343192]
c0108b11: 8b 58 04                     	mov	ebx, dword ptr [eax + 4]
c0108b14: 50                           	push	eax
c0108b15: 6a 00                        	push	0
c0108b17: 56                           	push	esi
c0108b18: 53                           	push	ebx
c0108b19: e8 18 ff ff ff               	call	0xc0108a36 <x86_get_entry>
c0108b1e: 83 c4 10                     	add	esp, 16
c0108b21: 8b 10                        	mov	edx, dword ptr [eax]
c0108b23: 80 e6 f7                     	and	dh, -9
c0108b26: 83 ca 02                     	or	edx, 2
c0108b29: 89 10                        	mov	dword ptr [eax], edx
c0108b2b: 8b 5b 04                     	mov	ebx, dword ptr [ebx + 4]
c0108b2e: 85 db                        	test	ebx, ebx
c0108b30: 75 e2                        	jne	0xc0108b14 <x86_perform_copy_on_write+0x7d>
c0108b32: 8d 65 f4                     	lea	esp, [ebp - 12]
c0108b35: 5b                           	pop	ebx
c0108b36: 5e                           	pop	esi
c0108b37: 5f                           	pop	edi
c0108b38: 5d                           	pop	ebp
c0108b39: c3                           	ret

c0108b3a <arch_vas_create>:
c0108b3a: 55                           	push	ebp
c0108b3b: 89 e5                        	mov	ebp, esp
c0108b3d: 57                           	push	edi
c0108b3e: 56                           	push	esi
c0108b3f: 53                           	push	ebx
c0108b40: 83 ec 18                     	sub	esp, 24
c0108b43: 6a 08                        	push	8
c0108b45: e8 bb 98 ff ff               	call	0xc0102405 <malloc>
c0108b4a: 89 c3                        	mov	ebx, eax
c0108b4c: 8b 45 08                     	mov	eax, dword ptr [ebp + 8]
c0108b4f: 89 18                        	mov	dword ptr [eax], ebx
c0108b51: e8 cd 9b ff ff               	call	0xc0102723 <phys_allocate_page>
c0108b56: 89 03                        	mov	dword ptr [ebx], eax
c0108b58: c7 04 24 00 10 00 00         	mov	dword ptr [esp], 4096
c0108b5f: e8 f9 a1 ff ff               	call	0xc0102d5d <virt_allocate_unbacked_krnl_region>
c0108b64: 8b 3b                        	mov	edi, dword ptr [ebx]
c0108b66: 89 43 04                     	mov	dword ptr [ebx + 4], eax
c0108b69: 89 c6                        	mov	esi, eax
c0108b6b: e8 a6 9e ff ff               	call	0xc0102a16 <vas_get_current_vas>
c0108b70: 6a 35                        	push	53
c0108b72: 57                           	push	edi
c0108b73: 56                           	push	esi
c0108b74: 50                           	push	eax
c0108b75: e8 35 fc ff ff               	call	0xc01087af <arch_vas_set_entry>
c0108b7a: 8b 43 04                     	mov	eax, dword ptr [ebx + 4]
c0108b7d: 83 c4 20                     	add	esp, 32
c0108b80: 89 c2                        	mov	edx, eax
c0108b82: 8d 88 00 0c 00 00            	lea	ecx, [eax + 3072]
c0108b88: c7 00 00 01 00 00            	mov	dword ptr [eax], 256
c0108b8e: 83 c0 04                     	add	eax, 4
c0108b91: 39 c8                        	cmp	eax, ecx
c0108b93: 75 f3                        	jne	0xc0108b88 <arch_vas_create+0x4e>
c0108b95: 31 c0                        	xor	eax, eax
c0108b97: 8b b0 00 4c 11 c0            	mov	esi, dword ptr [eax - 1072608256]
c0108b9d: 83 c0 04                     	add	eax, 4
c0108ba0: 89 74 08 fc                  	mov	dword ptr [eax + ecx - 4], esi
c0108ba4: 3d fc 03 00 00               	cmp	eax, 1020
c0108ba9: 75 ec                        	jne	0xc0108b97 <arch_vas_create+0x5d>
c0108bab: 8b 03                        	mov	eax, dword ptr [ebx]
c0108bad: 0d 03 01 00 00               	or	eax, 259
c0108bb2: 89 82 fc 0f 00 00            	mov	dword ptr [edx + 4092], eax
c0108bb8: 8d 65 f4                     	lea	esp, [ebp - 12]
c0108bbb: 5b                           	pop	ebx
c0108bbc: 5e                           	pop	esi
c0108bbd: 5f                           	pop	edi
c0108bbe: 5d                           	pop	ebp
c0108bbf: c3                           	ret

c0108bc0 <arch_vas_copy>:
c0108bc0: 55                           	push	ebp
c0108bc1: 89 e5                        	mov	ebp, esp
c0108bc3: 57                           	push	edi
c0108bc4: 56                           	push	esi
c0108bc5: 53                           	push	ebx
c0108bc6: 83 ec 28                     	sub	esp, 40
c0108bc9: 8b 5d 0c                     	mov	ebx, dword ptr [ebp + 12]
c0108bcc: 53                           	push	ebx
c0108bcd: e8 68 ff ff ff               	call	0xc0108b3a <arch_vas_create>
c0108bd2: 8b 45 08                     	mov	eax, dword ptr [ebp + 8]
c0108bd5: 83 c4 10                     	add	esp, 16
c0108bd8: 8b 00                        	mov	eax, dword ptr [eax]
c0108bda: 8b 40 04                     	mov	eax, dword ptr [eax + 4]
c0108bdd: 89 45 e4                     	mov	dword ptr [ebp - 28], eax
c0108be0: 8b 03                        	mov	eax, dword ptr [ebx]
c0108be2: 31 db                        	xor	ebx, ebx
c0108be4: 8b 40 04                     	mov	eax, dword ptr [eax + 4]
c0108be7: 89 45 e0                     	mov	dword ptr [ebp - 32], eax
c0108bea: 8b 45 e4                     	mov	eax, dword ptr [ebp - 28]
c0108bed: 8b 14 18                     	mov	edx, dword ptr [eax + ebx]
c0108bf0: 8b 45 e0                     	mov	eax, dword ptr [ebp - 32]
c0108bf3: 8d 0c 18                     	lea	ecx, [eax + ebx]
c0108bf6: f6 c2 01                     	test	dl, 1
c0108bf9: 0f 84 92 00 00 00            	je	0xc0108c91 <arch_vas_copy+0xd1>
c0108bff: 89 4d d8                     	mov	dword ptr [ebp - 40], ecx
c0108c02: 89 55 dc                     	mov	dword ptr [ebp - 36], edx
c0108c05: e8 19 9b ff ff               	call	0xc0102723 <phys_allocate_page>
c0108c0a: 83 ec 0c                     	sub	esp, 12
c0108c0d: 68 00 10 00 00               	push	4096
c0108c12: 89 c7                        	mov	edi, eax
c0108c14: e8 44 a1 ff ff               	call	0xc0102d5d <virt_allocate_unbacked_krnl_region>
c0108c19: 89 c6                        	mov	esi, eax
c0108c1b: e8 f6 9d ff ff               	call	0xc0102a16 <vas_get_current_vas>
c0108c20: 6a 31                        	push	49
c0108c22: 57                           	push	edi
c0108c23: 56                           	push	esi
c0108c24: 50                           	push	eax
c0108c25: e8 85 fb ff ff               	call	0xc01087af <arch_vas_set_entry>
c0108c2a: 89 d8                        	mov	eax, ebx
c0108c2c: 8b 55 dc                     	mov	edx, dword ptr [ebp - 36]
c0108c2f: 8b 4d d8                     	mov	ecx, dword ptr [ebp - 40]
c0108c32: c1 e0 0a                     	shl	eax, 10
c0108c35: 83 c4 20                     	add	esp, 32
c0108c38: 2d 00 00 40 00               	sub	eax, 4194304
c0108c3d: 81 e2 ff 0f 00 00            	and	edx, 4095
c0108c43: 89 45 dc                     	mov	dword ptr [ebp - 36], eax
c0108c46: 09 fa                        	or	edx, edi
c0108c48: 89 11                        	mov	dword ptr [ecx], edx
c0108c4a: 31 d2                        	xor	edx, edx
c0108c4c: 8b 45 dc                     	mov	eax, dword ptr [ebp - 36]
c0108c4f: 8d 3c 32                     	lea	edi, [edx + esi]
c0108c52: 8d 0c 10                     	lea	ecx, [eax + edx]
c0108c55: 8b 01                        	mov	eax, dword ptr [ecx]
c0108c57: a8 02                        	test	al, 2
c0108c59: 75 04                        	jne	0xc0108c5f <arch_vas_copy+0x9f>
c0108c5b: 89 07                        	mov	dword ptr [edi], eax
c0108c5d: eb 12                        	jmp	0xc0108c71 <arch_vas_copy+0xb1>
c0108c5f: 83 e0 fd                     	and	eax, -3
c0108c62: 80 cc 08                     	or	ah, 8
c0108c65: 89 07                        	mov	dword ptr [edi], eax
c0108c67: 8b 01                        	mov	eax, dword ptr [ecx]
c0108c69: 83 e0 fd                     	and	eax, -3
c0108c6c: 80 cc 08                     	or	ah, 8
c0108c6f: 89 01                        	mov	dword ptr [ecx], eax
c0108c71: 83 c2 04                     	add	edx, 4
c0108c74: 81 fa 00 10 00 00            	cmp	edx, 4096
c0108c7a: 75 d0                        	jne	0xc0108c4c <arch_vas_copy+0x8c>
c0108c7c: e8 95 9d ff ff               	call	0xc0102a16 <vas_get_current_vas>
c0108c81: 6a 00                        	push	0
c0108c83: 6a 00                        	push	0
c0108c85: 56                           	push	esi
c0108c86: 50                           	push	eax
c0108c87: e8 23 fb ff ff               	call	0xc01087af <arch_vas_set_entry>
c0108c8c: 83 c4 10                     	add	esp, 16
c0108c8f: eb 02                        	jmp	0xc0108c93 <arch_vas_copy+0xd3>
c0108c91: 89 11                        	mov	dword ptr [ecx], edx
c0108c93: 83 c3 04                     	add	ebx, 4
c0108c96: 81 fb 00 0c 00 00            	cmp	ebx, 3072
c0108c9c: 0f 85 48 ff ff ff            	jne	0xc0108bea <arch_vas_copy+0x2a>
c0108ca2: 8d 65 f4                     	lea	esp, [ebp - 12]
c0108ca5: 5b                           	pop	ebx
c0108ca6: 5e                           	pop	esi
c0108ca7: 5f                           	pop	edi
c0108ca8: 5d                           	pop	ebp
c0108ca9: c3                           	ret

c0108caa <x86_handle_page_fault>:
c0108caa: 55                           	push	ebp
c0108cab: 89 e5                        	mov	ebp, esp
c0108cad: 57                           	push	edi
c0108cae: 56                           	push	esi
c0108caf: 53                           	push	ebx
c0108cb0: 83 ec 0c                     	sub	esp, 12
c0108cb3: 8b 7d 08                     	mov	edi, dword ptr [ebp + 8]
c0108cb6: e8 55 04 00 00               	call	0xc0109110 <x86_get_cr2>
c0108cbb: 83 ec 0c                     	sub	esp, 12
c0108cbe: 89 c3                        	mov	ebx, eax
c0108cc0: a1 18 0e 11 c0               	mov	eax, dword ptr [3222343192]
c0108cc5: 8b 40 04                     	mov	eax, dword ptr [eax + 4]
c0108cc8: 83 c0 08                     	add	eax, 8
c0108ccb: 50                           	push	eax
c0108ccc: e8 ad ae ff ff               	call	0xc0103b7e <spinlock_acquire>
c0108cd1: 83 c4 0c                     	add	esp, 12
c0108cd4: 6a 00                        	push	0
c0108cd6: 53                           	push	ebx
c0108cd7: a1 18 0e 11 c0               	mov	eax, dword ptr [3222343192]
c0108cdc: ff 70 04                     	push	dword ptr [eax + 4]
c0108cdf: e8 52 fd ff ff               	call	0xc0108a36 <x86_get_entry>
c0108ce4: 83 c4 10                     	add	esp, 16
c0108ce7: 85 c0                        	test	eax, eax
c0108ce9: 75 24                        	jne	0xc0108d0f <x86_handle_page_fault+0x65>
c0108ceb: ff 77 34                     	push	dword ptr [edi + 52]
c0108cee: ff 77 38                     	push	dword ptr [edi + 56]
c0108cf1: 53                           	push	ebx
c0108cf2: 68 53 b1 10 c0               	push	3222319443
c0108cf7: e8 87 c3 ff ff               	call	0xc0105083 <kprintf>
c0108cfc: a1 18 0e 11 c0               	mov	eax, dword ptr [3222343192]
c0108d01: 8b 40 04                     	mov	eax, dword ptr [eax + 4]
c0108d04: 83 c0 08                     	add	eax, 8
c0108d07: 89 04 24                     	mov	dword ptr [esp], eax
c0108d0a: e9 a7 00 00 00               	jmp	0xc0108db6 <x86_handle_page_fault+0x10c>
c0108d0f: 89 c6                        	mov	esi, eax
c0108d11: 8b 00                        	mov	eax, dword ptr [eax]
c0108d13: 89 c2                        	mov	edx, eax
c0108d15: 81 e2 01 04 00 00            	and	edx, 1025
c0108d1b: 81 fa 00 04 00 00            	cmp	edx, 1024
c0108d21: 75 3a                        	jne	0xc0108d5d <x86_handle_page_fault+0xb3>
c0108d23: e8 fb 99 ff ff               	call	0xc0102723 <phys_allocate_page>
c0108d28: 8b 16                        	mov	edx, dword ptr [esi]
c0108d2a: 81 e3 00 f0 ff ff            	and	ebx, 4294963200
c0108d30: 80 e6 fb                     	and	dh, -5
c0108d33: 09 d0                        	or	eax, edx
c0108d35: 83 c8 01                     	or	eax, 1
c0108d38: 89 06                        	mov	dword ptr [esi], eax
c0108d3a: e8 ca 03 00 00               	call	0xc0109109 <arch_flush_tlb>
c0108d3f: 50                           	push	eax
c0108d40: 68 00 10 00 00               	push	4096
c0108d45: 6a 00                        	push	0
c0108d47: 53                           	push	ebx
c0108d48: e8 2d 85 ff ff               	call	0xc010127a <memset>
c0108d4d: a1 18 0e 11 c0               	mov	eax, dword ptr [3222343192]
c0108d52: 8b 40 04                     	mov	eax, dword ptr [eax + 4]
c0108d55: 83 c0 08                     	add	eax, 8
c0108d58: 89 04 24                     	mov	dword ptr [esp], eax
c0108d5b: eb 1f                        	jmp	0xc0108d7c <x86_handle_page_fault+0xd2>
c0108d5d: f7 d0                        	not	eax
c0108d5f: a9 01 08 00 00               	test	eax, 2049
c0108d64: 75 25                        	jne	0xc0108d8b <x86_handle_page_fault+0xe1>
c0108d66: 89 d8                        	mov	eax, ebx
c0108d68: e8 2a fd ff ff               	call	0xc0108a97 <x86_perform_copy_on_write>
c0108d6d: a1 18 0e 11 c0               	mov	eax, dword ptr [3222343192]
c0108d72: 83 ec 0c                     	sub	esp, 12
c0108d75: 8b 40 04                     	mov	eax, dword ptr [eax + 4]
c0108d78: 83 c0 08                     	add	eax, 8
c0108d7b: 50                           	push	eax
c0108d7c: e8 02 ae ff ff               	call	0xc0103b83 <spinlock_release>
c0108d81: 83 c4 10                     	add	esp, 16
c0108d84: 31 c0                        	xor	eax, eax
c0108d86: e9 a2 00 00 00               	jmp	0xc0108e2d <x86_handle_page_fault+0x183>
c0108d8b: ff 77 34                     	push	dword ptr [edi + 52]
c0108d8e: ff 77 38                     	push	dword ptr [edi + 56]
c0108d91: 53                           	push	ebx
c0108d92: 68 87 b1 10 c0               	push	3222319495
c0108d97: e8 e7 c2 ff ff               	call	0xc0105083 <kprintf>
c0108d9c: 8b 36                        	mov	esi, dword ptr [esi]
c0108d9e: 83 c4 10                     	add	esp, 16
c0108da1: a1 18 0e 11 c0               	mov	eax, dword ptr [3222343192]
c0108da6: 0f ba e6 08                  	bt	esi, 8
c0108daa: 73 19                        	jae	0xc0108dc5 <x86_handle_page_fault+0x11b>
c0108dac: 8b 40 04                     	mov	eax, dword ptr [eax + 4]
c0108daf: 83 ec 0c                     	sub	esp, 12
c0108db2: 83 c0 08                     	add	eax, 8
c0108db5: 50                           	push	eax
c0108db6: e8 c8 ad ff ff               	call	0xc0103b83 <spinlock_release>
c0108dbb: 83 c4 10                     	add	esp, 16
c0108dbe: b8 13 00 00 00               	mov	eax, 19
c0108dc3: eb 68                        	jmp	0xc0108e2d <x86_handle_page_fault+0x183>
c0108dc5: 8b 40 04                     	mov	eax, dword ptr [eax + 4]
c0108dc8: 83 ec 0c                     	sub	esp, 12
c0108dcb: 81 e3 00 f0 ff ff            	and	ebx, 4294963200
c0108dd1: c1 ee 0c                     	shr	esi, 12
c0108dd4: 83 c0 08                     	add	eax, 8
c0108dd7: 50                           	push	eax
c0108dd8: e8 a6 ad ff ff               	call	0xc0103b83 <spinlock_release>
c0108ddd: e8 41 99 ff ff               	call	0xc0102723 <phys_allocate_page>
c0108de2: 89 c7                        	mov	edi, eax
c0108de4: a1 18 0e 11 c0               	mov	eax, dword ptr [3222343192]
c0108de9: 8b 40 04                     	mov	eax, dword ptr [eax + 4]
c0108dec: 83 c0 08                     	add	eax, 8
c0108def: 89 04 24                     	mov	dword ptr [esp], eax
c0108df2: e8 87 ad ff ff               	call	0xc0103b7e <spinlock_acquire>
c0108df7: e8 1a 9c ff ff               	call	0xc0102a16 <vas_get_current_vas>
c0108dfc: 6a 30                        	push	48
c0108dfe: 57                           	push	edi
c0108dff: 53                           	push	ebx
c0108e00: 50                           	push	eax
c0108e01: e8 a9 f9 ff ff               	call	0xc01087af <arch_vas_set_entry>
c0108e06: 83 c4 18                     	add	esp, 24
c0108e09: 56                           	push	esi
c0108e0a: 53                           	push	ebx
c0108e0b: e8 4e 9b ff ff               	call	0xc010295e <swapfile_read>
c0108e10: a1 18 0e 11 c0               	mov	eax, dword ptr [3222343192]
c0108e15: 8b 40 04                     	mov	eax, dword ptr [eax + 4]
c0108e18: 83 c0 08                     	add	eax, 8
c0108e1b: 89 04 24                     	mov	dword ptr [esp], eax
c0108e1e: e8 60 ad ff ff               	call	0xc0103b83 <spinlock_release>
c0108e23: e8 e1 02 00 00               	call	0xc0109109 <arch_flush_tlb>
c0108e28: e9 54 ff ff ff               	jmp	0xc0108d81 <x86_handle_page_fault+0xd7>
c0108e2d: 8d 65 f4                     	lea	esp, [ebp - 12]
c0108e30: 5b                           	pop	ebx
c0108e31: 5e                           	pop	esi
c0108e32: 5f                           	pop	edi
c0108e33: 5d                           	pop	ebp
c0108e34: c3                           	ret

c0108e35 <arch_vas_get_entry>:
c0108e35: 55                           	push	ebp
c0108e36: 89 e5                        	mov	ebp, esp
c0108e38: 53                           	push	ebx
c0108e39: 83 ec 08                     	sub	esp, 8
c0108e3c: 6a 01                        	push	1
c0108e3e: ff 75 0c                     	push	dword ptr [ebp + 12]
c0108e41: ff 75 08                     	push	dword ptr [ebp + 8]
c0108e44: e8 ed fb ff ff               	call	0xc0108a36 <x86_get_entry>
c0108e49: 83 c4 10                     	add	esp, 16
c0108e4c: 8b 10                        	mov	edx, dword ptr [eax]
c0108e4e: 89 c3                        	mov	ebx, eax
c0108e50: 89 d1                        	mov	ecx, edx
c0108e52: d1 e9                        	shr	ecx
c0108e54: 83 e1 01                     	and	ecx, 1
c0108e57: f6 c2 04                     	test	dl, 4
c0108e5a: 74 03                        	je	0xc0108e5f <arch_vas_get_entry+0x2a>
c0108e5c: 83 c9 04                     	or	ecx, 4
c0108e5f: 89 d0                        	mov	eax, edx
c0108e61: 83 e0 01                     	and	eax, 1
c0108e64: c1 e0 04                     	shl	eax, 4
c0108e67: 09 c8                        	or	eax, ecx
c0108e69: 0f ba e2 08                  	bt	edx, 8
c0108e6d: 73 03                        	jae	0xc0108e72 <arch_vas_get_entry+0x3d>
c0108e6f: 83 c8 20                     	or	eax, 32
c0108e72: 0f ba e2 0b                  	bt	edx, 11
c0108e76: 73 03                        	jae	0xc0108e7b <arch_vas_get_entry+0x46>
c0108e78: 83 c8 08                     	or	eax, 8
c0108e7b: 0f ba e2 0a                  	bt	edx, 10
c0108e7f: 73 03                        	jae	0xc0108e84 <arch_vas_get_entry+0x4f>
c0108e81: 83 c8 40                     	or	eax, 64
c0108e84: 8b 55 14                     	mov	edx, dword ptr [ebp + 20]
c0108e87: 89 02                        	mov	dword ptr [edx], eax
c0108e89: 8b 03                        	mov	eax, dword ptr [ebx]
c0108e8b: 8b 55 10                     	mov	edx, dword ptr [ebp + 16]
c0108e8e: 25 00 f0 ff ff               	and	eax, 4294963200
c0108e93: 89 02                        	mov	dword ptr [edx], eax
c0108e95: 8b 5d fc                     	mov	ebx, dword ptr [ebp - 4]
c0108e98: c9                           	leave
c0108e99: c3                           	ret

c0108e9a <arch_find_page_replacement_virt_address>:
c0108e9a: 55                           	push	ebp
c0108e9b: 89 e5                        	mov	ebp, esp
c0108e9d: 53                           	push	ebx
c0108e9e: 31 db                        	xor	ebx, ebx
c0108ea0: 52                           	push	edx
c0108ea1: 50                           	push	eax
c0108ea2: 6a 00                        	push	0
c0108ea4: 53                           	push	ebx
c0108ea5: ff 75 08                     	push	dword ptr [ebp + 8]
c0108ea8: e8 89 fb ff ff               	call	0xc0108a36 <x86_get_entry>
c0108ead: 83 c4 10                     	add	esp, 16
c0108eb0: 85 c0                        	test	eax, eax
c0108eb2: 74 0c                        	je	0xc0108ec0 <arch_find_page_replacement_virt_address+0x26>
c0108eb4: 8b 00                        	mov	eax, dword ptr [eax]
c0108eb6: 25 01 01 00 00               	and	eax, 257
c0108ebb: 48                           	dec	eax
c0108ebc: 75 18                        	jne	0xc0108ed6 <arch_find_page_replacement_virt_address+0x3c>
c0108ebe: eb 31                        	jmp	0xc0108ef1 <arch_find_page_replacement_virt_address+0x57>
c0108ec0: 81 fb ff ff 3f ff            	cmp	ebx, 4282384383
c0108ec6: 77 0e                        	ja	0xc0108ed6 <arch_find_page_replacement_virt_address+0x3c>
c0108ec8: 81 c3 00 00 40 00            	add	ebx, 4194304
c0108ece: 81 e3 00 00 c0 ff            	and	ebx, 4290772992
c0108ed4: eb cb                        	jmp	0xc0108ea1 <arch_find_page_replacement_virt_address+0x7>
c0108ed6: 81 c3 00 10 00 00            	add	ebx, 4096
c0108edc: 81 fb ff ff 7f ff            	cmp	ebx, 4286578687
c0108ee2: 76 bd                        	jbe	0xc0108ea1 <arch_find_page_replacement_virt_address+0x7>
c0108ee4: 83 ec 0c                     	sub	esp, 12
c0108ee7: 68 b0 b1 10 c0               	push	3222319536
c0108eec: e8 5a c3 ff ff               	call	0xc010524b <panic>
c0108ef1: 89 d8                        	mov	eax, ebx
c0108ef3: 8b 5d fc                     	mov	ebx, dword ptr [ebp - 4]
c0108ef6: c9                           	leave
c0108ef7: c3                           	ret

c0108ef8 <arch_set_forked_kernel_stack>:
c0108ef8: 55                           	push	ebp
c0108ef9: 89 e5                        	mov	ebp, esp
c0108efb: 57                           	push	edi
c0108efc: 56                           	push	esi
c0108efd: 53                           	push	ebx
c0108efe: 83 ec 10                     	sub	esp, 16
c0108f01: 8b 75 0c                     	mov	esi, dword ptr [ebp + 12]
c0108f04: 8b 4d 08                     	mov	ecx, dword ptr [ebp + 8]
c0108f07: 8b 7d 00                     	mov	edi, dword ptr [ebp]
c0108f0a: 8b 41 04                     	mov	eax, dword ptr [ecx + 4]
c0108f0d: 8b 5e 04                     	mov	ebx, dword ptr [esi + 4]
c0108f10: 8b 56 48                     	mov	edx, dword ptr [esi + 72]
c0108f13: 29 c3                        	sub	ebx, eax
c0108f15: 52                           	push	edx
c0108f16: 2b 41 48                     	sub	eax, dword ptr [ecx + 72]
c0108f19: 01 df                        	add	edi, ebx
c0108f1b: 50                           	push	eax
c0108f1c: 8b 46 04                     	mov	eax, dword ptr [esi + 4]
c0108f1f: 29 d0                        	sub	eax, edx
c0108f21: 50                           	push	eax
c0108f22: e8 0d 83 ff ff               	call	0xc0101234 <memcpy>
c0108f27: 8d 44 1d 00                  	lea	eax, [ebp + ebx]
c0108f2b: 83 c4 10                     	add	esp, 16
c0108f2e: 89 46 08                     	mov	dword ptr [esi + 8], eax
c0108f31: 8b 45 04                     	mov	eax, dword ptr [ebp + 4]
c0108f34: 89 7c 1d ec                  	mov	dword ptr [ebp + ebx - 20], edi
c0108f38: 89 44 1d fc                  	mov	dword ptr [ebp + ebx - 4], eax
c0108f3c: 31 c0                        	xor	eax, eax
c0108f3e: 89 44 1d f8                  	mov	dword ptr [ebp + ebx - 8], eax
c0108f42: 89 44 1d f4                  	mov	dword ptr [ebp + ebx - 12], eax
c0108f46: 89 44 1d f0                  	mov	dword ptr [ebp + ebx - 16], eax
c0108f4a: 83 6e 08 14                  	sub	dword ptr [esi + 8], 20
c0108f4e: 8d 65 f4                     	lea	esp, [ebp - 12]
c0108f51: 5b                           	pop	ebx
c0108f52: 5e                           	pop	esi
c0108f53: 5f                           	pop	edi
c0108f54: 5d                           	pop	ebp
c0108f55: c3                           	ret

c0108f56 <test_stack_canary>:
c0108f56: 55                           	push	ebp
c0108f57: 89 e5                        	mov	ebp, esp
c0108f59: 83 ec 14                     	sub	esp, 20
c0108f5c: 68 00 0d 11 c0               	push	3222342912
c0108f61: e8 18 ac ff ff               	call	0xc0103b7e <spinlock_acquire>
c0108f66: e8 47 b3 ff ff               	call	0xc01042b2 <thread_schedule>
c0108f6b: c7 04 24 00 0d 11 c0         	mov	dword ptr [esp], 3222342912
c0108f72: e8 0c ac ff ff               	call	0xc0103b83 <spinlock_release>
c0108f77: e8 da ff ff ff               	call	0xc0108f56 <test_stack_canary>
c0108f7c: c7 04 24 be b1 10 c0         	mov	dword ptr [esp], 3222319550
c0108f83: e8 fb c0 ff ff               	call	0xc0105083 <kprintf>
c0108f88: 83 c4 10                     	add	esp, 16
c0108f8b: c9                           	leave
c0108f8c: c3                           	ret

c0108f8d <test_heap>:
c0108f8d: 55                           	push	ebp
c0108f8e: 89 e5                        	mov	ebp, esp
c0108f90: 56                           	push	esi
c0108f91: 53                           	push	ebx
c0108f92: 31 db                        	xor	ebx, ebx
c0108f94: 83 ec 0c                     	sub	esp, 12
c0108f97: 6a 7b                        	push	123
c0108f99: e8 67 94 ff ff               	call	0xc0102405 <malloc>
c0108f9e: 83 c4 0c                     	add	esp, 12
c0108fa1: 6a 7b                        	push	123
c0108fa3: 89 c6                        	mov	esi, eax
c0108fa5: 53                           	push	ebx
c0108fa6: 43                           	inc	ebx
c0108fa7: 50                           	push	eax
c0108fa8: e8 cd 82 ff ff               	call	0xc010127a <memset>
c0108fad: 89 34 24                     	mov	dword ptr [esp], esi
c0108fb0: e8 6f 95 ff ff               	call	0xc0102524 <free>
c0108fb5: 83 c4 10                     	add	esp, 16
c0108fb8: 81 fb 20 a1 07 00            	cmp	ebx, 500000
c0108fbe: 75 d4                        	jne	0xc0108f94 <test_heap+0x7>
c0108fc0: 31 db                        	xor	ebx, ebx
c0108fc2: 83 ec 0c                     	sub	esp, 12
c0108fc5: 68 40 e2 01 00               	push	123456
c0108fca: e8 36 94 ff ff               	call	0xc0102405 <malloc>
c0108fcf: 83 c4 0c                     	add	esp, 12
c0108fd2: 68 40 e2 01 00               	push	123456
c0108fd7: 89 c6                        	mov	esi, eax
c0108fd9: 53                           	push	ebx
c0108fda: 43                           	inc	ebx
c0108fdb: 50                           	push	eax
c0108fdc: e8 99 82 ff ff               	call	0xc010127a <memset>
c0108fe1: 89 34 24                     	mov	dword ptr [esp], esi
c0108fe4: e8 3b 95 ff ff               	call	0xc0102524 <free>
c0108fe9: 83 c4 10                     	add	esp, 16
c0108fec: 81 fb 88 13 00 00            	cmp	ebx, 5000
c0108ff2: 75 ce                        	jne	0xc0108fc2 <test_heap+0x35>
c0108ff4: 83 ec 0c                     	sub	esp, 12
c0108ff7: 68 c7 b1 10 c0               	push	3222319559
c0108ffc: e8 82 c0 ff ff               	call	0xc0105083 <kprintf>
c0109001: 83 c4 10                     	add	esp, 16
c0109004: 8d 65 f8                     	lea	esp, [ebp - 8]
c0109007: 5b                           	pop	ebx
c0109008: 5e                           	pop	esi
c0109009: 5d                           	pop	ebp
c010900a: c3                           	ret

c010900b <test_sleep>:
c010900b: 55                           	push	ebp
c010900c: 89 e5                        	mov	ebp, esp
c010900e: 53                           	push	ebx
c010900f: bb 0a 00 00 00               	mov	ebx, 10
c0109014: 52                           	push	edx
c0109015: 50                           	push	eax
c0109016: 50                           	push	eax
c0109017: 53                           	push	ebx
c0109018: 68 ce b1 10 c0               	push	3222319566
c010901d: e8 61 c0 ff ff               	call	0xc0105083 <kprintf>
c0109022: c7 04 24 01 00 00 00         	mov	dword ptr [esp], 1
c0109029: e8 ff b4 ff ff               	call	0xc010452d <thread_sleep>
c010902e: 83 c4 10                     	add	esp, 16
c0109031: 4b                           	dec	ebx
c0109032: 75 e1                        	jne	0xc0109015 <test_sleep+0xa>
c0109034: 83 ec 0c                     	sub	esp, 12
c0109037: 68 d5 b1 10 c0               	push	3222319573
c010903c: e8 42 c0 ff ff               	call	0xc0105083 <kprintf>
c0109041: c7 04 24 01 00 00 00         	mov	dword ptr [esp], 1
c0109048: e8 e0 b4 ff ff               	call	0xc010452d <thread_sleep>
c010904d: 8b 5d fc                     	mov	ebx, dword ptr [ebp - 4]
c0109050: 83 c4 10                     	add	esp, 16
c0109053: c9                           	leave
c0109054: c3                           	ret
c0109055: 66 90                        	nop
c0109057: 66 90                        	nop
c0109059: 66 90                        	nop
c010905b: 66 90                        	nop
c010905d: 66 90                        	nop
c010905f: 90                           	nop

c0109060 <vesa_depth>:
c0109060: 00 00                        	add	byte ptr [eax], al

c0109061 <vesa_framebuffer>:
c0109061: 00 00                        	add	byte ptr [eax], al
c0109063: 00 00                        	add	byte ptr [eax], al

c0109065 <vesa_width>:
c0109065: 00 00                        	add	byte ptr [eax], al

c0109067 <vesa_height>:
c0109067: 00 00                        	add	byte ptr [eax], al

c0109069 <vesa_pitch>:
c0109069: 00 00                        	add	byte ptr [eax], al

c010906b <x86_grub_table>:
c010906b: 00 00                        	add	byte ptr [eax], al
c010906d: 00 00                        	add	byte ptr [eax], al

c010906f <kernel_entry_point>:
c010906f: 89 1d 6b 90 10 c0            	mov	dword ptr [-1072656277], ebx
c0109075: 66 a1 10 00 07 00            	mov	ax, word ptr [458768]
c010907b: 66 a3 69 90 10 c0            	mov	word ptr [3222311017], ax
c0109081: 66 a1 12 00 07 00            	mov	ax, word ptr [458770]
c0109087: 66 a3 65 90 10 c0            	mov	word ptr [3222311013], ax
c010908d: 66 a1 14 00 07 00            	mov	ax, word ptr [458772]
c0109093: 66 a3 67 90 10 c0            	mov	word ptr [3222311015], ax
c0109099: a0 19 00 07 00               	mov	al, byte ptr [458777]
c010909e: a2 60 90 10 c0               	mov	byte ptr [3222311008], al
c01090a3: a1 28 00 07 00               	mov	eax, dword ptr [458792]
c01090a8: a3 61 90 10 c0               	mov	dword ptr [3222311009], eax
c01090ad: c7 05 00 a0 11 c0 00 00 00 00	mov	dword ptr [-1072586752], 0
c01090b7: 0f 20 d9                     	mov	ecx, cr3
c01090ba: 0f 22 d9                     	mov	cr3, ecx
c01090bd: bc 00 a0 11 c0               	mov	esp, 3222380544
c01090c2: e8 7c 91 ff ff               	call	0xc0102243 <kernel_main>
c01090c7: fa                           	cli
c01090c8: f4                           	hlt
c01090c9: eb fe                        	jmp	0xc01090c9 <kernel_entry_point+0x5a>
c01090cb: 66 90                        	nop
c01090cd: 66 90                        	nop
c01090cf: 90                           	nop

c01090d0 <x86_gdt_load>:
c01090d0: 8b 44 24 04                  	mov	eax, dword ptr [esp + 4]
c01090d4: 0f 01 10                     	lgdtd	[eax]
c01090d7: ea de 90 10 c0 08 00         	ljmp	8, 3222311134

c01090de <x86_gdt_load.reloadSegments>:
c01090de: 66 b8 10 00                  	mov	ax, 16
c01090e2: 8e d8                        	mov	ds, eax
c01090e4: 8e c0                        	mov	es, eax
c01090e6: 8e e0                        	mov	fs, eax
c01090e8: 8e e8                        	mov	gs, eax
c01090ea: 8e d0                        	mov	ss, eax
c01090ec: c3                           	ret
c01090ed: 66 90                        	nop
c01090ef: 90                           	nop

c01090f0 <x86_idt_load>:
c01090f0: 8b 44 24 04                  	mov	eax, dword ptr [esp + 4]
c01090f4: 0f 01 18                     	lidtd	[eax]
c01090f7: c3                           	ret
c01090f8: 66 90                        	nop
c01090fa: 66 90                        	nop
c01090fc: 66 90                        	nop
c01090fe: 66 90                        	nop

c0109100 <arch_read_timestamp>:
c0109100: 0f 31                        	rdtsc
c0109102: c3                           	ret

c0109103 <arch_enable_interrupts>:
c0109103: fb                           	sti
c0109104: c3                           	ret

c0109105 <arch_disable_interrupts>:
c0109105: fa                           	cli
c0109106: c3                           	ret

c0109107 <arch_stall_processor>:
c0109107: f4                           	hlt
c0109108: c3                           	ret

c0109109 <arch_flush_tlb>:
c0109109: 0f 20 d8                     	mov	eax, cr3
c010910c: 0f 22 d8                     	mov	cr3, eax
c010910f: c3                           	ret

c0109110 <x86_get_cr2>:
c0109110: 0f 20 d0                     	mov	eax, cr2
c0109113: c3                           	ret

c0109114 <x86_are_irqs_on>:
c0109114: 9c                           	pushfd
c0109115: 58                           	pop	eax
c0109116: 25 00 02 00 00               	and	eax, 512
c010911b: c1 e8 09                     	shr	eax, 9
c010911e: c3                           	ret
c010911f: 90                           	nop

c0109120 <isr0>:
c0109120: 6a 00                        	push	0
c0109122: 6a 00                        	push	0
c0109124: e9 06 01 00 00               	jmp	0xc010922f <int_common_handler>

c0109129 <isr1>:
c0109129: 6a 00                        	push	0
c010912b: 6a 01                        	push	1
c010912d: e9 fd 00 00 00               	jmp	0xc010922f <int_common_handler>

c0109132 <isr2>:
c0109132: 6a 00                        	push	0
c0109134: 6a 02                        	push	2
c0109136: e9 f4 00 00 00               	jmp	0xc010922f <int_common_handler>

c010913b <isr3>:
c010913b: 6a 00                        	push	0
c010913d: 6a 03                        	push	3
c010913f: e9 eb 00 00 00               	jmp	0xc010922f <int_common_handler>

c0109144 <isr4>:
c0109144: 6a 00                        	push	0
c0109146: 6a 04                        	push	4
c0109148: e9 e2 00 00 00               	jmp	0xc010922f <int_common_handler>

c010914d <isr5>:
c010914d: 6a 00                        	push	0
c010914f: 6a 05                        	push	5
c0109151: e9 d9 00 00 00               	jmp	0xc010922f <int_common_handler>

c0109156 <isr6>:
c0109156: 6a 00                        	push	0
c0109158: 6a 06                        	push	6
c010915a: e9 d0 00 00 00               	jmp	0xc010922f <int_common_handler>

c010915f <isr7>:
c010915f: 6a 00                        	push	0
c0109161: 6a 07                        	push	7
c0109163: e9 c7 00 00 00               	jmp	0xc010922f <int_common_handler>

c0109168 <isr8>:
c0109168: 6a 08                        	push	8
c010916a: e9 c0 00 00 00               	jmp	0xc010922f <int_common_handler>

c010916f <isr9>:
c010916f: 6a 00                        	push	0
c0109171: 6a 09                        	push	9
c0109173: e9 b7 00 00 00               	jmp	0xc010922f <int_common_handler>

c0109178 <isr10>:
c0109178: 6a 0a                        	push	10
c010917a: e9 b0 00 00 00               	jmp	0xc010922f <int_common_handler>

c010917f <isr11>:
c010917f: 6a 0b                        	push	11
c0109181: e9 a9 00 00 00               	jmp	0xc010922f <int_common_handler>

c0109186 <isr12>:
c0109186: 6a 0c                        	push	12
c0109188: e9 a2 00 00 00               	jmp	0xc010922f <int_common_handler>

c010918d <isr13>:
c010918d: 6a 0d                        	push	13
c010918f: e9 9b 00 00 00               	jmp	0xc010922f <int_common_handler>

c0109194 <isr14>:
c0109194: 6a 0e                        	push	14
c0109196: e9 94 00 00 00               	jmp	0xc010922f <int_common_handler>

c010919b <isr15>:
c010919b: 6a 00                        	push	0
c010919d: 6a 0f                        	push	15
c010919f: e9 8b 00 00 00               	jmp	0xc010922f <int_common_handler>

c01091a4 <isr16>:
c01091a4: 6a 00                        	push	0
c01091a6: 6a 10                        	push	16
c01091a8: e9 82 00 00 00               	jmp	0xc010922f <int_common_handler>

c01091ad <isr17>:
c01091ad: 6a 11                        	push	17
c01091af: eb 7e                        	jmp	0xc010922f <int_common_handler>

c01091b1 <isr18>:
c01091b1: 6a 00                        	push	0
c01091b3: 6a 12                        	push	18
c01091b5: eb 78                        	jmp	0xc010922f <int_common_handler>

c01091b7 <isr19>:
c01091b7: 6a 00                        	push	0
c01091b9: 6a 13                        	push	19
c01091bb: eb 72                        	jmp	0xc010922f <int_common_handler>

c01091bd <isr20>:
c01091bd: 6a 00                        	push	0
c01091bf: 6a 14                        	push	20
c01091c1: eb 6c                        	jmp	0xc010922f <int_common_handler>

c01091c3 <isr21>:
c01091c3: 6a 00                        	push	0
c01091c5: 6a 15                        	push	21
c01091c7: eb 66                        	jmp	0xc010922f <int_common_handler>

c01091c9 <isr96>:
c01091c9: 6a 00                        	push	0
c01091cb: 6a 60                        	push	96
c01091cd: eb 60                        	jmp	0xc010922f <int_common_handler>

c01091cf <irq0>:
c01091cf: 6a 00                        	push	0
c01091d1: 6a 20                        	push	32
c01091d3: eb 5a                        	jmp	0xc010922f <int_common_handler>

c01091d5 <irq1>:
c01091d5: 6a 00                        	push	0
c01091d7: 6a 21                        	push	33
c01091d9: eb 54                        	jmp	0xc010922f <int_common_handler>

c01091db <irq2>:
c01091db: 6a 00                        	push	0
c01091dd: 6a 22                        	push	34
c01091df: eb 4e                        	jmp	0xc010922f <int_common_handler>

c01091e1 <irq3>:
c01091e1: 6a 00                        	push	0
c01091e3: 6a 23                        	push	35
c01091e5: eb 48                        	jmp	0xc010922f <int_common_handler>

c01091e7 <irq4>:
c01091e7: 6a 00                        	push	0
c01091e9: 6a 24                        	push	36
c01091eb: eb 42                        	jmp	0xc010922f <int_common_handler>

c01091ed <irq5>:
c01091ed: 6a 00                        	push	0
c01091ef: 6a 25                        	push	37
c01091f1: eb 3c                        	jmp	0xc010922f <int_common_handler>

c01091f3 <irq6>:
c01091f3: 6a 00                        	push	0
c01091f5: 6a 26                        	push	38
c01091f7: eb 36                        	jmp	0xc010922f <int_common_handler>

c01091f9 <irq7>:
c01091f9: 6a 00                        	push	0
c01091fb: 6a 27                        	push	39
c01091fd: eb 30                        	jmp	0xc010922f <int_common_handler>

c01091ff <irq8>:
c01091ff: 6a 00                        	push	0
c0109201: 6a 28                        	push	40
c0109203: eb 2a                        	jmp	0xc010922f <int_common_handler>

c0109205 <irq9>:
c0109205: 6a 00                        	push	0
c0109207: 6a 29                        	push	41
c0109209: eb 24                        	jmp	0xc010922f <int_common_handler>

c010920b <irq10>:
c010920b: 6a 00                        	push	0
c010920d: 6a 2a                        	push	42
c010920f: eb 1e                        	jmp	0xc010922f <int_common_handler>

c0109211 <irq11>:
c0109211: 6a 00                        	push	0
c0109213: 6a 2b                        	push	43
c0109215: eb 18                        	jmp	0xc010922f <int_common_handler>

c0109217 <irq12>:
c0109217: 6a 00                        	push	0
c0109219: 6a 2c                        	push	44
c010921b: eb 12                        	jmp	0xc010922f <int_common_handler>

c010921d <irq13>:
c010921d: 6a 00                        	push	0
c010921f: 6a 2d                        	push	45
c0109221: eb 0c                        	jmp	0xc010922f <int_common_handler>

c0109223 <irq14>:
c0109223: 6a 00                        	push	0
c0109225: 6a 2e                        	push	46
c0109227: eb 06                        	jmp	0xc010922f <int_common_handler>

c0109229 <irq15>:
c0109229: 6a 00                        	push	0
c010922b: 6a 2f                        	push	47
c010922d: eb 00                        	jmp	0xc010922f <int_common_handler>

c010922f <int_common_handler>:
c010922f: 60                           	pushal
c0109230: 1e                           	push	ds
c0109231: 06                           	push	es
c0109232: 0f a0                        	push	fs
c0109234: 0f a8                        	push	gs
c0109236: 66 b8 10 00                  	mov	ax, 16
c010923a: 8e d8                        	mov	ds, eax
c010923c: 8e c0                        	mov	es, eax
c010923e: 8e e0                        	mov	fs, eax
c0109240: 8e e8                        	mov	gs, eax
c0109242: fb                           	sti
c0109243: 54                           	push	esp
c0109244: fc                           	cld
c0109245: e8 62 f3 ff ff               	call	0xc01085ac <x86_interrupt_handler>
c010924a: 83 c4 04                     	add	esp, 4
c010924d: 0f a9                        	pop	gs
c010924f: 0f a1                        	pop	fs
c0109251: 07                           	pop	es
c0109252: 1f                           	pop	ds
c0109253: 61                           	popal
c0109254: 83 c4 08                     	add	esp, 8
c0109257: cf                           	iretd
c0109258: 66 90                        	nop
c010925a: 66 90                        	nop
c010925c: 66 90                        	nop
c010925e: 66 90                        	nop

c0109260 <x86_tss_load>:
c0109260: 8b 44 24 04                  	mov	eax, dword ptr [esp + 4]
c0109264: 0f 00 d8                     	ltr	ax
c0109267: c3                           	ret
c0109268: 66 90                        	nop
c010926a: 66 90                        	nop
c010926c: 66 90                        	nop
c010926e: 66 90                        	nop

c0109270 <x86_set_cr3>:
c0109270: 8b 44 24 04                  	mov	eax, dword ptr [esp + 4]
c0109274: 0f 22 d8                     	mov	cr3, eax
c0109277: c3                           	ret
c0109278: 66 90                        	nop
c010927a: 66 90                        	nop
c010927c: 66 90                        	nop
c010927e: 66 90                        	nop

c0109280 <x86_spinlocks_held>:
c0109280: 00 00                        	add	byte ptr [eax], al
c0109282: 00 00                        	add	byte ptr [eax], al

c0109284 <arch_irq_spinlock_acquire>:
c0109284: fa                           	cli
c0109285: 8b 44 24 04                  	mov	eax, dword ptr [esp + 4]

c0109289 <arch_irq_spinlock_acquire.try_acquire>:
c0109289: f0                           	lock
c010928a: 0f ba 28 00                  	bts	dword ptr [eax], 0
c010928e: 72 07                        	jb	0xc0109297 <arch_irq_spinlock_acquire.spin_wait>
c0109290: ff 05 80 92 10 c0            	inc	dword ptr [-1072655744]
c0109296: c3                           	ret

c0109297 <arch_irq_spinlock_acquire.spin_wait>:
c0109297: f3 90                        	pause
c0109299: f7 00 01 00 00 00            	test	dword ptr [eax], 1
c010929f: 75 f6                        	jne	0xc0109297 <arch_irq_spinlock_acquire.spin_wait>
c01092a1: eb e6                        	jmp	0xc0109289 <arch_irq_spinlock_acquire.try_acquire>

c01092a3 <arch_irq_spinlock_release>:
c01092a3: 8b 44 24 04                  	mov	eax, dword ptr [esp + 4]
c01092a7: ff 0d 80 92 10 c0            	dec	dword ptr [-1072655744]
c01092ad: 75 0a                        	jne	0xc01092b9 <arch_irq_spinlock_release.noEnableIRQ>
c01092af: 83 3d 74 0e 11 c0 00         	cmp	dword ptr [-1072624012], 0
c01092b6: 74 01                        	je	0xc01092b9 <arch_irq_spinlock_release.noEnableIRQ>
c01092b8: fb                           	sti

c01092b9 <arch_irq_spinlock_release.noEnableIRQ>:
c01092b9: f0                           	lock
c01092ba: 0f ba 30 00                  	btr	dword ptr [eax], 0
c01092be: c3                           	ret
c01092bf: 90                           	nop

c01092c0 <arch_prepare_stack>:
c01092c0: 8b 44 24 04                  	mov	eax, dword ptr [esp + 4]
c01092c4: 83 e8 14                     	sub	eax, 20
c01092c7: c7 40 10 1c 47 10 c0         	mov	dword ptr [eax + 16], 3222292252
c01092ce: c3                           	ret

c01092cf <arch_switch_thread>:
c01092cf: 53                           	push	ebx
c01092d0: 56                           	push	esi
c01092d1: 57                           	push	edi
c01092d2: 55                           	push	ebp
c01092d3: 8b 3d 18 0e 11 c0            	mov	edi, dword ptr [-1072624104]
c01092d9: 8b 3f                        	mov	edi, dword ptr [edi]
c01092db: 89 67 08                     	mov	dword ptr [edi + 8], esp
c01092de: 8b 74 24 14                  	mov	esi, dword ptr [esp + 20]
c01092e2: 8b 3d 18 0e 11 c0            	mov	edi, dword ptr [-1072624104]
c01092e8: 89 37                        	mov	dword ptr [edi], esi
c01092ea: 8b 66 08                     	mov	esp, dword ptr [esi + 8]
c01092ed: 8b 5e 04                     	mov	ebx, dword ptr [esi + 4]
c01092f0: 8b 4f 08                     	mov	ecx, dword ptr [edi + 8]
c01092f3: 8b 09                        	mov	ecx, dword ptr [ecx]
c01092f5: 89 59 04                     	mov	dword ptr [ecx + 4], ebx
c01092f8: 5d                           	pop	ebp
c01092f9: 5f                           	pop	edi
c01092fa: 5e                           	pop	esi
c01092fb: 5b                           	pop	ebx
c01092fc: c3                           	ret
c01092fd: 66 90                        	nop
c01092ff: 90                           	nop

c0109300 <arch_switch_to_usermode>:
c0109300: 8b 5c 24 04                  	mov	ebx, dword ptr [esp + 4]
c0109304: 8b 4c 24 08                  	mov	ecx, dword ptr [esp + 8]
c0109308: 66 b8 23 00                  	mov	ax, 35
c010930c: 8e d8                        	mov	ds, eax
c010930e: 8e c0                        	mov	es, eax
c0109310: 8e e0                        	mov	fs, eax
c0109312: 8e e8                        	mov	gs, eax
c0109314: 6a 23                        	push	35
c0109316: 51                           	push	ecx
c0109317: 68 02 02 00 00               	push	514
c010931c: 6a 1b                        	push	27
c010931e: 53                           	push	ebx
c010931f: cf                           	iretd

c0109320 <__udivdi3>:
c0109320: 55                           	push	ebp
c0109321: 89 e5                        	mov	ebp, esp
c0109323: 57                           	push	edi
c0109324: 56                           	push	esi
c0109325: 53                           	push	ebx
c0109326: 83 ec 1c                     	sub	esp, 28
c0109329: 8b 7d 08                     	mov	edi, dword ptr [ebp + 8]
c010932c: 8b 45 14                     	mov	eax, dword ptr [ebp + 20]
c010932f: 8b 75 0c                     	mov	esi, dword ptr [ebp + 12]
c0109332: 8b 5d 10                     	mov	ebx, dword ptr [ebp + 16]
c0109335: 89 7d e4                     	mov	dword ptr [ebp - 28], edi
c0109338: 85 c0                        	test	eax, eax
c010933a: 75 1c                        	jne	0xc0109358 <__udivdi3+0x38>
c010933c: 39 de                        	cmp	esi, ebx
c010933e: 73 50                        	jae	0xc0109390 <__udivdi3+0x70>
c0109340: 89 f8                        	mov	eax, edi
c0109342: 31 ff                        	xor	edi, edi
c0109344: 89 f2                        	mov	edx, esi
c0109346: f7 f3                        	div	ebx
c0109348: 89 fa                        	mov	edx, edi
c010934a: 83 c4 1c                     	add	esp, 28
c010934d: 5b                           	pop	ebx
c010934e: 5e                           	pop	esi
c010934f: 5f                           	pop	edi
c0109350: 5d                           	pop	ebp
c0109351: c3                           	ret
c0109352: 8d b6 00 00 00 00            	lea	esi, [esi]
c0109358: 39 c6                        	cmp	esi, eax
c010935a: 73 14                        	jae	0xc0109370 <__udivdi3+0x50>
c010935c: 31 ff                        	xor	edi, edi
c010935e: 31 c0                        	xor	eax, eax
c0109360: 89 fa                        	mov	edx, edi
c0109362: 83 c4 1c                     	add	esp, 28
c0109365: 5b                           	pop	ebx
c0109366: 5e                           	pop	esi
c0109367: 5f                           	pop	edi
c0109368: 5d                           	pop	ebp
c0109369: c3                           	ret
c010936a: 8d b6 00 00 00 00            	lea	esi, [esi]
c0109370: 0f bd f8                     	bsr	edi, eax
c0109373: 83 f7 1f                     	xor	edi, 31
c0109376: 75 48                        	jne	0xc01093c0 <__udivdi3+0xa0>
c0109378: 39 f0                        	cmp	eax, esi
c010937a: 72 07                        	jb	0xc0109383 <__udivdi3+0x63>
c010937c: 31 c0                        	xor	eax, eax
c010937e: 39 5d e4                     	cmp	dword ptr [ebp - 28], ebx
c0109381: 72 dd                        	jb	0xc0109360 <__udivdi3+0x40>
c0109383: b8 01 00 00 00               	mov	eax, 1
c0109388: eb d6                        	jmp	0xc0109360 <__udivdi3+0x40>
c010938a: 8d b6 00 00 00 00            	lea	esi, [esi]
c0109390: 89 d9                        	mov	ecx, ebx
c0109392: 85 db                        	test	ebx, ebx
c0109394: 75 0b                        	jne	0xc01093a1 <__udivdi3+0x81>
c0109396: b8 01 00 00 00               	mov	eax, 1
c010939b: 31 d2                        	xor	edx, edx
c010939d: f7 f3                        	div	ebx
c010939f: 89 c1                        	mov	ecx, eax
c01093a1: 31 d2                        	xor	edx, edx
c01093a3: 89 f0                        	mov	eax, esi
c01093a5: f7 f1                        	div	ecx
c01093a7: 89 c6                        	mov	esi, eax
c01093a9: 8b 45 e4                     	mov	eax, dword ptr [ebp - 28]
c01093ac: 89 f7                        	mov	edi, esi
c01093ae: f7 f1                        	div	ecx
c01093b0: 89 fa                        	mov	edx, edi
c01093b2: 83 c4 1c                     	add	esp, 28
c01093b5: 5b                           	pop	ebx
c01093b6: 5e                           	pop	esi
c01093b7: 5f                           	pop	edi
c01093b8: 5d                           	pop	ebp
c01093b9: c3                           	ret
c01093ba: 8d b6 00 00 00 00            	lea	esi, [esi]
c01093c0: 89 f9                        	mov	ecx, edi
c01093c2: ba 20 00 00 00               	mov	edx, 32
c01093c7: 29 fa                        	sub	edx, edi
c01093c9: d3 e0                        	shl	eax, cl
c01093cb: 89 45 e0                     	mov	dword ptr [ebp - 32], eax
c01093ce: 89 d1                        	mov	ecx, edx
c01093d0: 89 d8                        	mov	eax, ebx
c01093d2: d3 e8                        	shr	eax, cl
c01093d4: 89 c1                        	mov	ecx, eax
c01093d6: 8b 45 e0                     	mov	eax, dword ptr [ebp - 32]
c01093d9: 09 c1                        	or	ecx, eax
c01093db: 89 f0                        	mov	eax, esi
c01093dd: 89 4d e0                     	mov	dword ptr [ebp - 32], ecx
c01093e0: 89 f9                        	mov	ecx, edi
c01093e2: d3 e3                        	shl	ebx, cl
c01093e4: 89 d1                        	mov	ecx, edx
c01093e6: d3 e8                        	shr	eax, cl
c01093e8: 89 5d dc                     	mov	dword ptr [ebp - 36], ebx
c01093eb: 89 f9                        	mov	ecx, edi
c01093ed: 8b 5d e4                     	mov	ebx, dword ptr [ebp - 28]
c01093f0: d3 e6                        	shl	esi, cl
c01093f2: 89 d1                        	mov	ecx, edx
c01093f4: d3 eb                        	shr	ebx, cl
c01093f6: 09 f3                        	or	ebx, esi
c01093f8: 89 c6                        	mov	esi, eax
c01093fa: 89 f2                        	mov	edx, esi
c01093fc: 89 d8                        	mov	eax, ebx
c01093fe: f7 75 e0                     	div	dword ptr [ebp - 32]
c0109401: 89 d6                        	mov	esi, edx
c0109403: 89 c3                        	mov	ebx, eax
c0109405: f7 65 dc                     	mul	dword ptr [ebp - 36]
c0109408: 89 55 e0                     	mov	dword ptr [ebp - 32], edx
c010940b: 39 d6                        	cmp	esi, edx
c010940d: 72 21                        	jb	0xc0109430 <__udivdi3+0x110>
c010940f: 8b 55 e4                     	mov	edx, dword ptr [ebp - 28]
c0109412: 89 f9                        	mov	ecx, edi
c0109414: d3 e2                        	shl	edx, cl
c0109416: 39 c2                        	cmp	edx, eax
c0109418: 73 07                        	jae	0xc0109421 <__udivdi3+0x101>
c010941a: 8b 55 e0                     	mov	edx, dword ptr [ebp - 32]
c010941d: 39 d6                        	cmp	esi, edx
c010941f: 74 0f                        	je	0xc0109430 <__udivdi3+0x110>
c0109421: 89 d8                        	mov	eax, ebx
c0109423: 31 ff                        	xor	edi, edi
c0109425: e9 36 ff ff ff               	jmp	0xc0109360 <__udivdi3+0x40>
c010942a: 8d b6 00 00 00 00            	lea	esi, [esi]
c0109430: 8d 43 ff                     	lea	eax, [ebx - 1]
c0109433: 31 ff                        	xor	edi, edi
c0109435: e9 26 ff ff ff               	jmp	0xc0109360 <__udivdi3+0x40>

Disassembly of section userkernel:

c010943a <signal_default_terminate_handler>:
c010943a: c3                           	ret

c010943b <signal_default_abort_handler>:
c010943b: c3                           	ret

Disassembly of section align_previous:

c010943c <DO_NOT_DELETE>:
c010943c: c3                           	ret
