
./build/output/kernel.exe:     file format elf32-i386


Disassembly of section .text:

c0101000 <assertion_fail>:
c0101000:	55                   	push   ebp
c0101001:	89 e5                	mov    ebp,esp
c0101003:	83 ec 14             	sub    esp,0x14
c0101006:	ff 75 0c             	push   DWORD PTR [ebp+0xc]
c0101009:	ff 75 08             	push   DWORD PTR [ebp+0x8]
c010100c:	ff 75 14             	push   DWORD PTR [ebp+0x14]
c010100f:	ff 75 10             	push   DWORD PTR [ebp+0x10]
c0101012:	68 c0 91 10 c0       	push   0xc01091c0
c0101017:	e8 9e 38 00 00       	call   c01048ba <kprintf>
c010101c:	83 c4 14             	add    esp,0x14
c010101f:	68 e2 91 10 c0       	push   0xc01091e2
c0101024:	e8 4b 3a 00 00       	call   c0104a74 <panic>

c0101029 <toupper>:
c0101029:	55                   	push   ebp
c010102a:	89 e5                	mov    ebp,esp
c010102c:	8b 45 08             	mov    eax,DWORD PTR [ebp+0x8]
c010102f:	8d 50 9f             	lea    edx,[eax-0x61]
c0101032:	83 fa 19             	cmp    edx,0x19
c0101035:	77 03                	ja     c010103a <toupper+0x11>
c0101037:	83 e8 20             	sub    eax,0x20
c010103a:	5d                   	pop    ebp
c010103b:	c3                   	ret    

c010103c <tolower>:
c010103c:	55                   	push   ebp
c010103d:	89 e5                	mov    ebp,esp
c010103f:	8b 45 08             	mov    eax,DWORD PTR [ebp+0x8]
c0101042:	8d 50 bf             	lea    edx,[eax-0x41]
c0101045:	83 fa 19             	cmp    edx,0x19
c0101048:	77 03                	ja     c010104d <tolower+0x11>
c010104a:	83 c0 20             	add    eax,0x20
c010104d:	5d                   	pop    ebp
c010104e:	c3                   	ret    

c010104f <isalpha>:
c010104f:	55                   	push   ebp
c0101050:	89 e5                	mov    ebp,esp
c0101052:	8b 45 08             	mov    eax,DWORD PTR [ebp+0x8]
c0101055:	83 e0 df             	and    eax,0xffffffdf
c0101058:	83 e8 41             	sub    eax,0x41
c010105b:	83 f8 19             	cmp    eax,0x19
c010105e:	0f 96 c0             	setbe  al
c0101061:	0f b6 c0             	movzx  eax,al
c0101064:	5d                   	pop    ebp
c0101065:	c3                   	ret    

c0101066 <isalnum>:
c0101066:	55                   	push   ebp
c0101067:	89 e5                	mov    ebp,esp
c0101069:	83 ec 14             	sub    esp,0x14
c010106c:	8b 55 08             	mov    edx,DWORD PTR [ebp+0x8]
c010106f:	52                   	push   edx
c0101070:	e8 da ff ff ff       	call   c010104f <isalpha>
c0101075:	83 c4 10             	add    esp,0x10
c0101078:	b9 01 00 00 00       	mov    ecx,0x1
c010107d:	85 c0                	test   eax,eax
c010107f:	75 0b                	jne    c010108c <isalnum+0x26>
c0101081:	83 ea 30             	sub    edx,0x30
c0101084:	31 c9                	xor    ecx,ecx
c0101086:	83 fa 09             	cmp    edx,0x9
c0101089:	0f 96 c1             	setbe  cl
c010108c:	89 c8                	mov    eax,ecx
c010108e:	c9                   	leave  
c010108f:	c3                   	ret    

c0101090 <iscntrl>:
c0101090:	55                   	push   ebp
c0101091:	89 e5                	mov    ebp,esp
c0101093:	8b 55 08             	mov    edx,DWORD PTR [ebp+0x8]
c0101096:	83 fa 7f             	cmp    edx,0x7f
c0101099:	0f 94 c0             	sete   al
c010109c:	83 fa 1f             	cmp    edx,0x1f
c010109f:	0f 9e c2             	setle  dl
c01010a2:	09 d0                	or     eax,edx
c01010a4:	0f b6 c0             	movzx  eax,al
c01010a7:	5d                   	pop    ebp
c01010a8:	c3                   	ret    

c01010a9 <isblank>:
c01010a9:	55                   	push   ebp
c01010aa:	89 e5                	mov    ebp,esp
c01010ac:	8b 55 08             	mov    edx,DWORD PTR [ebp+0x8]
c01010af:	83 fa 20             	cmp    edx,0x20
c01010b2:	0f 94 c0             	sete   al
c01010b5:	83 fa 09             	cmp    edx,0x9
c01010b8:	0f 94 c2             	sete   dl
c01010bb:	09 d0                	or     eax,edx
c01010bd:	0f b6 c0             	movzx  eax,al
c01010c0:	5d                   	pop    ebp
c01010c1:	c3                   	ret    

c01010c2 <isdigit>:
c01010c2:	55                   	push   ebp
c01010c3:	89 e5                	mov    ebp,esp
c01010c5:	8b 45 08             	mov    eax,DWORD PTR [ebp+0x8]
c01010c8:	83 e8 30             	sub    eax,0x30
c01010cb:	83 f8 09             	cmp    eax,0x9
c01010ce:	0f 96 c0             	setbe  al
c01010d1:	0f b6 c0             	movzx  eax,al
c01010d4:	5d                   	pop    ebp
c01010d5:	c3                   	ret    

c01010d6 <islower>:
c01010d6:	55                   	push   ebp
c01010d7:	89 e5                	mov    ebp,esp
c01010d9:	8b 45 08             	mov    eax,DWORD PTR [ebp+0x8]
c01010dc:	83 e8 61             	sub    eax,0x61
c01010df:	83 f8 19             	cmp    eax,0x19
c01010e2:	0f 96 c0             	setbe  al
c01010e5:	0f b6 c0             	movzx  eax,al
c01010e8:	5d                   	pop    ebp
c01010e9:	c3                   	ret    

c01010ea <ispunct>:
c01010ea:	ba f1 91 10 c0       	mov    edx,0xc01091f1
c01010ef:	0f be 02             	movsx  eax,BYTE PTR [edx]
c01010f2:	84 c0                	test   al,al
c01010f4:	75 03                	jne    c01010f9 <ispunct+0xf>
c01010f6:	31 c0                	xor    eax,eax
c01010f8:	c3                   	ret    
c01010f9:	55                   	push   ebp
c01010fa:	89 e5                	mov    ebp,esp
c01010fc:	42                   	inc    edx
c01010fd:	3b 45 08             	cmp    eax,DWORD PTR [ebp+0x8]
c0101100:	74 0b                	je     c010110d <ispunct+0x23>
c0101102:	0f be 02             	movsx  eax,BYTE PTR [edx]
c0101105:	84 c0                	test   al,al
c0101107:	75 f3                	jne    c01010fc <ispunct+0x12>
c0101109:	31 c0                	xor    eax,eax
c010110b:	eb 05                	jmp    c0101112 <ispunct+0x28>
c010110d:	b8 01 00 00 00       	mov    eax,0x1
c0101112:	5d                   	pop    ebp
c0101113:	c3                   	ret    

c0101114 <isgraph>:
c0101114:	55                   	push   ebp
c0101115:	89 e5                	mov    ebp,esp
c0101117:	53                   	push   ebx
c0101118:	83 ec 10             	sub    esp,0x10
c010111b:	8b 5d 08             	mov    ebx,DWORD PTR [ebp+0x8]
c010111e:	53                   	push   ebx
c010111f:	e8 42 ff ff ff       	call   c0101066 <isalnum>
c0101124:	83 c4 10             	add    esp,0x10
c0101127:	ba 01 00 00 00       	mov    edx,0x1
c010112c:	85 c0                	test   eax,eax
c010112e:	75 13                	jne    c0101143 <isgraph+0x2f>
c0101130:	83 ec 0c             	sub    esp,0xc
c0101133:	53                   	push   ebx
c0101134:	e8 b1 ff ff ff       	call   c01010ea <ispunct>
c0101139:	83 c4 10             	add    esp,0x10
c010113c:	31 d2                	xor    edx,edx
c010113e:	85 c0                	test   eax,eax
c0101140:	0f 95 c2             	setne  dl
c0101143:	89 d0                	mov    eax,edx
c0101145:	8b 5d fc             	mov    ebx,DWORD PTR [ebp-0x4]
c0101148:	c9                   	leave  
c0101149:	c3                   	ret    

c010114a <isprint>:
c010114a:	55                   	push   ebp
c010114b:	89 e5                	mov    ebp,esp
c010114d:	53                   	push   ebx
c010114e:	83 ec 10             	sub    esp,0x10
c0101151:	8b 5d 08             	mov    ebx,DWORD PTR [ebp+0x8]
c0101154:	53                   	push   ebx
c0101155:	e8 ba ff ff ff       	call   c0101114 <isgraph>
c010115a:	83 c4 10             	add    esp,0x10
c010115d:	83 fb 20             	cmp    ebx,0x20
c0101160:	0f 94 c2             	sete   dl
c0101163:	85 c0                	test   eax,eax
c0101165:	0f 95 c0             	setne  al
c0101168:	09 d0                	or     eax,edx
c010116a:	0f b6 c0             	movzx  eax,al
c010116d:	8b 5d fc             	mov    ebx,DWORD PTR [ebp-0x4]
c0101170:	c9                   	leave  
c0101171:	c3                   	ret    

c0101172 <isspace>:
c0101172:	55                   	push   ebp
c0101173:	89 e5                	mov    ebp,esp
c0101175:	8b 55 08             	mov    edx,DWORD PTR [ebp+0x8]
c0101178:	8d 42 f7             	lea    eax,[edx-0x9]
c010117b:	83 f8 04             	cmp    eax,0x4
c010117e:	0f 96 c0             	setbe  al
c0101181:	83 fa 20             	cmp    edx,0x20
c0101184:	0f 94 c2             	sete   dl
c0101187:	09 d0                	or     eax,edx
c0101189:	0f b6 c0             	movzx  eax,al
c010118c:	5d                   	pop    ebp
c010118d:	c3                   	ret    

c010118e <isupper>:
c010118e:	55                   	push   ebp
c010118f:	89 e5                	mov    ebp,esp
c0101191:	8b 45 08             	mov    eax,DWORD PTR [ebp+0x8]
c0101194:	83 e8 41             	sub    eax,0x41
c0101197:	83 f8 19             	cmp    eax,0x19
c010119a:	0f 96 c0             	setbe  al
c010119d:	0f b6 c0             	movzx  eax,al
c01011a0:	5d                   	pop    ebp
c01011a1:	c3                   	ret    

c01011a2 <isxdigit>:
c01011a2:	55                   	push   ebp
c01011a3:	89 e5                	mov    ebp,esp
c01011a5:	8b 55 08             	mov    edx,DWORD PTR [ebp+0x8]
c01011a8:	8d 4a d0             	lea    ecx,[edx-0x30]
c01011ab:	b8 01 00 00 00       	mov    eax,0x1
c01011b0:	83 f9 09             	cmp    ecx,0x9
c01011b3:	76 0e                	jbe    c01011c3 <isxdigit+0x21>
c01011b5:	83 e2 df             	and    edx,0xffffffdf
c01011b8:	83 ea 41             	sub    edx,0x41
c01011bb:	31 c0                	xor    eax,eax
c01011bd:	83 fa 05             	cmp    edx,0x5
c01011c0:	0f 96 c0             	setbe  al
c01011c3:	5d                   	pop    ebp
c01011c4:	c3                   	ret    

c01011c5 <memchr>:
c01011c5:	55                   	push   ebp
c01011c6:	89 e5                	mov    ebp,esp
c01011c8:	8b 45 08             	mov    eax,DWORD PTR [ebp+0x8]
c01011cb:	8b 4d 0c             	mov    ecx,DWORD PTR [ebp+0xc]
c01011ce:	8b 55 10             	mov    edx,DWORD PTR [ebp+0x10]
c01011d1:	01 c2                	add    edx,eax
c01011d3:	39 d0                	cmp    eax,edx
c01011d5:	74 07                	je     c01011de <memchr+0x19>
c01011d7:	38 08                	cmp    BYTE PTR [eax],cl
c01011d9:	74 05                	je     c01011e0 <memchr+0x1b>
c01011db:	40                   	inc    eax
c01011dc:	eb f5                	jmp    c01011d3 <memchr+0xe>
c01011de:	31 c0                	xor    eax,eax
c01011e0:	5d                   	pop    ebp
c01011e1:	c3                   	ret    

c01011e2 <memcmp>:
c01011e2:	55                   	push   ebp
c01011e3:	89 e5                	mov    ebp,esp
c01011e5:	56                   	push   esi
c01011e6:	53                   	push   ebx
c01011e7:	8b 45 08             	mov    eax,DWORD PTR [ebp+0x8]
c01011ea:	8b 55 0c             	mov    edx,DWORD PTR [ebp+0xc]
c01011ed:	8b 75 10             	mov    esi,DWORD PTR [ebp+0x10]
c01011f0:	01 c6                	add    esi,eax
c01011f2:	39 f0                	cmp    eax,esi
c01011f4:	74 15                	je     c010120b <memcmp+0x29>
c01011f6:	8a 18                	mov    bl,BYTE PTR [eax]
c01011f8:	8a 0a                	mov    cl,BYTE PTR [edx]
c01011fa:	38 cb                	cmp    bl,cl
c01011fc:	72 11                	jb     c010120f <memcmp+0x2d>
c01011fe:	40                   	inc    eax
c01011ff:	42                   	inc    edx
c0101200:	38 cb                	cmp    bl,cl
c0101202:	76 ee                	jbe    c01011f2 <memcmp+0x10>
c0101204:	b8 01 00 00 00       	mov    eax,0x1
c0101209:	eb 07                	jmp    c0101212 <memcmp+0x30>
c010120b:	31 c0                	xor    eax,eax
c010120d:	eb 03                	jmp    c0101212 <memcmp+0x30>
c010120f:	83 c8 ff             	or     eax,0xffffffff
c0101212:	5b                   	pop    ebx
c0101213:	5e                   	pop    esi
c0101214:	5d                   	pop    ebp
c0101215:	c3                   	ret    

c0101216 <memcpy>:
c0101216:	55                   	push   ebp
c0101217:	89 e5                	mov    ebp,esp
c0101219:	57                   	push   edi
c010121a:	56                   	push   esi
c010121b:	8b 45 08             	mov    eax,DWORD PTR [ebp+0x8]
c010121e:	8b 75 0c             	mov    esi,DWORD PTR [ebp+0xc]
c0101221:	8b 4d 10             	mov    ecx,DWORD PTR [ebp+0x10]
c0101224:	89 c7                	mov    edi,eax
c0101226:	f3 a4                	rep movs BYTE PTR es:[edi],BYTE PTR ds:[esi]
c0101228:	5e                   	pop    esi
c0101229:	5f                   	pop    edi
c010122a:	5d                   	pop    ebp
c010122b:	c3                   	ret    

c010122c <memmove>:
c010122c:	55                   	push   ebp
c010122d:	89 e5                	mov    ebp,esp
c010122f:	57                   	push   edi
c0101230:	56                   	push   esi
c0101231:	8b 45 08             	mov    eax,DWORD PTR [ebp+0x8]
c0101234:	8b 75 0c             	mov    esi,DWORD PTR [ebp+0xc]
c0101237:	8b 55 10             	mov    edx,DWORD PTR [ebp+0x10]
c010123a:	39 f0                	cmp    eax,esi
c010123c:	77 0b                	ja     c0101249 <memmove+0x1d>
c010123e:	01 c2                	add    edx,eax
c0101240:	89 c7                	mov    edi,eax
c0101242:	39 d7                	cmp    edi,edx
c0101244:	74 11                	je     c0101257 <memmove+0x2b>
c0101246:	a4                   	movs   BYTE PTR es:[edi],BYTE PTR ds:[esi]
c0101247:	eb f9                	jmp    c0101242 <memmove+0x16>
c0101249:	4a                   	dec    edx
c010124a:	83 fa ff             	cmp    edx,0xffffffff
c010124d:	74 08                	je     c0101257 <memmove+0x2b>
c010124f:	8a 0c 16             	mov    cl,BYTE PTR [esi+edx*1]
c0101252:	88 0c 10             	mov    BYTE PTR [eax+edx*1],cl
c0101255:	eb f2                	jmp    c0101249 <memmove+0x1d>
c0101257:	5e                   	pop    esi
c0101258:	5f                   	pop    edi
c0101259:	5d                   	pop    ebp
c010125a:	c3                   	ret    

c010125b <memset>:
c010125b:	55                   	push   ebp
c010125c:	89 e5                	mov    ebp,esp
c010125e:	57                   	push   edi
c010125f:	8b 4d 10             	mov    ecx,DWORD PTR [ebp+0x10]
c0101262:	8a 45 0c             	mov    al,BYTE PTR [ebp+0xc]
c0101265:	8b 7d 08             	mov    edi,DWORD PTR [ebp+0x8]
c0101268:	f3 aa                	rep stos BYTE PTR es:[edi],al
c010126a:	8b 45 08             	mov    eax,DWORD PTR [ebp+0x8]
c010126d:	5f                   	pop    edi
c010126e:	5d                   	pop    ebp
c010126f:	c3                   	ret    

c0101270 <strcat>:
c0101270:	55                   	push   ebp
c0101271:	89 e5                	mov    ebp,esp
c0101273:	53                   	push   ebx
c0101274:	8b 45 08             	mov    eax,DWORD PTR [ebp+0x8]
c0101277:	89 c2                	mov    edx,eax
c0101279:	80 38 00             	cmp    BYTE PTR [eax],0x0
c010127c:	74 06                	je     c0101284 <strcat+0x14>
c010127e:	42                   	inc    edx
c010127f:	80 3a 00             	cmp    BYTE PTR [edx],0x0
c0101282:	eb f8                	jmp    c010127c <strcat+0xc>
c0101284:	31 c9                	xor    ecx,ecx
c0101286:	8b 5d 0c             	mov    ebx,DWORD PTR [ebp+0xc]
c0101289:	8a 1c 0b             	mov    bl,BYTE PTR [ebx+ecx*1]
c010128c:	88 1c 0a             	mov    BYTE PTR [edx+ecx*1],bl
c010128f:	41                   	inc    ecx
c0101290:	84 db                	test   bl,bl
c0101292:	75 f2                	jne    c0101286 <strcat+0x16>
c0101294:	5b                   	pop    ebx
c0101295:	5d                   	pop    ebp
c0101296:	c3                   	ret    

c0101297 <strchr>:
c0101297:	55                   	push   ebp
c0101298:	89 e5                	mov    ebp,esp
c010129a:	8b 45 08             	mov    eax,DWORD PTR [ebp+0x8]
c010129d:	8a 10                	mov    dl,BYTE PTR [eax]
c010129f:	3a 55 0c             	cmp    dl,BYTE PTR [ebp+0xc]
c01012a2:	74 07                	je     c01012ab <strchr+0x14>
c01012a4:	40                   	inc    eax
c01012a5:	84 d2                	test   dl,dl
c01012a7:	75 f4                	jne    c010129d <strchr+0x6>
c01012a9:	31 c0                	xor    eax,eax
c01012ab:	5d                   	pop    ebp
c01012ac:	c3                   	ret    

c01012ad <strcmp>:
c01012ad:	55                   	push   ebp
c01012ae:	89 e5                	mov    ebp,esp
c01012b0:	31 c9                	xor    ecx,ecx
c01012b2:	8b 45 08             	mov    eax,DWORD PTR [ebp+0x8]
c01012b5:	0f b6 04 08          	movzx  eax,BYTE PTR [eax+ecx*1]
c01012b9:	8b 55 0c             	mov    edx,DWORD PTR [ebp+0xc]
c01012bc:	0f b6 14 0a          	movzx  edx,BYTE PTR [edx+ecx*1]
c01012c0:	84 c0                	test   al,al
c01012c2:	74 05                	je     c01012c9 <strcmp+0x1c>
c01012c4:	41                   	inc    ecx
c01012c5:	38 d0                	cmp    al,dl
c01012c7:	74 e9                	je     c01012b2 <strcmp+0x5>
c01012c9:	29 d0                	sub    eax,edx
c01012cb:	5d                   	pop    ebp
c01012cc:	c3                   	ret    

c01012cd <strcpy>:
c01012cd:	55                   	push   ebp
c01012ce:	89 e5                	mov    ebp,esp
c01012d0:	8b 45 08             	mov    eax,DWORD PTR [ebp+0x8]
c01012d3:	31 d2                	xor    edx,edx
c01012d5:	8b 4d 0c             	mov    ecx,DWORD PTR [ebp+0xc]
c01012d8:	8a 0c 11             	mov    cl,BYTE PTR [ecx+edx*1]
c01012db:	88 0c 10             	mov    BYTE PTR [eax+edx*1],cl
c01012de:	42                   	inc    edx
c01012df:	84 c9                	test   cl,cl
c01012e1:	75 f2                	jne    c01012d5 <strcpy+0x8>
c01012e3:	5d                   	pop    ebp
c01012e4:	c3                   	ret    

c01012e5 <strerror>:
c01012e5:	55                   	push   ebp
c01012e6:	89 e5                	mov    ebp,esp
c01012e8:	8b 55 08             	mov    edx,DWORD PTR [ebp+0x8]
c01012eb:	b8 12 92 10 c0       	mov    eax,0xc0109212
c01012f0:	83 fa 12             	cmp    edx,0x12
c01012f3:	77 07                	ja     c01012fc <strerror+0x17>
c01012f5:	8b 04 95 00 90 10 c0 	mov    eax,DWORD PTR [edx*4-0x3fef7000]
c01012fc:	5d                   	pop    ebp
c01012fd:	c3                   	ret    

c01012fe <strlen>:
c01012fe:	55                   	push   ebp
c01012ff:	89 e5                	mov    ebp,esp
c0101301:	8b 55 08             	mov    edx,DWORD PTR [ebp+0x8]
c0101304:	31 c0                	xor    eax,eax
c0101306:	80 3c 02 00          	cmp    BYTE PTR [edx+eax*1],0x0
c010130a:	74 03                	je     c010130f <strlen+0x11>
c010130c:	40                   	inc    eax
c010130d:	eb f7                	jmp    c0101306 <strlen+0x8>
c010130f:	5d                   	pop    ebp
c0101310:	c3                   	ret    

c0101311 <strncpy>:
c0101311:	55                   	push   ebp
c0101312:	89 e5                	mov    ebp,esp
c0101314:	56                   	push   esi
c0101315:	53                   	push   ebx
c0101316:	8b 45 08             	mov    eax,DWORD PTR [ebp+0x8]
c0101319:	8b 4d 0c             	mov    ecx,DWORD PTR [ebp+0xc]
c010131c:	8b 75 10             	mov    esi,DWORD PTR [ebp+0x10]
c010131f:	01 c6                	add    esi,eax
c0101321:	89 c2                	mov    edx,eax
c0101323:	39 f2                	cmp    edx,esi
c0101325:	74 0e                	je     c0101335 <strncpy+0x24>
c0101327:	8a 19                	mov    bl,BYTE PTR [ecx]
c0101329:	42                   	inc    edx
c010132a:	80 fb 01             	cmp    bl,0x1
c010132d:	83 d9 ff             	sbb    ecx,0xffffffff
c0101330:	88 5a ff             	mov    BYTE PTR [edx-0x1],bl
c0101333:	eb ee                	jmp    c0101323 <strncpy+0x12>
c0101335:	5b                   	pop    ebx
c0101336:	5e                   	pop    esi
c0101337:	5d                   	pop    ebp
c0101338:	c3                   	ret    

c0101339 <strdup>:
c0101339:	55                   	push   ebp
c010133a:	89 e5                	mov    ebp,esp
c010133c:	56                   	push   esi
c010133d:	53                   	push   ebx
c010133e:	8b 5d 08             	mov    ebx,DWORD PTR [ebp+0x8]
c0101341:	83 ec 0c             	sub    esp,0xc
c0101344:	53                   	push   ebx
c0101345:	e8 b4 ff ff ff       	call   c01012fe <strlen>
c010134a:	40                   	inc    eax
c010134b:	89 04 24             	mov    DWORD PTR [esp],eax
c010134e:	e8 70 0b 00 00       	call   c0101ec3 <malloc>
c0101353:	89 c6                	mov    esi,eax
c0101355:	58                   	pop    eax
c0101356:	5a                   	pop    edx
c0101357:	53                   	push   ebx
c0101358:	56                   	push   esi
c0101359:	e8 6f ff ff ff       	call   c01012cd <strcpy>
c010135e:	89 f0                	mov    eax,esi
c0101360:	8d 65 f8             	lea    esp,[ebp-0x8]
c0101363:	5b                   	pop    ebx
c0101364:	5e                   	pop    esi
c0101365:	5d                   	pop    ebp
c0101366:	c3                   	ret    

c0101367 <strncmp>:
c0101367:	55                   	push   ebp
c0101368:	89 e5                	mov    ebp,esp
c010136a:	56                   	push   esi
c010136b:	53                   	push   ebx
c010136c:	8b 55 08             	mov    edx,DWORD PTR [ebp+0x8]
c010136f:	8b 5d 0c             	mov    ebx,DWORD PTR [ebp+0xc]
c0101372:	8b 75 10             	mov    esi,DWORD PTR [ebp+0x10]
c0101375:	01 d6                	add    esi,edx
c0101377:	39 f2                	cmp    edx,esi
c0101379:	74 12                	je     c010138d <strncmp+0x26>
c010137b:	0f b6 02             	movzx  eax,BYTE PTR [edx]
c010137e:	0f b6 0b             	movzx  ecx,BYTE PTR [ebx]
c0101381:	84 c0                	test   al,al
c0101383:	74 0c                	je     c0101391 <strncmp+0x2a>
c0101385:	38 c8                	cmp    al,cl
c0101387:	75 08                	jne    c0101391 <strncmp+0x2a>
c0101389:	42                   	inc    edx
c010138a:	43                   	inc    ebx
c010138b:	eb ea                	jmp    c0101377 <strncmp+0x10>
c010138d:	31 c0                	xor    eax,eax
c010138f:	eb 02                	jmp    c0101393 <strncmp+0x2c>
c0101391:	29 c8                	sub    eax,ecx
c0101393:	5b                   	pop    ebx
c0101394:	5e                   	pop    esi
c0101395:	5d                   	pop    ebp
c0101396:	c3                   	ret    

c0101397 <beeper_start>:
c0101397:	55                   	push   ebp
c0101398:	89 e5                	mov    ebp,esp
c010139a:	83 ec 08             	sub    esp,0x8
c010139d:	80 3d 80 55 11 c0 00 	cmp    BYTE PTR ds:0xc0115580,0x0
c01013a4:	75 1b                	jne    c01013c1 <beeper_start+0x2a>
c01013a6:	50                   	push   eax
c01013a7:	50                   	push   eax
c01013a8:	68 dd 93 10 c0       	push   0xc01093dd
c01013ad:	68 00 e0 10 c0       	push   0xc010e000
c01013b2:	e8 95 1f 00 00       	call   c010334c <spinlock_init>
c01013b7:	c6 05 80 55 11 c0 01 	mov    BYTE PTR ds:0xc0115580,0x1
c01013be:	83 c4 10             	add    esp,0x10
c01013c1:	83 ec 0c             	sub    esp,0xc
c01013c4:	68 00 e0 10 c0       	push   0xc010e000
c01013c9:	e8 af 1f 00 00       	call   c010337d <spinlock_acquire>
c01013ce:	a1 84 55 11 c0       	mov    eax,ds:0xc0115584
c01013d3:	83 c4 10             	add    esp,0x10
c01013d6:	85 c0                	test   eax,eax
c01013d8:	74 1b                	je     c01013f5 <beeper_start+0x5e>
c01013da:	83 ec 0c             	sub    esp,0xc
c01013dd:	ff 75 08             	push   DWORD PTR [ebp+0x8]
c01013e0:	ff 10                	call   DWORD PTR [eax]
c01013e2:	c7 04 24 00 e0 10 c0 	mov    DWORD PTR [esp],0xc010e000
c01013e9:	e8 94 1f 00 00       	call   c0103382 <spinlock_release>
c01013ee:	83 c4 10             	add    esp,0x10
c01013f1:	31 c0                	xor    eax,eax
c01013f3:	eb 15                	jmp    c010140a <beeper_start+0x73>
c01013f5:	83 ec 0c             	sub    esp,0xc
c01013f8:	68 00 e0 10 c0       	push   0xc010e000
c01013fd:	e8 80 1f 00 00       	call   c0103382 <spinlock_release>
c0101402:	83 c4 10             	add    esp,0x10
c0101405:	b8 03 00 00 00       	mov    eax,0x3
c010140a:	c9                   	leave  
c010140b:	c3                   	ret    

c010140c <beeper_stop>:
c010140c:	55                   	push   ebp
c010140d:	89 e5                	mov    ebp,esp
c010140f:	83 ec 08             	sub    esp,0x8
c0101412:	80 3d 80 55 11 c0 00 	cmp    BYTE PTR ds:0xc0115580,0x0
c0101419:	75 1b                	jne    c0101436 <beeper_stop+0x2a>
c010141b:	50                   	push   eax
c010141c:	50                   	push   eax
c010141d:	68 dd 93 10 c0       	push   0xc01093dd
c0101422:	68 00 e0 10 c0       	push   0xc010e000
c0101427:	e8 20 1f 00 00       	call   c010334c <spinlock_init>
c010142c:	c6 05 80 55 11 c0 01 	mov    BYTE PTR ds:0xc0115580,0x1
c0101433:	83 c4 10             	add    esp,0x10
c0101436:	83 ec 0c             	sub    esp,0xc
c0101439:	68 00 e0 10 c0       	push   0xc010e000
c010143e:	e8 3a 1f 00 00       	call   c010337d <spinlock_acquire>
c0101443:	a1 84 55 11 c0       	mov    eax,ds:0xc0115584
c0101448:	83 c4 10             	add    esp,0x10
c010144b:	85 c0                	test   eax,eax
c010144d:	74 17                	je     c0101466 <beeper_stop+0x5a>
c010144f:	ff 50 04             	call   DWORD PTR [eax+0x4]
c0101452:	83 ec 0c             	sub    esp,0xc
c0101455:	68 00 e0 10 c0       	push   0xc010e000
c010145a:	e8 23 1f 00 00       	call   c0103382 <spinlock_release>
c010145f:	83 c4 10             	add    esp,0x10
c0101462:	31 c0                	xor    eax,eax
c0101464:	eb 15                	jmp    c010147b <beeper_stop+0x6f>
c0101466:	83 ec 0c             	sub    esp,0xc
c0101469:	68 00 e0 10 c0       	push   0xc010e000
c010146e:	e8 0f 1f 00 00       	call   c0103382 <spinlock_release>
c0101473:	83 c4 10             	add    esp,0x10
c0101476:	b8 03 00 00 00       	mov    eax,0x3
c010147b:	c9                   	leave  
c010147c:	c3                   	ret    

c010147d <beeper_register_driver>:
c010147d:	55                   	push   ebp
c010147e:	89 e5                	mov    ebp,esp
c0101480:	53                   	push   ebx
c0101481:	52                   	push   edx
c0101482:	8b 5d 08             	mov    ebx,DWORD PTR [ebp+0x8]
c0101485:	b8 03 00 00 00       	mov    eax,0x3
c010148a:	85 db                	test   ebx,ebx
c010148c:	74 6c                	je     c01014fa <beeper_register_driver+0x7d>
c010148e:	80 3d 80 55 11 c0 00 	cmp    BYTE PTR ds:0xc0115580,0x0
c0101495:	75 1b                	jne    c01014b2 <beeper_register_driver+0x35>
c0101497:	50                   	push   eax
c0101498:	50                   	push   eax
c0101499:	68 dd 93 10 c0       	push   0xc01093dd
c010149e:	68 00 e0 10 c0       	push   0xc010e000
c01014a3:	e8 a4 1e 00 00       	call   c010334c <spinlock_init>
c01014a8:	c6 05 80 55 11 c0 01 	mov    BYTE PTR ds:0xc0115580,0x1
c01014af:	83 c4 10             	add    esp,0x10
c01014b2:	83 ec 0c             	sub    esp,0xc
c01014b5:	68 00 e0 10 c0       	push   0xc010e000
c01014ba:	e8 be 1e 00 00       	call   c010337d <spinlock_acquire>
c01014bf:	83 c4 10             	add    esp,0x10
c01014c2:	83 3d 84 55 11 c0 00 	cmp    DWORD PTR ds:0xc0115584,0x0
c01014c9:	74 17                	je     c01014e2 <beeper_register_driver+0x65>
c01014cb:	83 ec 0c             	sub    esp,0xc
c01014ce:	68 00 e0 10 c0       	push   0xc010e000
c01014d3:	e8 aa 1e 00 00       	call   c0103382 <spinlock_release>
c01014d8:	83 c4 10             	add    esp,0x10
c01014db:	b8 04 00 00 00       	mov    eax,0x4
c01014e0:	eb 18                	jmp    c01014fa <beeper_register_driver+0x7d>
c01014e2:	89 1d 84 55 11 c0    	mov    DWORD PTR ds:0xc0115584,ebx
c01014e8:	83 ec 0c             	sub    esp,0xc
c01014eb:	68 00 e0 10 c0       	push   0xc010e000
c01014f0:	e8 8d 1e 00 00       	call   c0103382 <spinlock_release>
c01014f5:	83 c4 10             	add    esp,0x10
c01014f8:	31 c0                	xor    eax,eax
c01014fa:	8b 5d fc             	mov    ebx,DWORD PTR [ebp-0x4]
c01014fd:	c9                   	leave  
c01014fe:	c3                   	ret    

c01014ff <console_beep_thread>:
c01014ff:	55                   	push   ebp
c0101500:	89 e5                	mov    ebp,esp
c0101502:	83 ec 14             	sub    esp,0x14
c0101505:	68 b8 01 00 00       	push   0x1b8
c010150a:	e8 88 fe ff ff       	call   c0101397 <beeper_start>
c010150f:	58                   	pop    eax
c0101510:	5a                   	pop    edx
c0101511:	6a 00                	push   0x0
c0101513:	68 00 65 cd 1d       	push   0x1dcd6500
c0101518:	e8 fe 27 00 00       	call   c0103d1b <thread_nano_sleep>
c010151d:	e8 ea fe ff ff       	call   c010140c <beeper_stop>
c0101522:	83 c4 10             	add    esp,0x10
c0101525:	c9                   	leave  
c0101526:	e9 52 28 00 00       	jmp    c0103d7d <thread_terminate>

c010152b <console_io>:
c010152b:	55                   	push   ebp
c010152c:	89 e5                	mov    ebp,esp
c010152e:	56                   	push   esi
c010152f:	53                   	push   ebx
c0101530:	83 ec 20             	sub    esp,0x20
c0101533:	8b 5d 0c             	mov    ebx,DWORD PTR [ebp+0xc]
c0101536:	83 7b 0c 00          	cmp    DWORD PTR [ebx+0xc],0x0
c010153a:	75 66                	jne    c01015a2 <console_io+0x77>
c010153c:	b8 03 00 00 00       	mov    eax,0x3
c0101541:	83 3d 8c 55 11 c0 00 	cmp    DWORD PTR ds:0xc011558c,0x0
c0101548:	0f 84 df 00 00 00    	je     c010162d <console_io+0x102>
c010154e:	b0 01                	mov    al,0x1
c0101550:	83 7b 04 00          	cmp    DWORD PTR [ebx+0x4],0x0
c0101554:	0f 84 d1 00 00 00    	je     c010162b <console_io+0x100>
c010155a:	8b 15 8c 55 11 c0    	mov    edx,DWORD PTR ds:0xc011558c
c0101560:	84 c0                	test   al,al
c0101562:	8d 75 f7             	lea    esi,[ebp-0x9]
c0101565:	74 11                	je     c0101578 <console_io+0x4d>
c0101567:	83 ec 0c             	sub    esp,0xc
c010156a:	52                   	push   edx
c010156b:	e8 0d 2c 00 00       	call   c010417d <adt_blocking_byte_buffer_get>
c0101570:	88 45 f7             	mov    BYTE PTR [ebp-0x9],al
c0101573:	83 c4 10             	add    esp,0x10
c0101576:	eb 14                	jmp    c010158c <console_io+0x61>
c0101578:	50                   	push   eax
c0101579:	50                   	push   eax
c010157a:	56                   	push   esi
c010157b:	52                   	push   edx
c010157c:	e8 41 2c 00 00       	call   c01041c2 <adt_blocking_byte_buffer_try_get>
c0101581:	83 c4 10             	add    esp,0x10
c0101584:	85 c0                	test   eax,eax
c0101586:	0f 85 9f 00 00 00    	jne    c010162b <console_io+0x100>
c010158c:	50                   	push   eax
c010158d:	6a 01                	push   0x1
c010158f:	53                   	push   ebx
c0101590:	56                   	push   esi
c0101591:	e8 68 37 00 00       	call   c0104cfe <uio_move>
c0101596:	83 c4 10             	add    esp,0x10
c0101599:	85 c0                	test   eax,eax
c010159b:	74 b3                	je     c0101550 <console_io+0x25>
c010159d:	e9 8b 00 00 00       	jmp    c010162d <console_io+0x102>
c01015a2:	83 ec 0c             	sub    esp,0xc
c01015a5:	68 60 e0 10 c0       	push   0xc010e060
c01015aa:	e8 ce 1d 00 00       	call   c010337d <spinlock_acquire>
c01015af:	a1 90 55 11 c0       	mov    eax,ds:0xc0115590
c01015b4:	83 c4 10             	add    esp,0x10
c01015b7:	85 c0                	test   eax,eax
c01015b9:	74 05                	je     c01015c0 <console_io+0x95>
c01015bb:	83 38 00             	cmp    DWORD PTR [eax],0x0
c01015be:	75 29                	jne    c01015e9 <console_io+0xbe>
c01015c0:	83 ec 0c             	sub    esp,0xc
c01015c3:	68 60 e0 10 c0       	push   0xc010e060
c01015c8:	e8 b5 1d 00 00       	call   c0103382 <spinlock_release>
c01015cd:	83 c4 10             	add    esp,0x10
c01015d0:	b8 03 00 00 00       	mov    eax,0x3
c01015d5:	eb 56                	jmp    c010162d <console_io+0x102>
c01015d7:	a1 90 55 11 c0       	mov    eax,ds:0xc0115590
c01015dc:	52                   	push   edx
c01015dd:	52                   	push   edx
c01015de:	0f be 55 f7          	movsx  edx,BYTE PTR [ebp-0x9]
c01015e2:	52                   	push   edx
c01015e3:	50                   	push   eax
c01015e4:	ff 10                	call   DWORD PTR [eax]
c01015e6:	83 c4 10             	add    esp,0x10
c01015e9:	83 7b 04 00          	cmp    DWORD PTR [ebx+0x4],0x0
c01015ed:	74 2c                	je     c010161b <console_io+0xf0>
c01015ef:	51                   	push   ecx
c01015f0:	6a 01                	push   0x1
c01015f2:	53                   	push   ebx
c01015f3:	8d 45 f7             	lea    eax,[ebp-0x9]
c01015f6:	50                   	push   eax
c01015f7:	e8 02 37 00 00       	call   c0104cfe <uio_move>
c01015fc:	83 c4 10             	add    esp,0x10
c01015ff:	85 c0                	test   eax,eax
c0101601:	74 d4                	je     c01015d7 <console_io+0xac>
c0101603:	89 45 e4             	mov    DWORD PTR [ebp-0x1c],eax
c0101606:	83 ec 0c             	sub    esp,0xc
c0101609:	68 60 e0 10 c0       	push   0xc010e060
c010160e:	e8 6f 1d 00 00       	call   c0103382 <spinlock_release>
c0101613:	83 c4 10             	add    esp,0x10
c0101616:	8b 45 e4             	mov    eax,DWORD PTR [ebp-0x1c]
c0101619:	eb 12                	jmp    c010162d <console_io+0x102>
c010161b:	83 ec 0c             	sub    esp,0xc
c010161e:	68 60 e0 10 c0       	push   0xc010e060
c0101623:	e8 5a 1d 00 00       	call   c0103382 <spinlock_release>
c0101628:	83 c4 10             	add    esp,0x10
c010162b:	31 c0                	xor    eax,eax
c010162d:	8d 65 f8             	lea    esp,[ebp-0x8]
c0101630:	5b                   	pop    ebx
c0101631:	5e                   	pop    esi
c0101632:	5d                   	pop    ebp
c0101633:	c3                   	ret    

c0101634 <console_register_driver>:
c0101634:	55                   	push   ebp
c0101635:	89 e5                	mov    ebp,esp
c0101637:	53                   	push   ebx
c0101638:	50                   	push   eax
c0101639:	8b 5d 08             	mov    ebx,DWORD PTR [ebp+0x8]
c010163c:	b8 03 00 00 00       	mov    eax,0x3
c0101641:	85 db                	test   ebx,ebx
c0101643:	74 48                	je     c010168d <console_register_driver+0x59>
c0101645:	83 ec 0c             	sub    esp,0xc
c0101648:	68 60 e0 10 c0       	push   0xc010e060
c010164d:	e8 2b 1d 00 00       	call   c010337d <spinlock_acquire>
c0101652:	83 c4 10             	add    esp,0x10
c0101655:	83 3d 90 55 11 c0 00 	cmp    DWORD PTR ds:0xc0115590,0x0
c010165c:	74 17                	je     c0101675 <console_register_driver+0x41>
c010165e:	83 ec 0c             	sub    esp,0xc
c0101661:	68 60 e0 10 c0       	push   0xc010e060
c0101666:	e8 17 1d 00 00       	call   c0103382 <spinlock_release>
c010166b:	83 c4 10             	add    esp,0x10
c010166e:	b8 04 00 00 00       	mov    eax,0x4
c0101673:	eb 18                	jmp    c010168d <console_register_driver+0x59>
c0101675:	89 1d 90 55 11 c0    	mov    DWORD PTR ds:0xc0115590,ebx
c010167b:	83 ec 0c             	sub    esp,0xc
c010167e:	68 60 e0 10 c0       	push   0xc010e060
c0101683:	e8 fa 1c 00 00       	call   c0103382 <spinlock_release>
c0101688:	83 c4 10             	add    esp,0x10
c010168b:	31 c0                	xor    eax,eax
c010168d:	8b 5d fc             	mov    ebx,DWORD PTR [ebp-0x4]
c0101690:	c9                   	leave  
c0101691:	c3                   	ret    

c0101692 <console_init>:
c0101692:	55                   	push   ebp
c0101693:	89 e5                	mov    ebp,esp
c0101695:	83 ec 10             	sub    esp,0x10
c0101698:	68 e9 93 10 c0       	push   0xc01093e9
c010169d:	68 60 e0 10 c0       	push   0xc010e060
c01016a2:	e8 a5 1c 00 00       	call   c010334c <spinlock_init>
c01016a7:	c7 05 a8 55 11 c0 00 00 00 00 	mov    DWORD PTR ds:0xc01155a8,0x0
c01016b1:	c7 05 a4 55 11 c0 00 00 00 00 	mov    DWORD PTR ds:0xc01155a4,0x0
c01016bb:	c7 05 a0 55 11 c0 00 00 00 00 	mov    DWORD PTR ds:0xc01155a0,0x0
c01016c5:	c7 05 9c 55 11 c0 2b 15 10 c0 	mov    DWORD PTR ds:0xc011559c,0xc010152b
c01016cf:	c7 05 94 55 11 c0 2e 19 10 c0 	mov    DWORD PTR ds:0xc0115594,0xc010192e
c01016d9:	c7 05 98 55 11 c0 31 19 10 c0 	mov    DWORD PTR ds:0xc0115598,0xc0101931
c01016e3:	c7 04 24 00 04 00 00 	mov    DWORD PTR [esp],0x400
c01016ea:	e8 a3 29 00 00       	call   c0104092 <adt_blocking_byte_buffer_create>
c01016ef:	a3 8c 55 11 c0       	mov    ds:0xc011558c,eax
c01016f4:	58                   	pop    eax
c01016f5:	5a                   	pop    edx
c01016f6:	68 fd 93 10 c0       	push   0xc01093fd
c01016fb:	68 94 55 11 c0       	push   0xc0115594
c0101700:	e8 47 3e 00 00       	call   c010554c <vfs_add_device>
c0101705:	83 c4 10             	add    esp,0x10
c0101708:	c9                   	leave  
c0101709:	c3                   	ret    

c010170a <console_panic>:
c010170a:	a1 90 55 11 c0       	mov    eax,ds:0xc0115590
c010170f:	ff 60 04             	jmp    DWORD PTR [eax+0x4]

c0101712 <console_putc>:
c0101712:	55                   	push   ebp
c0101713:	89 e5                	mov    ebp,esp
c0101715:	53                   	push   ebx
c0101716:	83 ec 3c             	sub    esp,0x3c
c0101719:	8b 45 08             	mov    eax,DWORD PTR [ebp+0x8]
c010171c:	88 45 d4             	mov    BYTE PTR [ebp-0x2c],al
c010171f:	8d 5d e4             	lea    ebx,[ebp-0x1c]
c0101722:	6a 00                	push   0x0
c0101724:	6a 01                	push   0x1
c0101726:	6a 00                	push   0x0
c0101728:	6a 01                	push   0x1
c010172a:	8d 45 d4             	lea    eax,[ebp-0x2c]
c010172d:	50                   	push   eax
c010172e:	53                   	push   ebx
c010172f:	e8 0f 37 00 00       	call   c0104e43 <uio_construct>
c0101734:	89 1c 24             	mov    DWORD PTR [esp],ebx
c0101737:	6a 00                	push   0x0
c0101739:	e8 ed fd ff ff       	call   c010152b <console_io>
c010173e:	83 c4 20             	add    esp,0x20
c0101741:	8b 5d fc             	mov    ebx,DWORD PTR [ebp-0x4]
c0101744:	c9                   	leave  
c0101745:	c3                   	ret    

c0101746 <console_received_character>:
c0101746:	55                   	push   ebp
c0101747:	89 e5                	mov    ebp,esp
c0101749:	57                   	push   edi
c010174a:	56                   	push   esi
c010174b:	53                   	push   ebx
c010174c:	83 ec 1c             	sub    esp,0x1c
c010174f:	8b 5d 08             	mov    ebx,DWORD PTR [ebp+0x8]
c0101752:	8b 4d 0c             	mov    ecx,DWORD PTR [ebp+0xc]
c0101755:	88 d8                	mov    al,bl
c0101757:	84 c9                	test   cl,cl
c0101759:	74 28                	je     c0101783 <console_received_character+0x3d>
c010175b:	8d 7b 9f             	lea    edi,[ebx-0x61]
c010175e:	8d 73 c0             	lea    esi,[ebx-0x40]
c0101761:	89 f2                	mov    edx,esi
c0101763:	80 fa 1f             	cmp    dl,0x1f
c0101766:	89 fa                	mov    edx,edi
c0101768:	76 07                	jbe    c0101771 <console_received_character+0x2b>
c010176a:	80 fa 19             	cmp    dl,0x19
c010176d:	76 07                	jbe    c0101776 <console_received_character+0x30>
c010176f:	eb 12                	jmp    c0101783 <console_received_character+0x3d>
c0101771:	80 fa 19             	cmp    dl,0x19
c0101774:	77 03                	ja     c0101779 <console_received_character+0x33>
c0101776:	8d 43 e0             	lea    eax,[ebx-0x20]
c0101779:	8d 58 c0             	lea    ebx,[eax-0x40]
c010177c:	ba 01 00 00 00       	mov    edx,0x1
c0101781:	eb 02                	jmp    c0101785 <console_received_character+0x3f>
c0101783:	31 d2                	xor    edx,edx
c0101785:	80 fb 08             	cmp    bl,0x8
c0101788:	75 51                	jne    c01017db <console_received_character+0x95>
c010178a:	a1 88 55 11 c0       	mov    eax,ds:0xc0115588
c010178f:	85 c0                	test   eax,eax
c0101791:	0f 84 1f 01 00 00    	je     c01018b6 <console_received_character+0x170>
c0101797:	48                   	dec    eax
c0101798:	a3 88 55 11 c0       	mov    ds:0xc0115588,eax
c010179d:	31 db                	xor    ebx,ebx
c010179f:	a1 88 55 11 c0       	mov    eax,ds:0xc0115588
c01017a4:	0f b6 80 c0 e0 10 c0 	movzx  eax,BYTE PTR [eax-0x3fef1f40]
c01017ab:	39 d8                	cmp    eax,ebx
c01017ad:	0f 8e 03 01 00 00    	jle    c01018b6 <console_received_character+0x170>
c01017b3:	83 ec 0c             	sub    esp,0xc
c01017b6:	6a 08                	push   0x8
c01017b8:	e8 55 ff ff ff       	call   c0101712 <console_putc>
c01017bd:	c7 04 24 20 00 00 00 	mov    DWORD PTR [esp],0x20
c01017c4:	e8 49 ff ff ff       	call   c0101712 <console_putc>
c01017c9:	c7 04 24 08 00 00 00 	mov    DWORD PTR [esp],0x8
c01017d0:	e8 3d ff ff ff       	call   c0101712 <console_putc>
c01017d5:	43                   	inc    ebx
c01017d6:	83 c4 10             	add    esp,0x10
c01017d9:	eb c4                	jmp    c010179f <console_received_character+0x59>
c01017db:	80 fb 07             	cmp    bl,0x7
c01017de:	75 1d                	jne    c01017fd <console_received_character+0xb7>
c01017e0:	52                   	push   edx
c01017e1:	a1 e8 1a 11 c0       	mov    eax,ds:0xc0111ae8
c01017e6:	ff 70 04             	push   DWORD PTR [eax+0x4]
c01017e9:	6a 00                	push   0x0
c01017eb:	68 ff 14 10 c0       	push   0xc01014ff
c01017f0:	e8 b1 21 00 00       	call   c01039a6 <thread_create>
c01017f5:	83 c4 10             	add    esp,0x10
c01017f8:	e9 b9 00 00 00       	jmp    c01018b6 <console_received_character+0x170>
c01017fd:	84 c9                	test   cl,cl
c01017ff:	74 48                	je     c0101849 <console_received_character+0x103>
c0101801:	85 d2                	test   edx,edx
c0101803:	74 72                	je     c0101877 <console_received_character+0x131>
c0101805:	88 45 e7             	mov    BYTE PTR [ebp-0x19],al
c0101808:	83 ec 0c             	sub    esp,0xc
c010180b:	6a 5e                	push   0x5e
c010180d:	e8 00 ff ff ff       	call   c0101712 <console_putc>
c0101812:	0f be 45 e7          	movsx  eax,BYTE PTR [ebp-0x19]
c0101816:	89 04 24             	mov    DWORD PTR [esp],eax
c0101819:	e8 f4 fe ff ff       	call   c0101712 <console_putc>
c010181e:	a1 88 55 11 c0       	mov    eax,ds:0xc0115588
c0101823:	83 c4 10             	add    esp,0x10
c0101826:	3d 00 04 00 00       	cmp    eax,0x400
c010182b:	75 0d                	jne    c010183a <console_received_character+0xf4>
c010182d:	83 ec 0c             	sub    esp,0xc
c0101830:	68 01 94 10 c0       	push   0xc0109401
c0101835:	e8 3a 32 00 00       	call   c0104a74 <panic>
c010183a:	88 98 c0 e4 10 c0    	mov    BYTE PTR [eax-0x3fef1b40],bl
c0101840:	c6 80 c0 e0 10 c0 02 	mov    BYTE PTR [eax-0x3fef1f40],0x2
c0101847:	eb 28                	jmp    c0101871 <console_received_character+0x12b>
c0101849:	83 ec 0c             	sub    esp,0xc
c010184c:	0f be c0             	movsx  eax,al
c010184f:	50                   	push   eax
c0101850:	e8 bd fe ff ff       	call   c0101712 <console_putc>
c0101855:	a1 88 55 11 c0       	mov    eax,ds:0xc0115588
c010185a:	83 c4 10             	add    esp,0x10
c010185d:	3d 00 04 00 00       	cmp    eax,0x400
c0101862:	74 c9                	je     c010182d <console_received_character+0xe7>
c0101864:	88 98 c0 e4 10 c0    	mov    BYTE PTR [eax-0x3fef1b40],bl
c010186a:	c6 80 c0 e0 10 c0 01 	mov    BYTE PTR [eax-0x3fef1f40],0x1
c0101871:	40                   	inc    eax
c0101872:	a3 88 55 11 c0       	mov    ds:0xc0115588,eax
c0101877:	80 fb 0a             	cmp    bl,0xa
c010187a:	75 14                	jne    c0101890 <console_received_character+0x14a>
c010187c:	8b 35 88 55 11 c0    	mov    esi,DWORD PTR ds:0xc0115588
c0101882:	c7 05 88 55 11 c0 00 00 00 00 	mov    DWORD PTR ds:0xc0115588,0x0
c010188c:	31 db                	xor    ebx,ebx
c010188e:	eb 07                	jmp    c0101897 <console_received_character+0x151>
c0101890:	80 fb 03             	cmp    bl,0x3
c0101893:	74 e7                	je     c010187c <console_received_character+0x136>
c0101895:	eb 1f                	jmp    c01018b6 <console_received_character+0x170>
c0101897:	39 de                	cmp    esi,ebx
c0101899:	7e 1b                	jle    c01018b6 <console_received_character+0x170>
c010189b:	50                   	push   eax
c010189c:	50                   	push   eax
c010189d:	0f b6 83 c0 e4 10 c0 	movzx  eax,BYTE PTR [ebx-0x3fef1b40]
c01018a4:	50                   	push   eax
c01018a5:	ff 35 8c 55 11 c0    	push   DWORD PTR ds:0xc011558c
c01018ab:	e8 67 28 00 00       	call   c0104117 <adt_blocking_byte_buffer_add>
c01018b0:	43                   	inc    ebx
c01018b1:	83 c4 10             	add    esp,0x10
c01018b4:	eb e1                	jmp    c0101897 <console_received_character+0x151>
c01018b6:	8d 65 f4             	lea    esp,[ebp-0xc]
c01018b9:	5b                   	pop    ebx
c01018ba:	5e                   	pop    esi
c01018bb:	5f                   	pop    edi
c01018bc:	5d                   	pop    ebp
c01018bd:	c3                   	ret    

c01018be <console_getc>:
c01018be:	55                   	push   ebp
c01018bf:	89 e5                	mov    ebp,esp
c01018c1:	53                   	push   ebx
c01018c2:	83 ec 2c             	sub    esp,0x2c
c01018c5:	8d 5d e4             	lea    ebx,[ebp-0x1c]
c01018c8:	6a 00                	push   0x0
c01018ca:	6a 00                	push   0x0
c01018cc:	6a 00                	push   0x0
c01018ce:	6a 01                	push   0x1
c01018d0:	8d 45 e3             	lea    eax,[ebp-0x1d]
c01018d3:	50                   	push   eax
c01018d4:	53                   	push   ebx
c01018d5:	e8 69 35 00 00       	call   c0104e43 <uio_construct>
c01018da:	89 1c 24             	mov    DWORD PTR [esp],ebx
c01018dd:	6a 00                	push   0x0
c01018df:	e8 47 fc ff ff       	call   c010152b <console_io>
c01018e4:	8a 45 e3             	mov    al,BYTE PTR [ebp-0x1d]
c01018e7:	8b 5d fc             	mov    ebx,DWORD PTR [ebp-0x4]
c01018ea:	c9                   	leave  
c01018eb:	c3                   	ret    

c01018ec <console_gets>:
c01018ec:	55                   	push   ebp
c01018ed:	89 e5                	mov    ebp,esp
c01018ef:	56                   	push   esi
c01018f0:	53                   	push   ebx
c01018f1:	8b 75 08             	mov    esi,DWORD PTR [ebp+0x8]
c01018f4:	31 db                	xor    ebx,ebx
c01018f6:	8b 45 0c             	mov    eax,DWORD PTR [ebp+0xc]
c01018f9:	48                   	dec    eax
c01018fa:	39 d8                	cmp    eax,ebx
c01018fc:	7e 18                	jle    c0101916 <console_gets+0x2a>
c01018fe:	e8 bb ff ff ff       	call   c01018be <console_getc>
c0101903:	c6 44 1e 01 00       	mov    BYTE PTR [esi+ebx*1+0x1],0x0
c0101908:	88 04 1e             	mov    BYTE PTR [esi+ebx*1],al
c010190b:	3c 0a                	cmp    al,0xa
c010190d:	74 07                	je     c0101916 <console_gets+0x2a>
c010190f:	3c 03                	cmp    al,0x3
c0101911:	74 03                	je     c0101916 <console_gets+0x2a>
c0101913:	43                   	inc    ebx
c0101914:	eb e0                	jmp    c01018f6 <console_gets+0xa>
c0101916:	5b                   	pop    ebx
c0101917:	5e                   	pop    esi
c0101918:	5d                   	pop    ebp
c0101919:	c3                   	ret    

c010191a <interface_init>:
c010191a:	55                   	push   ebp
c010191b:	89 e5                	mov    ebp,esp
c010191d:	83 ec 08             	sub    esp,0x8
c0101920:	e8 6d fd ff ff       	call   c0101692 <console_init>
c0101925:	c9                   	leave  
c0101926:	e9 a4 00 00 00       	jmp    c01019cf <random_init>

c010192b <interface_io_not_needed>:
c010192b:	31 c0                	xor    eax,eax
c010192d:	c3                   	ret    

c010192e <interface_check_open_not_needed>:
c010192e:	31 c0                	xor    eax,eax
c0101930:	c3                   	ret    

c0101931 <interface_ioctl_not_needed>:
c0101931:	31 c0                	xor    eax,eax
c0101933:	c3                   	ret    

c0101934 <random_io>:
c0101934:	55                   	push   ebp
c0101935:	89 e5                	mov    ebp,esp
c0101937:	57                   	push   edi
c0101938:	56                   	push   esi
c0101939:	53                   	push   ebx
c010193a:	83 ec 1c             	sub    esp,0x1c
c010193d:	8b 5d 0c             	mov    ebx,DWORD PTR [ebp+0xc]
c0101940:	b8 07 00 00 00       	mov    eax,0x7
c0101945:	83 7b 0c 01          	cmp    DWORD PTR [ebx+0xc],0x1
c0101949:	74 7c                	je     c01019c7 <random_io+0x93>
c010194b:	83 7b 04 00          	cmp    DWORD PTR [ebx+0x4],0x0
c010194f:	74 74                	je     c01019c5 <random_io+0x91>
c0101951:	83 ec 0c             	sub    esp,0xc
c0101954:	68 c0 e8 10 c0       	push   0xc010e8c0
c0101959:	e8 1f 1a 00 00       	call   c010337d <spinlock_acquire>
c010195e:	69 0d 04 d0 10 c0 a5 2b 35 8b 	imul   ecx,DWORD PTR ds:0xc010d004,0x8b352ba5
c0101968:	69 05 00 d0 10 c0 d6 c9 48 02 	imul   eax,DWORD PTR ds:0xc010d000,0x248c9d6
c0101972:	01 c1                	add    ecx,eax
c0101974:	b8 a5 2b 35 8b       	mov    eax,0x8b352ba5
c0101979:	f7 25 00 d0 10 c0    	mul    DWORD PTR ds:0xc010d000
c010197f:	01 ca                	add    edx,ecx
c0101981:	05 7d 12 fd 98       	add    eax,0x98fd127d
c0101986:	81 d2 48 6e 8b cc    	adc    edx,0xcc8b6e48
c010198c:	89 d7                	mov    edi,edx
c010198e:	a3 00 d0 10 c0       	mov    ds:0xc010d000,eax
c0101993:	89 15 04 d0 10 c0    	mov    DWORD PTR ds:0xc010d004,edx
c0101999:	c7 04 24 c0 e8 10 c0 	mov    DWORD PTR [esp],0xc010e8c0
c01019a0:	e8 dd 19 00 00       	call   c0103382 <spinlock_release>
c01019a5:	89 f8                	mov    eax,edi
c01019a7:	c1 e8 16             	shr    eax,0x16
c01019aa:	88 45 e7             	mov    BYTE PTR [ebp-0x19],al
c01019ad:	83 c4 0c             	add    esp,0xc
c01019b0:	6a 01                	push   0x1
c01019b2:	53                   	push   ebx
c01019b3:	8d 45 e7             	lea    eax,[ebp-0x19]
c01019b6:	50                   	push   eax
c01019b7:	e8 42 33 00 00       	call   c0104cfe <uio_move>
c01019bc:	83 c4 10             	add    esp,0x10
c01019bf:	85 c0                	test   eax,eax
c01019c1:	74 88                	je     c010194b <random_io+0x17>
c01019c3:	eb 02                	jmp    c01019c7 <random_io+0x93>
c01019c5:	31 c0                	xor    eax,eax
c01019c7:	8d 65 f4             	lea    esp,[ebp-0xc]
c01019ca:	5b                   	pop    ebx
c01019cb:	5e                   	pop    esi
c01019cc:	5f                   	pop    edi
c01019cd:	5d                   	pop    ebp
c01019ce:	c3                   	ret    

c01019cf <random_init>:
c01019cf:	55                   	push   ebp
c01019d0:	89 e5                	mov    ebp,esp
c01019d2:	83 ec 10             	sub    esp,0x10
c01019d5:	68 37 94 10 c0       	push   0xc0109437
c01019da:	68 c0 e8 10 c0       	push   0xc010e8c0
c01019df:	e8 68 19 00 00       	call   c010334c <spinlock_init>
c01019e4:	c7 05 c0 55 11 c0 00 00 00 00 	mov    DWORD PTR ds:0xc01155c0,0x0
c01019ee:	c7 05 bc 55 11 c0 01 00 00 00 	mov    DWORD PTR ds:0xc01155bc,0x1
c01019f8:	c7 05 b8 55 11 c0 00 00 00 00 	mov    DWORD PTR ds:0xc01155b8,0x0
c0101a02:	c7 05 b4 55 11 c0 34 19 10 c0 	mov    DWORD PTR ds:0xc01155b4,0xc0101934
c0101a0c:	c7 05 ac 55 11 c0 2e 19 10 c0 	mov    DWORD PTR ds:0xc01155ac,0xc010192e
c0101a16:	c7 05 b0 55 11 c0 31 19 10 c0 	mov    DWORD PTR ds:0xc01155b0,0xc0101931
c0101a20:	58                   	pop    eax
c0101a21:	5a                   	pop    edx
c0101a22:	68 43 94 10 c0       	push   0xc0109443
c0101a27:	68 ac 55 11 c0       	push   0xc01155ac
c0101a2c:	e8 1b 3b 00 00       	call   c010554c <vfs_add_device>
c0101a31:	83 c4 10             	add    esp,0x10
c0101a34:	c9                   	leave  
c0101a35:	c3                   	ret    

c0101a36 <rand32>:
c0101a36:	55                   	push   ebp
c0101a37:	89 e5                	mov    ebp,esp
c0101a39:	53                   	push   ebx
c0101a3a:	83 ec 2c             	sub    esp,0x2c
c0101a3d:	8d 5d e4             	lea    ebx,[ebp-0x1c]
c0101a40:	6a 00                	push   0x0
c0101a42:	6a 00                	push   0x0
c0101a44:	6a 00                	push   0x0
c0101a46:	6a 04                	push   0x4
c0101a48:	8d 45 dc             	lea    eax,[ebp-0x24]
c0101a4b:	50                   	push   eax
c0101a4c:	53                   	push   ebx
c0101a4d:	e8 f1 33 00 00       	call   c0104e43 <uio_construct>
c0101a52:	83 c4 1c             	add    esp,0x1c
c0101a55:	8d 45 e0             	lea    eax,[ebp-0x20]
c0101a58:	50                   	push   eax
c0101a59:	6a 00                	push   0x0
c0101a5b:	6a 20                	push   0x20
c0101a5d:	68 48 94 10 c0       	push   0xc0109448
c0101a62:	e8 a0 3c 00 00       	call   c0105707 <vfs_open>
c0101a67:	58                   	pop    eax
c0101a68:	5a                   	pop    edx
c0101a69:	53                   	push   ebx
c0101a6a:	ff 75 e0             	push   DWORD PTR [ebp-0x20]
c0101a6d:	e8 05 3e 00 00       	call   c0105877 <vfs_read>
c0101a72:	59                   	pop    ecx
c0101a73:	ff 75 e0             	push   DWORD PTR [ebp-0x20]
c0101a76:	e8 6a 3c 00 00       	call   c01056e5 <vfs_close>
c0101a7b:	8b 45 dc             	mov    eax,DWORD PTR [ebp-0x24]
c0101a7e:	8b 5d fc             	mov    ebx,DWORD PTR [ebp-0x4]
c0101a81:	c9                   	leave  
c0101a82:	c3                   	ret    

c0101a83 <basic_shell>:
c0101a83:	55                   	push   ebp
c0101a84:	89 e5                	mov    ebp,esp
c0101a86:	56                   	push   esi
c0101a87:	53                   	push   ebx
c0101a88:	81 ec 6c 01 00 00    	sub    esp,0x16c
c0101a8e:	68 4e 94 10 c0       	push   0xc010944e
c0101a93:	e8 22 2e 00 00       	call   c01048ba <kprintf>
c0101a98:	83 c4 10             	add    esp,0x10
c0101a9b:	83 ec 0c             	sub    esp,0xc
c0101a9e:	68 7e 94 10 c0       	push   0xc010947e
c0101aa3:	e8 12 2e 00 00       	call   c01048ba <kprintf>
c0101aa8:	58                   	pop    eax
c0101aa9:	5a                   	pop    edx
c0101aaa:	68 00 01 00 00       	push   0x100
c0101aaf:	8d 9d f8 fe ff ff    	lea    ebx,[ebp-0x108]
c0101ab5:	53                   	push   ebx
c0101ab6:	e8 31 fe ff ff       	call   c01018ec <console_gets>
c0101abb:	8a 85 f8 fe ff ff    	mov    al,BYTE PTR [ebp-0x108]
c0101ac1:	83 c4 10             	add    esp,0x10
c0101ac4:	84 c0                	test   al,al
c0101ac6:	74 d3                	je     c0101a9b <basic_shell+0x18>
c0101ac8:	3c 0a                	cmp    al,0xa
c0101aca:	74 cf                	je     c0101a9b <basic_shell+0x18>
c0101acc:	83 ec 0c             	sub    esp,0xc
c0101acf:	53                   	push   ebx
c0101ad0:	e8 29 f8 ff ff       	call   c01012fe <strlen>
c0101ad5:	83 c4 10             	add    esp,0x10
c0101ad8:	80 bc 05 f7 fe ff ff 0a 	cmp    BYTE PTR [ebp+eax*1-0x109],0xa
c0101ae0:	75 14                	jne    c0101af6 <basic_shell+0x73>
c0101ae2:	83 ec 0c             	sub    esp,0xc
c0101ae5:	53                   	push   ebx
c0101ae6:	e8 13 f8 ff ff       	call   c01012fe <strlen>
c0101aeb:	c6 84 05 f7 fe ff ff 00 	mov    BYTE PTR [ebp+eax*1-0x109],0x0
c0101af3:	83 c4 10             	add    esp,0x10
c0101af6:	50                   	push   eax
c0101af7:	6a 04                	push   0x4
c0101af9:	68 80 94 10 c0       	push   0xc0109480
c0101afe:	53                   	push   ebx
c0101aff:	e8 63 f8 ff ff       	call   c0101367 <strncmp>
c0101b04:	83 c4 10             	add    esp,0x10
c0101b07:	85 c0                	test   eax,eax
c0101b09:	75 19                	jne    c0101b24 <basic_shell+0xa1>
c0101b0b:	83 ec 0c             	sub    esp,0xc
c0101b0e:	68 85 94 10 c0       	push   0xc0109485
c0101b13:	e8 a2 2d 00 00       	call   c01048ba <kprintf>
c0101b18:	c7 04 24 29 95 10 c0 	mov    DWORD PTR [esp],0xc0109529
c0101b1f:	e9 6f ff ff ff       	jmp    c0101a93 <basic_shell+0x10>
c0101b24:	50                   	push   eax
c0101b25:	6a 04                	push   0x4
c0101b27:	68 b0 94 10 c0       	push   0xc01094b0
c0101b2c:	53                   	push   ebx
c0101b2d:	e8 35 f8 ff ff       	call   c0101367 <strncmp>
c0101b32:	83 c4 10             	add    esp,0x10
c0101b35:	85 c0                	test   eax,eax
c0101b37:	0f 85 31 01 00 00    	jne    c0101c6e <basic_shell+0x1eb>
c0101b3d:	83 ec 0c             	sub    esp,0xc
c0101b40:	53                   	push   ebx
c0101b41:	e8 b8 f7 ff ff       	call   c01012fe <strlen>
c0101b46:	83 c4 10             	add    esp,0x10
c0101b49:	83 f8 05             	cmp    eax,0x5
c0101b4c:	0f 86 ff 00 00 00    	jbe    c0101c51 <basic_shell+0x1ce>
c0101b52:	8d 85 98 fe ff ff    	lea    eax,[ebp-0x168]
c0101b58:	50                   	push   eax
c0101b59:	6a 00                	push   0x0
c0101b5b:	6a 20                	push   0x20
c0101b5d:	8d 85 fd fe ff ff    	lea    eax,[ebp-0x103]
c0101b63:	50                   	push   eax
c0101b64:	e8 9e 3b 00 00       	call   c0105707 <vfs_open>
c0101b69:	83 c4 10             	add    esp,0x10
c0101b6c:	85 c0                	test   eax,eax
c0101b6e:	74 16                	je     c0101b86 <basic_shell+0x103>
c0101b70:	83 ec 0c             	sub    esp,0xc
c0101b73:	50                   	push   eax
c0101b74:	e8 6c f7 ff ff       	call   c01012e5 <strerror>
c0101b79:	5b                   	pop    ebx
c0101b7a:	5e                   	pop    esi
c0101b7b:	50                   	push   eax
c0101b7c:	68 b5 94 10 c0       	push   0xc01094b5
c0101b81:	e9 d3 00 00 00       	jmp    c0101c59 <basic_shell+0x1d6>
c0101b86:	51                   	push   ecx
c0101b87:	51                   	push   ecx
c0101b88:	8d 85 b0 fe ff ff    	lea    eax,[ebp-0x150]
c0101b8e:	50                   	push   eax
c0101b8f:	ff b5 98 fe ff ff    	push   DWORD PTR [ebp-0x168]
c0101b95:	e8 92 3f 00 00       	call   c0105b2c <vnode_op_stat>
c0101b9a:	83 c4 10             	add    esp,0x10
c0101b9d:	85 c0                	test   eax,eax
c0101b9f:	0f 85 83 00 00 00    	jne    c0101c28 <basic_shell+0x1a5>
c0101ba5:	83 ec 0c             	sub    esp,0xc
c0101ba8:	8b 85 d4 fe ff ff    	mov    eax,DWORD PTR [ebp-0x12c]
c0101bae:	40                   	inc    eax
c0101baf:	50                   	push   eax
c0101bb0:	e8 0e 03 00 00       	call   c0101ec3 <malloc>
c0101bb5:	89 c3                	mov    ebx,eax
c0101bb7:	83 c4 0c             	add    esp,0xc
c0101bba:	8b 85 d4 fe ff ff    	mov    eax,DWORD PTR [ebp-0x12c]
c0101bc0:	40                   	inc    eax
c0101bc1:	50                   	push   eax
c0101bc2:	6a 00                	push   0x0
c0101bc4:	53                   	push   ebx
c0101bc5:	e8 91 f6 ff ff       	call   c010125b <memset>
c0101bca:	8d b5 9c fe ff ff    	lea    esi,[ebp-0x164]
c0101bd0:	58                   	pop    eax
c0101bd1:	5a                   	pop    edx
c0101bd2:	6a 00                	push   0x0
c0101bd4:	6a 00                	push   0x0
c0101bd6:	6a 00                	push   0x0
c0101bd8:	ff b5 d4 fe ff ff    	push   DWORD PTR [ebp-0x12c]
c0101bde:	53                   	push   ebx
c0101bdf:	56                   	push   esi
c0101be0:	e8 5e 32 00 00       	call   c0104e43 <uio_construct>
c0101be5:	89 34 24             	mov    DWORD PTR [esp],esi
c0101be8:	ff b5 98 fe ff ff    	push   DWORD PTR [ebp-0x168]
c0101bee:	e8 84 3c 00 00       	call   c0105877 <vfs_read>
c0101bf3:	83 c4 20             	add    esp,0x20
c0101bf6:	85 c0                	test   eax,eax
c0101bf8:	74 13                	je     c0101c0d <basic_shell+0x18a>
c0101bfa:	83 ec 0c             	sub    esp,0xc
c0101bfd:	50                   	push   eax
c0101bfe:	e8 e2 f6 ff ff       	call   c01012e5 <strerror>
c0101c03:	5a                   	pop    edx
c0101c04:	59                   	pop    ecx
c0101c05:	50                   	push   eax
c0101c06:	68 c6 94 10 c0       	push   0xc01094c6
c0101c0b:	eb 08                	jmp    c0101c15 <basic_shell+0x192>
c0101c0d:	56                   	push   esi
c0101c0e:	56                   	push   esi
c0101c0f:	53                   	push   ebx
c0101c10:	68 d7 94 10 c0       	push   0xc01094d7
c0101c15:	e8 a0 2c 00 00       	call   c01048ba <kprintf>
c0101c1a:	83 c4 10             	add    esp,0x10
c0101c1d:	83 ec 0c             	sub    esp,0xc
c0101c20:	53                   	push   ebx
c0101c21:	e8 b9 03 00 00       	call   c0101fdf <free>
c0101c26:	eb 16                	jmp    c0101c3e <basic_shell+0x1bb>
c0101c28:	83 ec 0c             	sub    esp,0xc
c0101c2b:	50                   	push   eax
c0101c2c:	e8 b4 f6 ff ff       	call   c01012e5 <strerror>
c0101c31:	5a                   	pop    edx
c0101c32:	59                   	pop    ecx
c0101c33:	50                   	push   eax
c0101c34:	68 da 94 10 c0       	push   0xc01094da
c0101c39:	e8 7c 2c 00 00       	call   c01048ba <kprintf>
c0101c3e:	83 c4 10             	add    esp,0x10
c0101c41:	83 ec 0c             	sub    esp,0xc
c0101c44:	ff b5 98 fe ff ff    	push   DWORD PTR [ebp-0x168]
c0101c4a:	e8 96 3a 00 00       	call   c01056e5 <vfs_close>
c0101c4f:	eb 0d                	jmp    c0101c5e <basic_shell+0x1db>
c0101c51:	83 ec 0c             	sub    esp,0xc
c0101c54:	68 eb 94 10 c0       	push   0xc01094eb
c0101c59:	e8 5c 2c 00 00       	call   c01048ba <kprintf>
c0101c5e:	83 c4 10             	add    esp,0x10
c0101c61:	83 ec 0c             	sub    esp,0xc
c0101c64:	68 29 95 10 c0       	push   0xc0109529
c0101c69:	e9 25 fe ff ff       	jmp    c0101a93 <basic_shell+0x10>
c0101c6e:	50                   	push   eax
c0101c6f:	50                   	push   eax
c0101c70:	68 fe 94 10 c0       	push   0xc01094fe
c0101c75:	53                   	push   ebx
c0101c76:	e8 32 f6 ff ff       	call   c01012ad <strcmp>
c0101c7b:	83 c4 10             	add    esp,0x10
c0101c7e:	85 c0                	test   eax,eax
c0101c80:	75 25                	jne    c0101ca7 <basic_shell+0x224>
c0101c82:	e8 f0 1b 00 00       	call   c0103877 <thread_fork>
c0101c87:	89 c3                	mov    ebx,eax
c0101c89:	50                   	push   eax
c0101c8a:	50                   	push   eax
c0101c8b:	53                   	push   ebx
c0101c8c:	68 c7 98 10 c0       	push   0xc01098c7
c0101c91:	e8 24 2c 00 00       	call   c01048ba <kprintf>
c0101c96:	c7 04 24 01 00 00 00 	mov    DWORD PTR [esp],0x1
c0101c9d:	e8 9b 20 00 00       	call   c0103d3d <thread_sleep>
c0101ca2:	83 c4 10             	add    esp,0x10
c0101ca5:	eb e2                	jmp    c0101c89 <basic_shell+0x206>
c0101ca7:	56                   	push   esi
c0101ca8:	56                   	push   esi
c0101ca9:	68 03 95 10 c0       	push   0xc0109503
c0101cae:	53                   	push   ebx
c0101caf:	e8 f9 f5 ff ff       	call   c01012ad <strcmp>
c0101cb4:	83 c4 10             	add    esp,0x10
c0101cb7:	85 c0                	test   eax,eax
c0101cb9:	75 18                	jne    c0101cd3 <basic_shell+0x250>
c0101cbb:	e8 d0 15 00 00       	call   c0103290 <process_create>
c0101cc0:	51                   	push   ecx
c0101cc1:	6a 00                	push   0x0
c0101cc3:	68 21 3e 10 c0       	push   0xc0103e21
c0101cc8:	50                   	push   eax
c0101cc9:	e8 1e 16 00 00       	call   c01032ec <process_create_thread>
c0101cce:	e9 c5 fd ff ff       	jmp    c0101a98 <basic_shell+0x15>
c0101cd3:	52                   	push   edx
c0101cd4:	52                   	push   edx
c0101cd5:	68 08 95 10 c0       	push   0xc0109508
c0101cda:	53                   	push   ebx
c0101cdb:	e8 cd f5 ff ff       	call   c01012ad <strcmp>
c0101ce0:	83 c4 10             	add    esp,0x10
c0101ce3:	85 c0                	test   eax,eax
c0101ce5:	75 0a                	jne    c0101cf1 <basic_shell+0x26e>
c0101ce7:	e8 6f 44 00 00       	call   c010615b <arch_reboot>
c0101cec:	e9 aa fd ff ff       	jmp    c0101a9b <basic_shell+0x18>
c0101cf1:	50                   	push   eax
c0101cf2:	50                   	push   eax
c0101cf3:	53                   	push   ebx
c0101cf4:	68 10 95 10 c0       	push   0xc0109510
c0101cf9:	e9 95 fd ff ff       	jmp    c0101a93 <basic_shell+0x10>

c0101cfe <kernel_main>:
c0101cfe:	55                   	push   ebp
c0101cff:	89 e5                	mov    ebp,esp
c0101d01:	83 ec 14             	sub    esp,0x14
c0101d04:	68 2b 95 10 c0       	push   0xc010952b
c0101d09:	e8 ac 2b 00 00       	call   c01048ba <kprintf>
c0101d0e:	e8 90 03 00 00       	call   c01020a3 <phys_init>
c0101d13:	e8 e4 09 00 00       	call   c01026fc <virt_init>
c0101d18:	e8 cd 00 00 00       	call   c0101dea <heap_init>
c0101d1d:	e8 ba 2a 00 00       	call   c01047dc <cpu_init>
c0101d22:	e8 e4 00 00 00       	call   c0101e0b <heap_reinit>
c0101d27:	e8 1c 1a 00 00       	call   c0103748 <thread_init>
c0101d2c:	e8 f2 15 00 00       	call   c0103323 <process_init>
c0101d31:	e8 57 32 00 00       	call   c0104f8d <vfs_init>
c0101d36:	e8 df fb ff ff       	call   c010191a <interface_init>
c0101d3b:	e8 8a 43 00 00       	call   c01060ca <arch_initialise_devices_no_fs>
c0101d40:	58                   	pop    eax
c0101d41:	5a                   	pop    edx
c0101d42:	68 56 5f 10 c0       	push   0xc0105f56
c0101d47:	68 bf 95 10 c0       	push   0xc01095bf
c0101d4c:	e8 c0 36 00 00       	call   c0105411 <vfs_mount_filesystem>
c0101d51:	59                   	pop    ecx
c0101d52:	58                   	pop    eax
c0101d53:	68 39 95 10 c0       	push   0xc0109539
c0101d58:	68 45 95 10 c0       	push   0xc0109545
c0101d5d:	e8 f8 39 00 00       	call   c010575a <vfs_add_virtual_mount_point>
c0101d62:	e8 c0 04 00 00       	call   c0102227 <swapfile_init>
c0101d67:	e8 1d 0e 00 00       	call   c0102b89 <syscall_init>
c0101d6c:	e8 5e 43 00 00       	call   c01060cf <arch_initialise_devices_with_fs>
c0101d71:	e8 1a 15 00 00       	call   c0103290 <process_create>
c0101d76:	83 c4 0c             	add    esp,0xc
c0101d79:	6a 00                	push   0x0
c0101d7b:	68 83 1a 10 c0       	push   0xc0101a83
c0101d80:	50                   	push   eax
c0101d81:	e8 66 15 00 00       	call   c01032ec <process_create_thread>
c0101d86:	83 c4 10             	add    esp,0x10
c0101d89:	83 ec 0c             	sub    esp,0xc
c0101d8c:	68 a0 1a 11 c0       	push   0xc0111aa0
c0101d91:	e8 e7 15 00 00       	call   c010337d <spinlock_acquire>
c0101d96:	c7 04 24 04 00 00 00 	mov    DWORD PTR [esp],0x4
c0101d9d:	e8 33 1e 00 00       	call   c0103bd5 <thread_block>
c0101da2:	c7 04 24 a0 1a 11 c0 	mov    DWORD PTR [esp],0xc0111aa0
c0101da9:	e8 d4 15 00 00       	call   c0103382 <spinlock_release>
c0101dae:	eb d6                	jmp    c0101d86 <kernel_main+0x88>

c0101db0 <make_block_root>:
c0101db0:	8b 15 20 09 11 c0    	mov    edx,DWORD PTR ds:0xc0110920
c0101db6:	89 50 04             	mov    DWORD PTR [eax+0x4],edx
c0101db9:	c7 40 08 00 00 00 00 	mov    DWORD PTR [eax+0x8],0x0
c0101dc0:	85 d2                	test   edx,edx
c0101dc2:	74 03                	je     c0101dc7 <make_block_root+0x17>
c0101dc4:	89 42 08             	mov    DWORD PTR [edx+0x8],eax
c0101dc7:	a3 20 09 11 c0       	mov    ds:0xc0110920,eax
c0101dcc:	c3                   	ret    

c0101dcd <remove_block_from_list>:
c0101dcd:	8b 50 04             	mov    edx,DWORD PTR [eax+0x4]
c0101dd0:	8b 40 08             	mov    eax,DWORD PTR [eax+0x8]
c0101dd3:	85 c0                	test   eax,eax
c0101dd5:	74 05                	je     c0101ddc <remove_block_from_list+0xf>
c0101dd7:	89 50 04             	mov    DWORD PTR [eax+0x4],edx
c0101dda:	eb 06                	jmp    c0101de2 <remove_block_from_list+0x15>
c0101ddc:	89 15 20 09 11 c0    	mov    DWORD PTR ds:0xc0110920,edx
c0101de2:	85 d2                	test   edx,edx
c0101de4:	74 03                	je     c0101de9 <remove_block_from_list+0x1c>
c0101de6:	89 42 08             	mov    DWORD PTR [edx+0x8],eax
c0101de9:	c3                   	ret    

c0101dea <heap_init>:
c0101dea:	55                   	push   ebp
c0101deb:	89 e5                	mov    ebp,esp
c0101ded:	83 ec 10             	sub    esp,0x10
c0101df0:	68 49 95 10 c0       	push   0xc0109549
c0101df5:	68 40 09 11 c0       	push   0xc0110940
c0101dfa:	e8 4d 15 00 00       	call   c010334c <spinlock_init>
c0101dff:	c6 05 cc 55 11 c0 00 	mov    BYTE PTR ds:0xc01155cc,0x0
c0101e06:	83 c4 10             	add    esp,0x10
c0101e09:	c9                   	leave  
c0101e0a:	c3                   	ret    

c0101e0b <heap_reinit>:
c0101e0b:	55                   	push   ebp
c0101e0c:	89 e5                	mov    ebp,esp
c0101e0e:	57                   	push   edi
c0101e0f:	56                   	push   esi
c0101e10:	53                   	push   ebx
c0101e11:	83 ec 18             	sub    esp,0x18
c0101e14:	68 40 09 11 c0       	push   0xc0110940
c0101e19:	e8 5f 15 00 00       	call   c010337d <spinlock_acquire>
c0101e1e:	c7 04 24 00 00 00 10 	mov    DWORD PTR [esp],0x10000000
c0101e25:	e8 fc 08 00 00       	call   c0102726 <virt_allocate_unbacked_krnl_region>
c0101e2a:	89 c3                	mov    ebx,eax
c0101e2c:	8d b8 00 00 00 10    	lea    edi,[eax+0x10000000]
c0101e32:	83 c4 10             	add    esp,0x10
c0101e35:	89 c6                	mov    esi,eax
c0101e37:	e8 ea 05 00 00       	call   c0102426 <vas_get_current_vas>
c0101e3c:	52                   	push   edx
c0101e3d:	6a 60                	push   0x60
c0101e3f:	56                   	push   esi
c0101e40:	50                   	push   eax
c0101e41:	e8 0a 07 00 00       	call   c0102550 <vas_reflag>
c0101e46:	81 c6 00 10 00 00    	add    esi,0x1000
c0101e4c:	83 c4 10             	add    esp,0x10
c0101e4f:	39 fe                	cmp    esi,edi
c0101e51:	75 e4                	jne    c0101e37 <heap_reinit+0x2c>
c0101e53:	89 1d 20 09 11 c0    	mov    DWORD PTR ds:0xc0110920,ebx
c0101e59:	c7 03 11 00 00 00    	mov    DWORD PTR [ebx],0x11
c0101e5f:	a1 20 09 11 c0       	mov    eax,ds:0xc0110920
c0101e64:	8b 10                	mov    edx,DWORD PTR [eax]
c0101e66:	89 50 0c             	mov    DWORD PTR [eax+0xc],edx
c0101e69:	c7 80 f0 ff ff 0f 11 00 00 00 	mov    DWORD PTR [eax+0xffffff0],0x11
c0101e73:	c7 80 fc ff ff 0f 11 00 00 00 	mov    DWORD PTR [eax+0xffffffc],0x11
c0101e7d:	c7 40 10 e0 ff ff 0f 	mov    DWORD PTR [eax+0x10],0xfffffe0
c0101e84:	c7 40 14 00 00 00 00 	mov    DWORD PTR [eax+0x14],0x0
c0101e8b:	c7 40 18 00 00 00 00 	mov    DWORD PTR [eax+0x18],0x0
c0101e92:	c7 80 ec ff ff 0f e0 ff ff 0f 	mov    DWORD PTR [eax+0xfffffec],0xfffffe0
c0101e9c:	83 c0 10             	add    eax,0x10
c0101e9f:	a3 20 09 11 c0       	mov    ds:0xc0110920,eax
c0101ea4:	c6 05 cc 55 11 c0 01 	mov    BYTE PTR ds:0xc01155cc,0x1
c0101eab:	83 ec 0c             	sub    esp,0xc
c0101eae:	68 40 09 11 c0       	push   0xc0110940
c0101eb3:	e8 ca 14 00 00       	call   c0103382 <spinlock_release>
c0101eb8:	83 c4 10             	add    esp,0x10
c0101ebb:	8d 65 f4             	lea    esp,[ebp-0xc]
c0101ebe:	5b                   	pop    ebx
c0101ebf:	5e                   	pop    esi
c0101ec0:	5f                   	pop    edi
c0101ec1:	5d                   	pop    ebp
c0101ec2:	c3                   	ret    

c0101ec3 <malloc>:
c0101ec3:	55                   	push   ebp
c0101ec4:	89 e5                	mov    ebp,esp
c0101ec6:	57                   	push   edi
c0101ec7:	56                   	push   esi
c0101ec8:	53                   	push   ebx
c0101ec9:	83 ec 28             	sub    esp,0x28
c0101ecc:	68 40 09 11 c0       	push   0xc0110940
c0101ed1:	e8 a7 14 00 00       	call   c010337d <spinlock_acquire>
c0101ed6:	8b 45 08             	mov    eax,DWORD PTR [ebp+0x8]
c0101ed9:	8d 50 0b             	lea    edx,[eax+0xb]
c0101edc:	83 e2 fc             	and    edx,0xfffffffc
c0101edf:	83 c4 10             	add    esp,0x10
c0101ee2:	8b 1d 20 09 11 c0    	mov    ebx,DWORD PTR ds:0xc0110920
c0101ee8:	80 3d cc 55 11 c0 00 	cmp    BYTE PTR ds:0xc01155cc,0x0
c0101eef:	75 36                	jne    c0101f27 <malloc+0x64>
c0101ef1:	8b 1d c8 55 11 c0    	mov    ebx,DWORD PTR ds:0xc01155c8
c0101ef7:	01 da                	add    edx,ebx
c0101ef9:	89 15 c8 55 11 c0    	mov    DWORD PTR ds:0xc01155c8,edx
c0101eff:	83 ec 0c             	sub    esp,0xc
c0101f02:	68 40 09 11 c0       	push   0xc0110940
c0101f07:	e8 76 14 00 00       	call   c0103382 <spinlock_release>
c0101f0c:	8d 83 20 e9 10 c0    	lea    eax,[ebx-0x3fef16e0]
c0101f12:	e9 bd 00 00 00       	jmp    c0101fd4 <malloc+0x111>
c0101f17:	8b 0b                	mov    ecx,DWORD PTR [ebx]
c0101f19:	89 cf                	mov    edi,ecx
c0101f1b:	83 e7 fe             	and    edi,0xfffffffe
c0101f1e:	8b 43 04             	mov    eax,DWORD PTR [ebx+0x4]
c0101f21:	39 fa                	cmp    edx,edi
c0101f23:	76 08                	jbe    c0101f2d <malloc+0x6a>
c0101f25:	89 c3                	mov    ebx,eax
c0101f27:	85 db                	test   ebx,ebx
c0101f29:	75 ec                	jne    c0101f17 <malloc+0x54>
c0101f2b:	eb 0a                	jmp    c0101f37 <malloc+0x74>
c0101f2d:	8b 73 08             	mov    esi,DWORD PTR [ebx+0x8]
c0101f30:	89 75 e4             	mov    DWORD PTR [ebp-0x1c],esi
c0101f33:	75 0c                	jne    c0101f41 <malloc+0x7e>
c0101f35:	eb 11                	jmp    c0101f48 <malloc+0x85>
c0101f37:	83 ec 0c             	sub    esp,0xc
c0101f3a:	68 53 95 10 c0       	push   0xc0109553
c0101f3f:	eb 36                	jmp    c0101f77 <malloc+0xb4>
c0101f41:	8d 72 10             	lea    esi,[edx+0x10]
c0101f44:	39 fe                	cmp    esi,edi
c0101f46:	76 3c                	jbe    c0101f84 <malloc+0xc1>
c0101f48:	83 cf 01             	or     edi,0x1
c0101f4b:	89 3b                	mov    DWORD PTR [ebx],edi
c0101f4d:	83 e1 fc             	and    ecx,0xfffffffc
c0101f50:	89 7c 0b fc          	mov    DWORD PTR [ebx+ecx*1-0x4],edi
c0101f54:	83 7d e4 00          	cmp    DWORD PTR [ebp-0x1c],0x0
c0101f58:	74 0c                	je     c0101f66 <malloc+0xa3>
c0101f5a:	8b 7d e4             	mov    edi,DWORD PTR [ebp-0x1c]
c0101f5d:	89 47 04             	mov    DWORD PTR [edi+0x4],eax
c0101f60:	85 c0                	test   eax,eax
c0101f62:	74 5a                	je     c0101fbe <malloc+0xfb>
c0101f64:	eb 16                	jmp    c0101f7c <malloc+0xb9>
c0101f66:	a3 20 09 11 c0       	mov    ds:0xc0110920,eax
c0101f6b:	85 c0                	test   eax,eax
c0101f6d:	75 0d                	jne    c0101f7c <malloc+0xb9>
c0101f6f:	83 ec 0c             	sub    esp,0xc
c0101f72:	68 7a 95 10 c0       	push   0xc010957a
c0101f77:	e8 f8 2a 00 00       	call   c0104a74 <panic>
c0101f7c:	8b 75 e4             	mov    esi,DWORD PTR [ebp-0x1c]
c0101f7f:	89 70 08             	mov    DWORD PTR [eax+0x8],esi
c0101f82:	eb 3a                	jmp    c0101fbe <malloc+0xfb>
c0101f84:	89 d1                	mov    ecx,edx
c0101f86:	83 c9 01             	or     ecx,0x1
c0101f89:	89 0b                	mov    DWORD PTR [ebx],ecx
c0101f8b:	89 4c 13 fc          	mov    DWORD PTR [ebx+edx*1-0x4],ecx
c0101f8f:	8d 0c 13             	lea    ecx,[ebx+edx*1]
c0101f92:	29 d7                	sub    edi,edx
c0101f94:	89 39                	mov    DWORD PTR [ecx],edi
c0101f96:	89 fe                	mov    esi,edi
c0101f98:	83 e6 fc             	and    esi,0xfffffffc
c0101f9b:	89 7c 31 fc          	mov    DWORD PTR [ecx+esi*1-0x4],edi
c0101f9f:	89 41 04             	mov    DWORD PTR [ecx+0x4],eax
c0101fa2:	8b 7d e4             	mov    edi,DWORD PTR [ebp-0x1c]
c0101fa5:	89 79 08             	mov    DWORD PTR [ecx+0x8],edi
c0101fa8:	85 ff                	test   edi,edi
c0101faa:	74 05                	je     c0101fb1 <malloc+0xee>
c0101fac:	89 4f 04             	mov    DWORD PTR [edi+0x4],ecx
c0101faf:	eb 06                	jmp    c0101fb7 <malloc+0xf4>
c0101fb1:	89 0d 20 09 11 c0    	mov    DWORD PTR ds:0xc0110920,ecx
c0101fb7:	85 c0                	test   eax,eax
c0101fb9:	74 03                	je     c0101fbe <malloc+0xfb>
c0101fbb:	89 48 08             	mov    DWORD PTR [eax+0x8],ecx
c0101fbe:	01 15 c4 55 11 c0    	add    DWORD PTR ds:0xc01155c4,edx
c0101fc4:	83 ec 0c             	sub    esp,0xc
c0101fc7:	68 40 09 11 c0       	push   0xc0110940
c0101fcc:	e8 b1 13 00 00       	call   c0103382 <spinlock_release>
c0101fd1:	8d 43 04             	lea    eax,[ebx+0x4]
c0101fd4:	83 c4 10             	add    esp,0x10
c0101fd7:	8d 65 f4             	lea    esp,[ebp-0xc]
c0101fda:	5b                   	pop    ebx
c0101fdb:	5e                   	pop    esi
c0101fdc:	5f                   	pop    edi
c0101fdd:	5d                   	pop    ebp
c0101fde:	c3                   	ret    

c0101fdf <free>:
c0101fdf:	55                   	push   ebp
c0101fe0:	89 e5                	mov    ebp,esp
c0101fe2:	57                   	push   edi
c0101fe3:	56                   	push   esi
c0101fe4:	53                   	push   ebx
c0101fe5:	83 ec 1c             	sub    esp,0x1c
c0101fe8:	8b 5d 08             	mov    ebx,DWORD PTR [ebp+0x8]
c0101feb:	81 fb 20 e9 10 c0    	cmp    ebx,0xc010e920
c0101ff1:	72 12                	jb     c0102005 <free+0x26>
c0101ff3:	a1 c8 55 11 c0       	mov    eax,ds:0xc01155c8
c0101ff8:	05 20 e9 10 c0       	add    eax,0xc010e920
c0101ffd:	39 c3                	cmp    ebx,eax
c0101fff:	0f 82 96 00 00 00    	jb     c010209b <free+0xbc>
c0102005:	8d 7b fc             	lea    edi,[ebx-0x4]
c0102008:	8b 43 fc             	mov    eax,DWORD PTR [ebx-0x4]
c010200b:	89 c6                	mov    esi,eax
c010200d:	83 e6 fe             	and    esi,0xfffffffe
c0102010:	8b 53 f8             	mov    edx,DWORD PTR [ebx-0x8]
c0102013:	83 e2 fc             	and    edx,0xfffffffc
c0102016:	89 f9                	mov    ecx,edi
c0102018:	29 d1                	sub    ecx,edx
c010201a:	83 e0 fc             	and    eax,0xfffffffc
c010201d:	01 f8                	add    eax,edi
c010201f:	89 45 e0             	mov    DWORD PTR [ebp-0x20],eax
c0102022:	8b 01                	mov    eax,DWORD PTR [ecx]
c0102024:	8b 55 e0             	mov    edx,DWORD PTR [ebp-0x20]
c0102027:	8b 12                	mov    edx,DWORD PTR [edx]
c0102029:	89 55 e4             	mov    DWORD PTR [ebp-0x1c],edx
c010202c:	83 e2 01             	and    edx,0x1
c010202f:	a8 01                	test   al,0x1
c0102031:	74 29                	je     c010205c <free+0x7d>
c0102033:	85 d2                	test   edx,edx
c0102035:	74 05                	je     c010203c <free+0x5d>
c0102037:	89 73 fc             	mov    DWORD PTR [ebx-0x4],esi
c010203a:	eb 1c                	jmp    c0102058 <free+0x79>
c010203c:	8b 4d e4             	mov    ecx,DWORD PTR [ebp-0x1c]
c010203f:	83 e1 fe             	and    ecx,0xfffffffe
c0102042:	01 f1                	add    ecx,esi
c0102044:	8b 45 e0             	mov    eax,DWORD PTR [ebp-0x20]
c0102047:	e8 81 fd ff ff       	call   c0101dcd <remove_block_from_list>
c010204c:	89 4b fc             	mov    DWORD PTR [ebx-0x4],ecx
c010204f:	89 c8                	mov    eax,ecx
c0102051:	83 e0 fc             	and    eax,0xfffffffc
c0102054:	89 4c 07 fc          	mov    DWORD PTR [edi+eax*1-0x4],ecx
c0102058:	89 f8                	mov    eax,edi
c010205a:	eb 34                	jmp    c0102090 <free+0xb1>
c010205c:	83 e0 fe             	and    eax,0xfffffffe
c010205f:	85 d2                	test   edx,edx
c0102061:	74 07                	je     c010206a <free+0x8b>
c0102063:	8d 1c 06             	lea    ebx,[esi+eax*1]
c0102066:	89 c8                	mov    eax,ecx
c0102068:	eb 14                	jmp    c010207e <free+0x9f>
c010206a:	8b 5d e4             	mov    ebx,DWORD PTR [ebp-0x1c]
c010206d:	83 e3 fe             	and    ebx,0xfffffffe
c0102070:	01 f3                	add    ebx,esi
c0102072:	01 c3                	add    ebx,eax
c0102074:	89 c8                	mov    eax,ecx
c0102076:	e8 52 fd ff ff       	call   c0101dcd <remove_block_from_list>
c010207b:	8b 45 e0             	mov    eax,DWORD PTR [ebp-0x20]
c010207e:	e8 4a fd ff ff       	call   c0101dcd <remove_block_from_list>
c0102083:	89 19                	mov    DWORD PTR [ecx],ebx
c0102085:	89 d8                	mov    eax,ebx
c0102087:	83 e0 fc             	and    eax,0xfffffffc
c010208a:	89 5c 01 fc          	mov    DWORD PTR [ecx+eax*1-0x4],ebx
c010208e:	89 c8                	mov    eax,ecx
c0102090:	e8 1b fd ff ff       	call   c0101db0 <make_block_root>
c0102095:	29 35 c4 55 11 c0    	sub    DWORD PTR ds:0xc01155c4,esi
c010209b:	83 c4 1c             	add    esp,0x1c
c010209e:	5b                   	pop    ebx
c010209f:	5e                   	pop    esi
c01020a0:	5f                   	pop    edi
c01020a1:	5d                   	pop    ebp
c01020a2:	c3                   	ret    

c01020a3 <phys_init>:
c01020a3:	55                   	push   ebp
c01020a4:	89 e5                	mov    ebp,esp
c01020a6:	57                   	push   edi
c01020a7:	56                   	push   esi
c01020a8:	53                   	push   ebx
c01020a9:	83 ec 24             	sub    esp,0x24
c01020ac:	68 98 95 10 c0       	push   0xc0109598
c01020b1:	68 a0 09 11 c0       	push   0xc01109a0
c01020b6:	e8 91 12 00 00       	call   c010334c <spinlock_init>
c01020bb:	c7 04 24 a0 09 11 c0 	mov    DWORD PTR [esp],0xc01109a0
c01020c2:	e8 b6 12 00 00       	call   c010337d <spinlock_acquire>
c01020c7:	83 c4 0c             	add    esp,0xc
c01020ca:	68 00 10 00 00       	push   0x1000
c01020cf:	6a 00                	push   0x0
c01020d1:	68 00 0a 11 c0       	push   0xc0110a00
c01020d6:	e8 80 f1 ff ff       	call   c010125b <memset>
c01020db:	83 c4 10             	add    esp,0x10
c01020de:	31 f6                	xor    esi,esi
c01020e0:	83 ec 0c             	sub    esp,0xc
c01020e3:	56                   	push   esi
c01020e4:	e8 c1 57 00 00       	call   c01078aa <arch_get_memory>
c01020e9:	83 c4 10             	add    esp,0x10
c01020ec:	85 c0                	test   eax,eax
c01020ee:	74 55                	je     c0102145 <phys_init+0xa2>
c01020f0:	8b 18                	mov    ebx,DWORD PTR [eax]
c01020f2:	8d 93 ff 0f 00 00    	lea    edx,[ebx+0xfff]
c01020f8:	c1 ea 0c             	shr    edx,0xc
c01020fb:	03 58 04             	add    ebx,DWORD PTR [eax+0x4]
c01020fe:	c1 eb 0c             	shr    ebx,0xc
c0102101:	39 da                	cmp    edx,ebx
c0102103:	73 3d                	jae    c0102142 <phys_init+0x9f>
c0102105:	81 fa ff 7f 00 00    	cmp    edx,0x7fff
c010210b:	77 35                	ja     c0102142 <phys_init+0x9f>
c010210d:	50                   	push   eax
c010210e:	50                   	push   eax
c010210f:	89 d0                	mov    eax,edx
c0102111:	89 55 e4             	mov    DWORD PTR [ebp-0x1c],edx
c0102114:	c1 e0 0c             	shl    eax,0xc
c0102117:	50                   	push   eax
c0102118:	68 ad 95 10 c0       	push   0xc01095ad
c010211d:	e8 98 27 00 00       	call   c01048ba <kprintf>
c0102122:	8b 55 e4             	mov    edx,DWORD PTR [ebp-0x1c]
c0102125:	8d 7a 01             	lea    edi,[edx+0x1]
c0102128:	59                   	pop    ecx
c0102129:	58                   	pop    eax
c010212a:	52                   	push   edx
c010212b:	68 00 0a 11 c0       	push   0xc0110a00
c0102130:	e8 44 26 00 00       	call   c0104779 <bitarray_set>
c0102135:	ff 05 d0 55 11 c0    	inc    DWORD PTR ds:0xc01155d0
c010213b:	83 c4 10             	add    esp,0x10
c010213e:	89 fa                	mov    edx,edi
c0102140:	eb bf                	jmp    c0102101 <phys_init+0x5e>
c0102142:	46                   	inc    esi
c0102143:	eb 9b                	jmp    c01020e0 <phys_init+0x3d>
c0102145:	83 ec 0c             	sub    esp,0xc
c0102148:	68 a0 09 11 c0       	push   0xc01109a0
c010214d:	e8 30 12 00 00       	call   c0103382 <spinlock_release>
c0102152:	83 c4 10             	add    esp,0x10
c0102155:	8d 65 f4             	lea    esp,[ebp-0xc]
c0102158:	5b                   	pop    ebx
c0102159:	5e                   	pop    esi
c010215a:	5f                   	pop    edi
c010215b:	5d                   	pop    ebp
c010215c:	c3                   	ret    

c010215d <phys_allocate_page>:
c010215d:	55                   	push   ebp
c010215e:	89 e5                	mov    ebp,esp
c0102160:	53                   	push   ebx
c0102161:	83 ec 10             	sub    esp,0x10
c0102164:	68 a0 09 11 c0       	push   0xc01109a0
c0102169:	e8 0f 12 00 00       	call   c010337d <spinlock_acquire>
c010216e:	ff 05 d4 55 11 c0    	inc    DWORD PTR ds:0xc01155d4
c0102174:	83 c4 10             	add    esp,0x10
c0102177:	bb 00 80 00 00       	mov    ebx,0x8000
c010217c:	a1 d8 55 11 c0       	mov    eax,ds:0xc01155d8
c0102181:	40                   	inc    eax
c0102182:	25 ff 7f 00 00       	and    eax,0x7fff
c0102187:	a3 d8 55 11 c0       	mov    ds:0xc01155d8,eax
c010218c:	52                   	push   edx
c010218d:	52                   	push   edx
c010218e:	50                   	push   eax
c010218f:	68 00 0a 11 c0       	push   0xc0110a00
c0102194:	e8 1a 26 00 00       	call   c01047b3 <bitarray_is_set>
c0102199:	83 c4 10             	add    esp,0x10
c010219c:	84 c0                	test   al,al
c010219e:	75 1c                	jne    c01021bc <phys_allocate_page+0x5f>
c01021a0:	4b                   	dec    ebx
c01021a1:	75 d9                	jne    c010217c <phys_allocate_page+0x1f>
c01021a3:	83 ec 0c             	sub    esp,0xc
c01021a6:	68 a0 09 11 c0       	push   0xc01109a0
c01021ab:	e8 d2 11 00 00       	call   c0103382 <spinlock_release>
c01021b0:	83 c4 10             	add    esp,0x10
c01021b3:	8b 5d fc             	mov    ebx,DWORD PTR [ebp-0x4]
c01021b6:	c9                   	leave  
c01021b7:	e9 81 04 00 00       	jmp    c010263d <vas_perform_page_replacement>
c01021bc:	50                   	push   eax
c01021bd:	50                   	push   eax
c01021be:	ff 35 d8 55 11 c0    	push   DWORD PTR ds:0xc01155d8
c01021c4:	68 00 0a 11 c0       	push   0xc0110a00
c01021c9:	e8 c7 25 00 00       	call   c0104795 <bitarray_clear>
c01021ce:	c7 04 24 a0 09 11 c0 	mov    DWORD PTR [esp],0xc01109a0
c01021d5:	e8 a8 11 00 00       	call   c0103382 <spinlock_release>
c01021da:	a1 d8 55 11 c0       	mov    eax,ds:0xc01155d8
c01021df:	c1 e0 0c             	shl    eax,0xc
c01021e2:	83 c4 10             	add    esp,0x10
c01021e5:	8b 5d fc             	mov    ebx,DWORD PTR [ebp-0x4]
c01021e8:	c9                   	leave  
c01021e9:	c3                   	ret    

c01021ea <phys_free_page>:
c01021ea:	55                   	push   ebp
c01021eb:	89 e5                	mov    ebp,esp
c01021ed:	53                   	push   ebx
c01021ee:	83 ec 10             	sub    esp,0x10
c01021f1:	8b 5d 08             	mov    ebx,DWORD PTR [ebp+0x8]
c01021f4:	68 a0 09 11 c0       	push   0xc01109a0
c01021f9:	e8 7f 11 00 00       	call   c010337d <spinlock_acquire>
c01021fe:	ff 0d d4 55 11 c0    	dec    DWORD PTR ds:0xc01155d4
c0102204:	58                   	pop    eax
c0102205:	5a                   	pop    edx
c0102206:	c1 eb 0c             	shr    ebx,0xc
c0102209:	53                   	push   ebx
c010220a:	68 00 0a 11 c0       	push   0xc0110a00
c010220f:	e8 65 25 00 00       	call   c0104779 <bitarray_set>
c0102214:	83 c4 10             	add    esp,0x10
c0102217:	c7 45 08 a0 09 11 c0 	mov    DWORD PTR [ebp+0x8],0xc01109a0
c010221e:	8b 5d fc             	mov    ebx,DWORD PTR [ebp-0x4]
c0102221:	c9                   	leave  
c0102222:	e9 5b 11 00 00       	jmp    c0103382 <spinlock_release>

c0102227 <swapfile_init>:
c0102227:	55                   	push   ebp
c0102228:	89 e5                	mov    ebp,esp
c010222a:	83 ec 08             	sub    esp,0x8
c010222d:	c7 05 38 56 11 c0 40 0b 00 00 	mov    DWORD PTR ds:0xc0115638,0xb40
c0102237:	c7 05 30 56 11 c0 00 02 00 00 	mov    DWORD PTR ds:0xc0115630,0x200
c0102241:	c7 05 34 56 11 c0 08 00 00 00 	mov    DWORD PTR ds:0xc0115634,0x8
c010224b:	68 2c 56 11 c0       	push   0xc011562c
c0102250:	6a 00                	push   0x0
c0102252:	6a 60                	push   0x60
c0102254:	68 bb 95 10 c0       	push   0xc01095bb
c0102259:	e8 a9 34 00 00       	call   c0105707 <vfs_open>
c010225e:	83 c4 10             	add    esp,0x10
c0102261:	85 c0                	test   eax,eax
c0102263:	74 0d                	je     c0102272 <swapfile_init+0x4b>
c0102265:	83 ec 0c             	sub    esp,0xc
c0102268:	68 c3 95 10 c0       	push   0xc01095c3
c010226d:	e8 02 28 00 00       	call   c0104a74 <panic>
c0102272:	83 ec 0c             	sub    esp,0xc
c0102275:	68 00 02 00 00       	push   0x200
c010227a:	e8 44 fc ff ff       	call   c0101ec3 <malloc>
c010227f:	a3 28 56 11 c0       	mov    ds:0xc0115628,eax
c0102284:	83 c4 0c             	add    esp,0xc
c0102287:	68 00 02 00 00       	push   0x200
c010228c:	6a 00                	push   0x0
c010228e:	50                   	push   eax
c010228f:	e8 c7 ef ff ff       	call   c010125b <memset>
c0102294:	58                   	pop    eax
c0102295:	5a                   	pop    edx
c0102296:	68 dc 95 10 c0       	push   0xc01095dc
c010229b:	68 e0 55 11 c0       	push   0xc01155e0
c01022a0:	e8 a7 10 00 00       	call   c010334c <spinlock_init>
c01022a5:	83 c4 10             	add    esp,0x10
c01022a8:	c9                   	leave  
c01022a9:	c3                   	ret    

c01022aa <swapfile_write>:
c01022aa:	55                   	push   ebp
c01022ab:	89 e5                	mov    ebp,esp
c01022ad:	57                   	push   edi
c01022ae:	56                   	push   esi
c01022af:	53                   	push   ebx
c01022b0:	83 ec 38             	sub    esp,0x38
c01022b3:	8b 75 08             	mov    esi,DWORD PTR [ebp+0x8]
c01022b6:	68 e0 55 11 c0       	push   0xc01155e0
c01022bb:	e8 bd 10 00 00       	call   c010337d <spinlock_acquire>
c01022c0:	83 c4 10             	add    esp,0x10
c01022c3:	31 db                	xor    ebx,ebx
c01022c5:	50                   	push   eax
c01022c6:	50                   	push   eax
c01022c7:	53                   	push   ebx
c01022c8:	ff 35 28 56 11 c0    	push   DWORD PTR ds:0xc0115628
c01022ce:	e8 e0 24 00 00       	call   c01047b3 <bitarray_is_set>
c01022d3:	83 c4 10             	add    esp,0x10
c01022d6:	84 c0                	test   al,al
c01022d8:	75 58                	jne    c0102332 <swapfile_write+0x88>
c01022da:	52                   	push   edx
c01022db:	52                   	push   edx
c01022dc:	53                   	push   ebx
c01022dd:	ff 35 28 56 11 c0    	push   DWORD PTR ds:0xc0115628
c01022e3:	e8 91 24 00 00       	call   c0104779 <bitarray_set>
c01022e8:	8d 7d d4             	lea    edi,[ebp-0x2c]
c01022eb:	59                   	pop    ecx
c01022ec:	58                   	pop    eax
c01022ed:	6a 00                	push   0x0
c01022ef:	6a 01                	push   0x1
c01022f1:	a1 34 56 11 c0       	mov    eax,ds:0xc0115634
c01022f6:	0f af c3             	imul   eax,ebx
c01022f9:	03 05 38 56 11 c0    	add    eax,DWORD PTR ds:0xc0115638
c01022ff:	0f af 05 30 56 11 c0 	imul   eax,DWORD PTR ds:0xc0115630
c0102306:	50                   	push   eax
c0102307:	68 00 10 00 00       	push   0x1000
c010230c:	56                   	push   esi
c010230d:	57                   	push   edi
c010230e:	e8 30 2b 00 00       	call   c0104e43 <uio_construct>
c0102313:	89 3c 24             	mov    DWORD PTR [esp],edi
c0102316:	ff 35 2c 56 11 c0    	push   DWORD PTR ds:0xc011562c
c010231c:	e8 2a 35 00 00       	call   c010584b <vfs_write>
c0102321:	83 c4 20             	add    esp,0x20
c0102324:	85 c0                	test   eax,eax
c0102326:	74 20                	je     c0102348 <swapfile_write+0x9e>
c0102328:	83 ec 0c             	sub    esp,0xc
c010232b:	68 ea 95 10 c0       	push   0xc01095ea
c0102330:	eb 11                	jmp    c0102343 <swapfile_write+0x99>
c0102332:	43                   	inc    ebx
c0102333:	81 fb 00 10 00 00    	cmp    ebx,0x1000
c0102339:	75 8a                	jne    c01022c5 <swapfile_write+0x1b>
c010233b:	83 ec 0c             	sub    esp,0xc
c010233e:	68 04 96 10 c0       	push   0xc0109604
c0102343:	e8 2c 27 00 00       	call   c0104a74 <panic>
c0102348:	50                   	push   eax
c0102349:	6a 00                	push   0x0
c010234b:	68 00 10 00 00       	push   0x1000
c0102350:	56                   	push   esi
c0102351:	e8 05 ef ff ff       	call   c010125b <memset>
c0102356:	c7 04 24 e0 55 11 c0 	mov    DWORD PTR [esp],0xc01155e0
c010235d:	e8 20 10 00 00       	call   c0103382 <spinlock_release>
c0102362:	89 d8                	mov    eax,ebx
c0102364:	8d 65 f4             	lea    esp,[ebp-0xc]
c0102367:	5b                   	pop    ebx
c0102368:	5e                   	pop    esi
c0102369:	5f                   	pop    edi
c010236a:	5d                   	pop    ebp
c010236b:	c3                   	ret    

c010236c <swapfile_read>:
c010236c:	55                   	push   ebp
c010236d:	89 e5                	mov    ebp,esp
c010236f:	56                   	push   esi
c0102370:	53                   	push   ebx
c0102371:	83 ec 20             	sub    esp,0x20
c0102374:	8b 5d 0c             	mov    ebx,DWORD PTR [ebp+0xc]
c0102377:	81 fb ff 0f 00 00    	cmp    ebx,0xfff
c010237d:	76 0a                	jbe    c0102389 <swapfile_read+0x1d>
c010237f:	83 ec 0c             	sub    esp,0xc
c0102382:	68 1b 96 10 c0       	push   0xc010961b
c0102387:	eb 4a                	jmp    c01023d3 <swapfile_read+0x67>
c0102389:	8d 75 e4             	lea    esi,[ebp-0x1c]
c010238c:	52                   	push   edx
c010238d:	52                   	push   edx
c010238e:	6a 00                	push   0x0
c0102390:	6a 00                	push   0x0
c0102392:	a1 34 56 11 c0       	mov    eax,ds:0xc0115634
c0102397:	0f af c3             	imul   eax,ebx
c010239a:	03 05 38 56 11 c0    	add    eax,DWORD PTR ds:0xc0115638
c01023a0:	0f af 05 30 56 11 c0 	imul   eax,DWORD PTR ds:0xc0115630
c01023a7:	50                   	push   eax
c01023a8:	68 00 10 00 00       	push   0x1000
c01023ad:	ff 75 08             	push   DWORD PTR [ebp+0x8]
c01023b0:	56                   	push   esi
c01023b1:	e8 8d 2a 00 00       	call   c0104e43 <uio_construct>
c01023b6:	89 34 24             	mov    DWORD PTR [esp],esi
c01023b9:	ff 35 2c 56 11 c0    	push   DWORD PTR ds:0xc011562c
c01023bf:	e8 b3 34 00 00       	call   c0105877 <vfs_read>
c01023c4:	83 c4 20             	add    esp,0x20
c01023c7:	85 c0                	test   eax,eax
c01023c9:	74 0d                	je     c01023d8 <swapfile_read+0x6c>
c01023cb:	83 ec 0c             	sub    esp,0xc
c01023ce:	68 38 96 10 c0       	push   0xc0109638
c01023d3:	e8 9c 26 00 00       	call   c0104a74 <panic>
c01023d8:	50                   	push   eax
c01023d9:	50                   	push   eax
c01023da:	53                   	push   ebx
c01023db:	ff 35 28 56 11 c0    	push   DWORD PTR ds:0xc0115628
c01023e1:	e8 af 23 00 00       	call   c0104795 <bitarray_clear>
c01023e6:	83 c4 10             	add    esp,0x10
c01023e9:	8d 65 f8             	lea    esp,[ebp-0x8]
c01023ec:	5b                   	pop    ebx
c01023ed:	5e                   	pop    esi
c01023ee:	5d                   	pop    ebp
c01023ef:	c3                   	ret    

c01023f0 <vas_create>:
c01023f0:	55                   	push   ebp
c01023f1:	89 e5                	mov    ebp,esp
c01023f3:	53                   	push   ebx
c01023f4:	83 ec 10             	sub    esp,0x10
c01023f7:	6a 50                	push   0x50
c01023f9:	e8 c5 fa ff ff       	call   c0101ec3 <malloc>
c01023fe:	89 c3                	mov    ebx,eax
c0102400:	c7 40 04 00 00 00 00 	mov    DWORD PTR [eax+0x4],0x0
c0102407:	58                   	pop    eax
c0102408:	5a                   	pop    edx
c0102409:	68 51 96 10 c0       	push   0xc0109651
c010240e:	8d 43 08             	lea    eax,[ebx+0x8]
c0102411:	50                   	push   eax
c0102412:	e8 35 0f 00 00       	call   c010334c <spinlock_init>
c0102417:	89 1c 24             	mov    DWORD PTR [esp],ebx
c010241a:	e8 1f 59 00 00       	call   c0107d3e <arch_vas_create>
c010241f:	89 d8                	mov    eax,ebx
c0102421:	8b 5d fc             	mov    ebx,DWORD PTR [ebp-0x4]
c0102424:	c9                   	leave  
c0102425:	c3                   	ret    

c0102426 <vas_get_current_vas>:
c0102426:	a1 e8 1a 11 c0       	mov    eax,ds:0xc0111ae8
c010242b:	8b 40 04             	mov    eax,DWORD PTR [eax+0x4]
c010242e:	c3                   	ret    

c010242f <vas_flush_tlb>:
c010242f:	e9 b5 5e 00 00       	jmp    c01082e9 <arch_flush_tlb>

c0102434 <vas_destroy>:
c0102434:	55                   	push   ebp
c0102435:	89 e5                	mov    ebp,esp
c0102437:	56                   	push   esi
c0102438:	53                   	push   ebx
c0102439:	8b 5d 08             	mov    ebx,DWORD PTR [ebp+0x8]
c010243c:	8d 73 08             	lea    esi,[ebx+0x8]
c010243f:	83 ec 0c             	sub    esp,0xc
c0102442:	56                   	push   esi
c0102443:	e8 35 0f 00 00       	call   c010337d <spinlock_acquire>
c0102448:	83 c4 10             	add    esp,0x10
c010244b:	a1 e8 1a 11 c0       	mov    eax,ds:0xc0111ae8
c0102450:	39 58 04             	cmp    DWORD PTR [eax+0x4],ebx
c0102453:	75 0d                	jne    c0102462 <vas_destroy+0x2e>
c0102455:	83 ec 0c             	sub    esp,0xc
c0102458:	68 5e 96 10 c0       	push   0xc010965e
c010245d:	e8 12 26 00 00       	call   c0104a74 <panic>
c0102462:	83 ec 0c             	sub    esp,0xc
c0102465:	ff 33                	push   DWORD PTR [ebx]
c0102467:	e8 27 55 00 00       	call   c0107993 <arch_vas_destroy>
c010246c:	89 34 24             	mov    DWORD PTR [esp],esi
c010246f:	e8 0e 0f 00 00       	call   c0103382 <spinlock_release>
c0102474:	83 c4 10             	add    esp,0x10
c0102477:	89 5d 08             	mov    DWORD PTR [ebp+0x8],ebx
c010247a:	8d 65 f8             	lea    esp,[ebp-0x8]
c010247d:	5b                   	pop    ebx
c010247e:	5e                   	pop    esi
c010247f:	5d                   	pop    ebp
c0102480:	e9 5a fb ff ff       	jmp    c0101fdf <free>

c0102485 <vas_load>:
c0102485:	55                   	push   ebp
c0102486:	89 e5                	mov    ebp,esp
c0102488:	56                   	push   esi
c0102489:	53                   	push   ebx
c010248a:	8b 5d 08             	mov    ebx,DWORD PTR [ebp+0x8]
c010248d:	8d 73 08             	lea    esi,[ebx+0x8]
c0102490:	83 ec 0c             	sub    esp,0xc
c0102493:	56                   	push   esi
c0102494:	e8 e4 0e 00 00       	call   c010337d <spinlock_acquire>
c0102499:	58                   	pop    eax
c010249a:	ff 33                	push   DWORD PTR [ebx]
c010249c:	e8 f7 54 00 00       	call   c0107998 <arch_vas_load>
c01024a1:	a1 e8 1a 11 c0       	mov    eax,ds:0xc0111ae8
c01024a6:	89 58 04             	mov    DWORD PTR [eax+0x4],ebx
c01024a9:	83 c4 10             	add    esp,0x10
c01024ac:	89 75 08             	mov    DWORD PTR [ebp+0x8],esi
c01024af:	8d 65 f8             	lea    esp,[ebp-0x8]
c01024b2:	5b                   	pop    ebx
c01024b3:	5e                   	pop    esi
c01024b4:	5d                   	pop    ebp
c01024b5:	e9 c8 0e 00 00       	jmp    c0103382 <spinlock_release>

c01024ba <vas_copy>:
c01024ba:	55                   	push   ebp
c01024bb:	89 e5                	mov    ebp,esp
c01024bd:	57                   	push   edi
c01024be:	56                   	push   esi
c01024bf:	53                   	push   ebx
c01024c0:	83 ec 18             	sub    esp,0x18
c01024c3:	8b 75 08             	mov    esi,DWORD PTR [ebp+0x8]
c01024c6:	6a 50                	push   0x50
c01024c8:	e8 f6 f9 ff ff       	call   c0101ec3 <malloc>
c01024cd:	89 c3                	mov    ebx,eax
c01024cf:	58                   	pop    eax
c01024d0:	5a                   	pop    edx
c01024d1:	68 51 96 10 c0       	push   0xc0109651
c01024d6:	8d 43 08             	lea    eax,[ebx+0x8]
c01024d9:	50                   	push   eax
c01024da:	e8 6d 0e 00 00       	call   c010334c <spinlock_init>
c01024df:	8d 7e 08             	lea    edi,[esi+0x8]
c01024e2:	89 3c 24             	mov    DWORD PTR [esp],edi
c01024e5:	e8 93 0e 00 00       	call   c010337d <spinlock_acquire>
c01024ea:	59                   	pop    ecx
c01024eb:	58                   	pop    eax
c01024ec:	53                   	push   ebx
c01024ed:	56                   	push   esi
c01024ee:	e8 d0 58 00 00       	call   c0107dc3 <arch_vas_copy>
c01024f3:	89 73 04             	mov    DWORD PTR [ebx+0x4],esi
c01024f6:	89 3c 24             	mov    DWORD PTR [esp],edi
c01024f9:	e8 84 0e 00 00       	call   c0103382 <spinlock_release>
c01024fe:	89 d8                	mov    eax,ebx
c0102500:	8d 65 f4             	lea    esp,[ebp-0xc]
c0102503:	5b                   	pop    ebx
c0102504:	5e                   	pop    esi
c0102505:	5f                   	pop    edi
c0102506:	5d                   	pop    ebp
c0102507:	c3                   	ret    

c0102508 <vas_map>:
c0102508:	55                   	push   ebp
c0102509:	89 e5                	mov    ebp,esp
c010250b:	57                   	push   edi
c010250c:	56                   	push   esi
c010250d:	53                   	push   ebx
c010250e:	83 ec 28             	sub    esp,0x28
c0102511:	8b 7d 08             	mov    edi,DWORD PTR [ebp+0x8]
c0102514:	8b 55 0c             	mov    edx,DWORD PTR [ebp+0xc]
c0102517:	89 55 e0             	mov    DWORD PTR [ebp-0x20],edx
c010251a:	8b 45 10             	mov    eax,DWORD PTR [ebp+0x10]
c010251d:	89 45 e4             	mov    DWORD PTR [ebp-0x1c],eax
c0102520:	8b 5d 14             	mov    ebx,DWORD PTR [ebp+0x14]
c0102523:	8d 77 08             	lea    esi,[edi+0x8]
c0102526:	56                   	push   esi
c0102527:	e8 51 0e 00 00       	call   c010337d <spinlock_acquire>
c010252c:	83 cb 14             	or     ebx,0x14
c010252f:	53                   	push   ebx
c0102530:	8b 55 e0             	mov    edx,DWORD PTR [ebp-0x20]
c0102533:	52                   	push   edx
c0102534:	8b 45 e4             	mov    eax,DWORD PTR [ebp-0x1c]
c0102537:	50                   	push   eax
c0102538:	57                   	push   edi
c0102539:	e8 6b 54 00 00       	call   c01079a9 <arch_vas_set_entry>
c010253e:	83 c4 20             	add    esp,0x20
c0102541:	89 75 08             	mov    DWORD PTR [ebp+0x8],esi
c0102544:	8d 65 f4             	lea    esp,[ebp-0xc]
c0102547:	5b                   	pop    ebx
c0102548:	5e                   	pop    esi
c0102549:	5f                   	pop    edi
c010254a:	5d                   	pop    ebp
c010254b:	e9 32 0e 00 00       	jmp    c0103382 <spinlock_release>

c0102550 <vas_reflag>:
c0102550:	55                   	push   ebp
c0102551:	89 e5                	mov    ebp,esp
c0102553:	57                   	push   edi
c0102554:	56                   	push   esi
c0102555:	53                   	push   ebx
c0102556:	83 ec 28             	sub    esp,0x28
c0102559:	8b 5d 08             	mov    ebx,DWORD PTR [ebp+0x8]
c010255c:	8b 7d 0c             	mov    edi,DWORD PTR [ebp+0xc]
c010255f:	8d 73 08             	lea    esi,[ebx+0x8]
c0102562:	56                   	push   esi
c0102563:	e8 15 0e 00 00       	call   c010337d <spinlock_acquire>
c0102568:	8d 45 e0             	lea    eax,[ebp-0x20]
c010256b:	50                   	push   eax
c010256c:	8d 45 e4             	lea    eax,[ebp-0x1c]
c010256f:	50                   	push   eax
c0102570:	57                   	push   edi
c0102571:	53                   	push   ebx
c0102572:	e8 a0 5a 00 00       	call   c0108017 <arch_vas_get_entry>
c0102577:	83 c4 20             	add    esp,0x20
c010257a:	ff 75 10             	push   DWORD PTR [ebp+0x10]
c010257d:	ff 75 e4             	push   DWORD PTR [ebp-0x1c]
c0102580:	57                   	push   edi
c0102581:	53                   	push   ebx
c0102582:	e8 22 54 00 00       	call   c01079a9 <arch_vas_set_entry>
c0102587:	89 34 24             	mov    DWORD PTR [esp],esi
c010258a:	e8 f3 0d 00 00       	call   c0103382 <spinlock_release>
c010258f:	83 c4 10             	add    esp,0x10
c0102592:	8d 65 f4             	lea    esp,[ebp-0xc]
c0102595:	5b                   	pop    ebx
c0102596:	5e                   	pop    esi
c0102597:	5f                   	pop    edi
c0102598:	5d                   	pop    ebp
c0102599:	c3                   	ret    

c010259a <vas_virtual_to_physical>:
c010259a:	55                   	push   ebp
c010259b:	89 e5                	mov    ebp,esp
c010259d:	56                   	push   esi
c010259e:	53                   	push   ebx
c010259f:	83 ec 1c             	sub    esp,0x1c
c01025a2:	8b 75 08             	mov    esi,DWORD PTR [ebp+0x8]
c01025a5:	8d 5e 08             	lea    ebx,[esi+0x8]
c01025a8:	53                   	push   ebx
c01025a9:	e8 cf 0d 00 00       	call   c010337d <spinlock_acquire>
c01025ae:	8d 45 f0             	lea    eax,[ebp-0x10]
c01025b1:	50                   	push   eax
c01025b2:	8d 45 f4             	lea    eax,[ebp-0xc]
c01025b5:	50                   	push   eax
c01025b6:	ff 75 0c             	push   DWORD PTR [ebp+0xc]
c01025b9:	56                   	push   esi
c01025ba:	e8 58 5a 00 00       	call   c0108017 <arch_vas_get_entry>
c01025bf:	83 c4 14             	add    esp,0x14
c01025c2:	53                   	push   ebx
c01025c3:	e8 ba 0d 00 00       	call   c0103382 <spinlock_release>
c01025c8:	8b 45 f4             	mov    eax,DWORD PTR [ebp-0xc]
c01025cb:	8d 65 f8             	lea    esp,[ebp-0x8]
c01025ce:	5b                   	pop    ebx
c01025cf:	5e                   	pop    esi
c01025d0:	5d                   	pop    ebp
c01025d1:	c3                   	ret    

c01025d2 <vas_unmap>:
c01025d2:	55                   	push   ebp
c01025d3:	89 e5                	mov    ebp,esp
c01025d5:	57                   	push   edi
c01025d6:	56                   	push   esi
c01025d7:	53                   	push   ebx
c01025d8:	83 ec 28             	sub    esp,0x28
c01025db:	8b 5d 08             	mov    ebx,DWORD PTR [ebp+0x8]
c01025de:	8b 7d 0c             	mov    edi,DWORD PTR [ebp+0xc]
c01025e1:	8d 73 08             	lea    esi,[ebx+0x8]
c01025e4:	56                   	push   esi
c01025e5:	e8 93 0d 00 00       	call   c010337d <spinlock_acquire>
c01025ea:	8d 45 e0             	lea    eax,[ebp-0x20]
c01025ed:	50                   	push   eax
c01025ee:	8d 45 e4             	lea    eax,[ebp-0x1c]
c01025f1:	50                   	push   eax
c01025f2:	57                   	push   edi
c01025f3:	53                   	push   ebx
c01025f4:	e8 1e 5a 00 00       	call   c0108017 <arch_vas_get_entry>
c01025f9:	83 c4 20             	add    esp,0x20
c01025fc:	6a 00                	push   0x0
c01025fe:	6a 00                	push   0x0
c0102600:	57                   	push   edi
c0102601:	53                   	push   ebx
c0102602:	e8 a2 53 00 00       	call   c01079a9 <arch_vas_set_entry>
c0102607:	89 34 24             	mov    DWORD PTR [esp],esi
c010260a:	e8 73 0d 00 00       	call   c0103382 <spinlock_release>
c010260f:	8b 45 e0             	mov    eax,DWORD PTR [ebp-0x20]
c0102612:	83 c4 10             	add    esp,0x10
c0102615:	a8 08                	test   al,0x8
c0102617:	74 0d                	je     c0102626 <vas_unmap+0x54>
c0102619:	83 ec 0c             	sub    esp,0xc
c010261c:	68 8e 96 10 c0       	push   0xc010968e
c0102621:	e8 4e 24 00 00       	call   c0104a74 <panic>
c0102626:	83 e0 50             	and    eax,0x50
c0102629:	89 c2                	mov    edx,eax
c010262b:	31 c0                	xor    eax,eax
c010262d:	83 fa 10             	cmp    edx,0x10
c0102630:	75 03                	jne    c0102635 <vas_unmap+0x63>
c0102632:	8b 45 e4             	mov    eax,DWORD PTR [ebp-0x1c]
c0102635:	8d 65 f4             	lea    esp,[ebp-0xc]
c0102638:	5b                   	pop    ebx
c0102639:	5e                   	pop    esi
c010263a:	5f                   	pop    edi
c010263b:	5d                   	pop    ebp
c010263c:	c3                   	ret    

c010263d <vas_perform_page_replacement>:
c010263d:	55                   	push   ebp
c010263e:	89 e5                	mov    ebp,esp
c0102640:	57                   	push   edi
c0102641:	56                   	push   esi
c0102642:	53                   	push   ebx
c0102643:	83 ec 38             	sub    esp,0x38
c0102646:	a1 e8 1a 11 c0       	mov    eax,ds:0xc0111ae8
c010264b:	8b 58 04             	mov    ebx,DWORD PTR [eax+0x4]
c010264e:	8d 7b 08             	lea    edi,[ebx+0x8]
c0102651:	57                   	push   edi
c0102652:	e8 30 0d 00 00       	call   c0103387 <spinlock_acquire_if_unlocked>
c0102657:	88 45 d4             	mov    BYTE PTR [ebp-0x2c],al
c010265a:	89 1c 24             	mov    DWORD PTR [esp],ebx
c010265d:	e8 12 5a 00 00       	call   c0108074 <arch_find_page_replacement_virt_address>
c0102662:	89 c6                	mov    esi,eax
c0102664:	8d 45 dc             	lea    eax,[ebp-0x24]
c0102667:	50                   	push   eax
c0102668:	8d 45 e0             	lea    eax,[ebp-0x20]
c010266b:	50                   	push   eax
c010266c:	56                   	push   esi
c010266d:	53                   	push   ebx
c010266e:	e8 a4 59 00 00       	call   c0108017 <arch_vas_get_entry>
c0102673:	83 c4 20             	add    esp,0x20
c0102676:	8b 45 dc             	mov    eax,DWORD PTR [ebp-0x24]
c0102679:	83 c8 20             	or     eax,0x20
c010267c:	50                   	push   eax
c010267d:	ff 75 e0             	push   DWORD PTR [ebp-0x20]
c0102680:	56                   	push   esi
c0102681:	53                   	push   ebx
c0102682:	e8 22 53 00 00       	call   c01079a9 <arch_vas_set_entry>
c0102687:	83 c4 10             	add    esp,0x10
c010268a:	8a 55 d4             	mov    dl,BYTE PTR [ebp-0x2c]
c010268d:	84 d2                	test   dl,dl
c010268f:	74 0c                	je     c010269d <vas_perform_page_replacement+0x60>
c0102691:	83 ec 0c             	sub    esp,0xc
c0102694:	57                   	push   edi
c0102695:	e8 e8 0c 00 00       	call   c0103382 <spinlock_release>
c010269a:	83 c4 10             	add    esp,0x10
c010269d:	83 ec 0c             	sub    esp,0xc
c01026a0:	56                   	push   esi
c01026a1:	e8 04 fc ff ff       	call   c01022aa <swapfile_write>
c01026a6:	89 45 d4             	mov    DWORD PTR [ebp-0x2c],eax
c01026a9:	89 3c 24             	mov    DWORD PTR [esp],edi
c01026ac:	e8 d6 0c 00 00       	call   c0103387 <spinlock_acquire_if_unlocked>
c01026b1:	88 45 d3             	mov    BYTE PTR [ebp-0x2d],al
c01026b4:	8b 55 dc             	mov    edx,DWORD PTR [ebp-0x24]
c01026b7:	83 e2 cf             	and    edx,0xffffffcf
c01026ba:	52                   	push   edx
c01026bb:	8b 55 d4             	mov    edx,DWORD PTR [ebp-0x2c]
c01026be:	c1 e2 0c             	shl    edx,0xc
c01026c1:	52                   	push   edx
c01026c2:	56                   	push   esi
c01026c3:	53                   	push   ebx
c01026c4:	e8 e0 52 00 00       	call   c01079a9 <arch_vas_set_entry>
c01026c9:	83 c4 20             	add    esp,0x20
c01026cc:	8d 55 dc             	lea    edx,[ebp-0x24]
c01026cf:	52                   	push   edx
c01026d0:	8d 55 e4             	lea    edx,[ebp-0x1c]
c01026d3:	52                   	push   edx
c01026d4:	56                   	push   esi
c01026d5:	53                   	push   ebx
c01026d6:	e8 3c 59 00 00       	call   c0108017 <arch_vas_get_entry>
c01026db:	83 c4 10             	add    esp,0x10
c01026de:	8a 45 d3             	mov    al,BYTE PTR [ebp-0x2d]
c01026e1:	84 c0                	test   al,al
c01026e3:	74 0c                	je     c01026f1 <vas_perform_page_replacement+0xb4>
c01026e5:	83 ec 0c             	sub    esp,0xc
c01026e8:	57                   	push   edi
c01026e9:	e8 94 0c 00 00       	call   c0103382 <spinlock_release>
c01026ee:	83 c4 10             	add    esp,0x10
c01026f1:	8b 45 e0             	mov    eax,DWORD PTR [ebp-0x20]
c01026f4:	8d 65 f4             	lea    esp,[ebp-0xc]
c01026f7:	5b                   	pop    ebx
c01026f8:	5e                   	pop    esi
c01026f9:	5f                   	pop    edi
c01026fa:	5d                   	pop    ebp
c01026fb:	c3                   	ret    

c01026fc <virt_init>:
c01026fc:	55                   	push   ebp
c01026fd:	89 e5                	mov    ebp,esp
c01026ff:	83 ec 10             	sub    esp,0x10
c0102702:	68 c8 96 10 c0       	push   0xc01096c8
c0102707:	68 00 1a 11 c0       	push   0xc0111a00
c010270c:	e8 3b 0c 00 00       	call   c010334c <spinlock_init>
c0102711:	83 c4 10             	add    esp,0x10
c0102714:	c9                   	leave  
c0102715:	c3                   	ret    

c0102716 <virt_bytes_to_pages>:
c0102716:	55                   	push   ebp
c0102717:	89 e5                	mov    ebp,esp
c0102719:	8b 45 08             	mov    eax,DWORD PTR [ebp+0x8]
c010271c:	05 ff 0f 00 00       	add    eax,0xfff
c0102721:	c1 e8 0c             	shr    eax,0xc
c0102724:	5d                   	pop    ebp
c0102725:	c3                   	ret    

c0102726 <virt_allocate_unbacked_krnl_region>:
c0102726:	55                   	push   ebp
c0102727:	89 e5                	mov    ebp,esp
c0102729:	53                   	push   ebx
c010272a:	83 ec 10             	sub    esp,0x10
c010272d:	68 00 1a 11 c0       	push   0xc0111a00
c0102732:	e8 46 0c 00 00       	call   c010337d <spinlock_acquire>
c0102737:	8b 1d 08 d0 10 c0    	mov    ebx,DWORD PTR ds:0xc010d008
c010273d:	83 c4 10             	add    esp,0x10
c0102740:	81 fb ff ff 7f ff    	cmp    ebx,0xff7fffff
c0102746:	76 0d                	jbe    c0102755 <virt_allocate_unbacked_krnl_region+0x2f>
c0102748:	83 ec 0c             	sub    esp,0xc
c010274b:	68 d2 96 10 c0       	push   0xc01096d2
c0102750:	e8 1f 23 00 00       	call   c0104a74 <panic>
c0102755:	8b 45 08             	mov    eax,DWORD PTR [ebp+0x8]
c0102758:	8d 90 ff 0f 00 00    	lea    edx,[eax+0xfff]
c010275e:	81 e2 00 f0 ff ff    	and    edx,0xfffff000
c0102764:	01 da                	add    edx,ebx
c0102766:	89 15 08 d0 10 c0    	mov    DWORD PTR ds:0xc010d008,edx
c010276c:	83 ec 0c             	sub    esp,0xc
c010276f:	68 00 1a 11 c0       	push   0xc0111a00
c0102774:	e8 09 0c 00 00       	call   c0103382 <spinlock_release>
c0102779:	89 d8                	mov    eax,ebx
c010277b:	8b 5d fc             	mov    ebx,DWORD PTR [ebp-0x4]
c010277e:	c9                   	leave  
c010277f:	c3                   	ret    

c0102780 <virt_deallocate_unbacked_krnl_region>:
c0102780:	c3                   	ret    

c0102781 <virt_allocate_backed_pages>:
c0102781:	55                   	push   ebp
c0102782:	89 e5                	mov    ebp,esp
c0102784:	57                   	push   edi
c0102785:	56                   	push   esi
c0102786:	53                   	push   ebx
c0102787:	83 ec 28             	sub    esp,0x28
c010278a:	8b 45 08             	mov    eax,DWORD PTR [ebp+0x8]
c010278d:	c1 e0 0c             	shl    eax,0xc
c0102790:	50                   	push   eax
c0102791:	e8 90 ff ff ff       	call   c0102726 <virt_allocate_unbacked_krnl_region>
c0102796:	89 c6                	mov    esi,eax
c0102798:	83 c4 10             	add    esp,0x10
c010279b:	89 c3                	mov    ebx,eax
c010279d:	31 ff                	xor    edi,edi
c010279f:	3b 7d 08             	cmp    edi,DWORD PTR [ebp+0x8]
c01027a2:	74 3c                	je     c01027e0 <virt_allocate_backed_pages+0x5f>
c01027a4:	e8 b4 f9 ff ff       	call   c010215d <phys_allocate_page>
c01027a9:	89 45 e4             	mov    DWORD PTR [ebp-0x1c],eax
c01027ac:	e8 75 fc ff ff       	call   c0102426 <vas_get_current_vas>
c01027b1:	ff 75 0c             	push   DWORD PTR [ebp+0xc]
c01027b4:	53                   	push   ebx
c01027b5:	8b 55 e4             	mov    edx,DWORD PTR [ebp-0x1c]
c01027b8:	52                   	push   edx
c01027b9:	50                   	push   eax
c01027ba:	e8 49 fd ff ff       	call   c0102508 <vas_map>
c01027bf:	83 c4 10             	add    esp,0x10
c01027c2:	89 da                	mov    edx,ebx
c01027c4:	31 c0                	xor    eax,eax
c01027c6:	c7 02 ef be ad de    	mov    DWORD PTR [edx],0xdeadbeef
c01027cc:	40                   	inc    eax
c01027cd:	83 c2 04             	add    edx,0x4
c01027d0:	3d 00 04 00 00       	cmp    eax,0x400
c01027d5:	75 ef                	jne    c01027c6 <virt_allocate_backed_pages+0x45>
c01027d7:	47                   	inc    edi
c01027d8:	81 c3 00 10 00 00    	add    ebx,0x1000
c01027de:	eb bf                	jmp    c010279f <virt_allocate_backed_pages+0x1e>
c01027e0:	e8 4a fc ff ff       	call   c010242f <vas_flush_tlb>
c01027e5:	89 f0                	mov    eax,esi
c01027e7:	8d 65 f4             	lea    esp,[ebp-0xc]
c01027ea:	5b                   	pop    ebx
c01027eb:	5e                   	pop    esi
c01027ec:	5f                   	pop    edi
c01027ed:	5d                   	pop    ebp
c01027ee:	c3                   	ret    

c01027ef <virt_free_backed_pages>:
c01027ef:	55                   	push   ebp
c01027f0:	89 e5                	mov    ebp,esp
c01027f2:	56                   	push   esi
c01027f3:	53                   	push   ebx
c01027f4:	31 db                	xor    ebx,ebx
c01027f6:	3b 5d 0c             	cmp    ebx,DWORD PTR [ebp+0xc]
c01027f9:	74 2c                	je     c0102827 <virt_free_backed_pages+0x38>
c01027fb:	89 de                	mov    esi,ebx
c01027fd:	c1 e6 0c             	shl    esi,0xc
c0102800:	03 75 08             	add    esi,DWORD PTR [ebp+0x8]
c0102803:	e8 1e fc ff ff       	call   c0102426 <vas_get_current_vas>
c0102808:	52                   	push   edx
c0102809:	52                   	push   edx
c010280a:	56                   	push   esi
c010280b:	50                   	push   eax
c010280c:	e8 c1 fd ff ff       	call   c01025d2 <vas_unmap>
c0102811:	83 c4 10             	add    esp,0x10
c0102814:	85 c0                	test   eax,eax
c0102816:	74 0c                	je     c0102824 <virt_free_backed_pages+0x35>
c0102818:	83 ec 0c             	sub    esp,0xc
c010281b:	50                   	push   eax
c010281c:	e8 c9 f9 ff ff       	call   c01021ea <phys_free_page>
c0102821:	83 c4 10             	add    esp,0x10
c0102824:	43                   	inc    ebx
c0102825:	eb cf                	jmp    c01027f6 <virt_free_backed_pages+0x7>
c0102827:	8d 65 f8             	lea    esp,[ebp-0x8]
c010282a:	5b                   	pop    ebx
c010282b:	5e                   	pop    esi
c010282c:	5d                   	pop    ebp
c010282d:	c3                   	ret    

c010282e <sys_close>:
c010282e:	55                   	push   ebp
c010282f:	89 e5                	mov    ebp,esp
c0102831:	83 ec 1c             	sub    esp,0x1c
c0102834:	8d 45 f4             	lea    eax,[ebp-0xc]
c0102837:	50                   	push   eax
c0102838:	8b 45 08             	mov    eax,DWORD PTR [ebp+0x8]
c010283b:	ff 30                	push   DWORD PTR [eax]
c010283d:	a1 e8 1a 11 c0       	mov    eax,ds:0xc0111ae8
c0102842:	8b 00                	mov    eax,DWORD PTR [eax]
c0102844:	8b 40 4c             	mov    eax,DWORD PTR [eax+0x4c]
c0102847:	ff 70 0c             	push   DWORD PTR [eax+0xc]
c010284a:	e8 ea 06 00 00       	call   c0102f39 <fildesc_convert_to_vnode>
c010284f:	89 c2                	mov    edx,eax
c0102851:	83 c4 10             	add    esp,0x10
c0102854:	b8 14 00 00 00       	mov    eax,0x14
c0102859:	85 d2                	test   edx,edx
c010285b:	74 0c                	je     c0102869 <sys_close+0x3b>
c010285d:	83 ec 0c             	sub    esp,0xc
c0102860:	52                   	push   edx
c0102861:	e8 7f 2e 00 00       	call   c01056e5 <vfs_close>
c0102866:	83 c4 10             	add    esp,0x10
c0102869:	c9                   	leave  
c010286a:	c3                   	ret    

c010286b <sys_lseek>:
c010286b:	55                   	push   ebp
c010286c:	89 e5                	mov    ebp,esp
c010286e:	57                   	push   edi
c010286f:	56                   	push   esi
c0102870:	53                   	push   ebx
c0102871:	81 ec a4 00 00 00    	sub    esp,0xa4
c0102877:	8b 7d 08             	mov    edi,DWORD PTR [ebp+0x8]
c010287a:	8d 5d 8c             	lea    ebx,[ebp-0x74]
c010287d:	6a 01                	push   0x1
c010287f:	6a 01                	push   0x1
c0102881:	6a 00                	push   0x0
c0102883:	6a 04                	push   0x4
c0102885:	ff 77 04             	push   DWORD PTR [edi+0x4]
c0102888:	53                   	push   ebx
c0102889:	e8 b5 25 00 00       	call   c0104e43 <uio_construct>
c010288e:	58                   	pop    eax
c010288f:	5a                   	pop    edx
c0102890:	6a 04                	push   0x4
c0102892:	53                   	push   ebx
c0102893:	8d 45 84             	lea    eax,[ebp-0x7c]
c0102896:	50                   	push   eax
c0102897:	e8 62 24 00 00       	call   c0104cfe <uio_move>
c010289c:	83 c4 20             	add    esp,0x20
c010289f:	85 c0                	test   eax,eax
c01028a1:	0f 85 b6 00 00 00    	jne    c010295d <sys_lseek+0xf2>
c01028a7:	50                   	push   eax
c01028a8:	8d 45 88             	lea    eax,[ebp-0x78]
c01028ab:	50                   	push   eax
c01028ac:	ff 37                	push   DWORD PTR [edi]
c01028ae:	a1 e8 1a 11 c0       	mov    eax,ds:0xc0111ae8
c01028b3:	8b 00                	mov    eax,DWORD PTR [eax]
c01028b5:	8b 40 4c             	mov    eax,DWORD PTR [eax+0x4c]
c01028b8:	ff 70 0c             	push   DWORD PTR [eax+0xc]
c01028bb:	e8 79 06 00 00       	call   c0102f39 <fildesc_convert_to_vnode>
c01028c0:	89 c1                	mov    ecx,eax
c01028c2:	83 c4 10             	add    esp,0x10
c01028c5:	b8 07 00 00 00       	mov    eax,0x7
c01028ca:	85 c9                	test   ecx,ecx
c01028cc:	0f 84 8b 00 00 00    	je     c010295d <sys_lseek+0xf2>
c01028d2:	8b 57 08             	mov    edx,DWORD PTR [edi+0x8]
c01028d5:	83 fa 01             	cmp    edx,0x1
c01028d8:	75 05                	jne    c01028df <sys_lseek+0x74>
c01028da:	8b 45 88             	mov    eax,DWORD PTR [ebp-0x78]
c01028dd:	eb 1b                	jmp    c01028fa <sys_lseek+0x8f>
c01028df:	83 fa 02             	cmp    edx,0x2
c01028e2:	75 1b                	jne    c01028ff <sys_lseek+0x94>
c01028e4:	50                   	push   eax
c01028e5:	50                   	push   eax
c01028e6:	8d 45 a0             	lea    eax,[ebp-0x60]
c01028e9:	50                   	push   eax
c01028ea:	51                   	push   ecx
c01028eb:	e8 3c 32 00 00       	call   c0105b2c <vnode_op_stat>
c01028f0:	83 c4 10             	add    esp,0x10
c01028f3:	85 c0                	test   eax,eax
c01028f5:	75 66                	jne    c010295d <sys_lseek+0xf2>
c01028f7:	8b 45 c4             	mov    eax,DWORD PTR [ebp-0x3c]
c01028fa:	01 45 84             	add    DWORD PTR [ebp-0x7c],eax
c01028fd:	eb 09                	jmp    c0102908 <sys_lseek+0x9d>
c01028ff:	b8 07 00 00 00       	mov    eax,0x7
c0102904:	85 d2                	test   edx,edx
c0102906:	75 55                	jne    c010295d <sys_lseek+0xf2>
c0102908:	56                   	push   esi
c0102909:	ff 75 84             	push   DWORD PTR [ebp-0x7c]
c010290c:	ff 37                	push   DWORD PTR [edi]
c010290e:	a1 e8 1a 11 c0       	mov    eax,ds:0xc0111ae8
c0102913:	8b 00                	mov    eax,DWORD PTR [eax]
c0102915:	8b 40 4c             	mov    eax,DWORD PTR [eax+0x4c]
c0102918:	ff 70 0c             	push   DWORD PTR [eax+0xc]
c010291b:	e8 d6 05 00 00       	call   c0102ef6 <filedesc_seek>
c0102920:	83 c4 10             	add    esp,0x10
c0102923:	85 c0                	test   eax,eax
c0102925:	75 36                	jne    c010295d <sys_lseek+0xf2>
c0102927:	8d b5 58 ff ff ff    	lea    esi,[ebp-0xa8]
c010292d:	50                   	push   eax
c010292e:	50                   	push   eax
c010292f:	6a 01                	push   0x1
c0102931:	6a 00                	push   0x0
c0102933:	6a 00                	push   0x0
c0102935:	6a 04                	push   0x4
c0102937:	ff 77 04             	push   DWORD PTR [edi+0x4]
c010293a:	56                   	push   esi
c010293b:	e8 03 25 00 00       	call   c0104e43 <uio_construct>
c0102940:	b9 05 00 00 00       	mov    ecx,0x5
c0102945:	89 df                	mov    edi,ebx
c0102947:	f3 a5                	rep movs DWORD PTR es:[edi],DWORD PTR ds:[esi]
c0102949:	5a                   	pop    edx
c010294a:	59                   	pop    ecx
c010294b:	6a 04                	push   0x4
c010294d:	8d 45 8c             	lea    eax,[ebp-0x74]
c0102950:	50                   	push   eax
c0102951:	8d 45 84             	lea    eax,[ebp-0x7c]
c0102954:	50                   	push   eax
c0102955:	e8 a4 23 00 00       	call   c0104cfe <uio_move>
c010295a:	83 c4 20             	add    esp,0x20
c010295d:	8d 65 f4             	lea    esp,[ebp-0xc]
c0102960:	5b                   	pop    ebx
c0102961:	5e                   	pop    esi
c0102962:	5f                   	pop    edi
c0102963:	5d                   	pop    ebp
c0102964:	c3                   	ret    

c0102965 <sys_open>:
c0102965:	55                   	push   ebp
c0102966:	89 e5                	mov    ebp,esp
c0102968:	56                   	push   esi
c0102969:	53                   	push   ebx
c010296a:	81 ec 24 02 00 00    	sub    esp,0x224
c0102970:	8b 5d 08             	mov    ebx,DWORD PTR [ebp+0x8]
c0102973:	68 ff 01 00 00       	push   0x1ff
c0102978:	ff 33                	push   DWORD PTR [ebx]
c010297a:	8d b5 f8 fd ff ff    	lea    esi,[ebp-0x208]
c0102980:	56                   	push   esi
c0102981:	e8 61 24 00 00       	call   c0104de7 <uio_move_string_from_usermode>
c0102986:	83 c4 10             	add    esp,0x10
c0102989:	85 c0                	test   eax,eax
c010298b:	75 67                	jne    c01029f4 <sys_open+0x8f>
c010298d:	8d 85 dc fd ff ff    	lea    eax,[ebp-0x224]
c0102993:	50                   	push   eax
c0102994:	ff 73 08             	push   DWORD PTR [ebx+0x8]
c0102997:	ff 73 04             	push   DWORD PTR [ebx+0x4]
c010299a:	56                   	push   esi
c010299b:	e8 67 2d 00 00       	call   c0105707 <vfs_open>
c01029a0:	83 c4 10             	add    esp,0x10
c01029a3:	85 c0                	test   eax,eax
c01029a5:	75 4d                	jne    c01029f4 <sys_open+0x8f>
c01029a7:	50                   	push   eax
c01029a8:	50                   	push   eax
c01029a9:	ff b5 dc fd ff ff    	push   DWORD PTR [ebp-0x224]
c01029af:	a1 e8 1a 11 c0       	mov    eax,ds:0xc0111ae8
c01029b4:	8b 00                	mov    eax,DWORD PTR [eax]
c01029b6:	8b 40 4c             	mov    eax,DWORD PTR [eax+0x4c]
c01029b9:	ff 70 0c             	push   DWORD PTR [eax+0xc]
c01029bc:	e8 c6 05 00 00       	call   c0102f87 <filedesc_table_register_vnode>
c01029c1:	89 85 e0 fd ff ff    	mov    DWORD PTR [ebp-0x220],eax
c01029c7:	8d b5 e4 fd ff ff    	lea    esi,[ebp-0x21c]
c01029cd:	5a                   	pop    edx
c01029ce:	59                   	pop    ecx
c01029cf:	6a 01                	push   0x1
c01029d1:	6a 00                	push   0x0
c01029d3:	6a 00                	push   0x0
c01029d5:	6a 04                	push   0x4
c01029d7:	ff 73 0c             	push   DWORD PTR [ebx+0xc]
c01029da:	56                   	push   esi
c01029db:	e8 63 24 00 00       	call   c0104e43 <uio_construct>
c01029e0:	5b                   	pop    ebx
c01029e1:	58                   	pop    eax
c01029e2:	6a 04                	push   0x4
c01029e4:	56                   	push   esi
c01029e5:	8d 85 e0 fd ff ff    	lea    eax,[ebp-0x220]
c01029eb:	50                   	push   eax
c01029ec:	e8 0d 23 00 00       	call   c0104cfe <uio_move>
c01029f1:	83 c4 20             	add    esp,0x20
c01029f4:	8d 65 f8             	lea    esp,[ebp-0x8]
c01029f7:	5b                   	pop    ebx
c01029f8:	5e                   	pop    esi
c01029f9:	5d                   	pop    ebp
c01029fa:	c3                   	ret    

c01029fb <sys_read>:
c01029fb:	55                   	push   ebp
c01029fc:	89 e5                	mov    ebp,esp
c01029fe:	57                   	push   edi
c01029ff:	56                   	push   esi
c0102a00:	53                   	push   ebx
c0102a01:	83 ec 50             	sub    esp,0x50
c0102a04:	8b 5d 08             	mov    ebx,DWORD PTR [ebp+0x8]
c0102a07:	8d 45 cc             	lea    eax,[ebp-0x34]
c0102a0a:	50                   	push   eax
c0102a0b:	ff 73 08             	push   DWORD PTR [ebx+0x8]
c0102a0e:	a1 e8 1a 11 c0       	mov    eax,ds:0xc0111ae8
c0102a13:	8b 00                	mov    eax,DWORD PTR [eax]
c0102a15:	8b 40 4c             	mov    eax,DWORD PTR [eax+0x4c]
c0102a18:	ff 70 0c             	push   DWORD PTR [eax+0xc]
c0102a1b:	e8 19 05 00 00       	call   c0102f39 <fildesc_convert_to_vnode>
c0102a20:	89 c6                	mov    esi,eax
c0102a22:	83 c4 10             	add    esp,0x10
c0102a25:	b8 14 00 00 00       	mov    eax,0x14
c0102a2a:	85 f6                	test   esi,esi
c0102a2c:	74 66                	je     c0102a94 <sys_read+0x99>
c0102a2e:	57                   	push   edi
c0102a2f:	57                   	push   edi
c0102a30:	6a 01                	push   0x1
c0102a32:	6a 00                	push   0x0
c0102a34:	6a 00                	push   0x0
c0102a36:	ff 73 04             	push   DWORD PTR [ebx+0x4]
c0102a39:	ff 33                	push   DWORD PTR [ebx]
c0102a3b:	8d 45 d4             	lea    eax,[ebp-0x2c]
c0102a3e:	50                   	push   eax
c0102a3f:	e8 ff 23 00 00       	call   c0104e43 <uio_construct>
c0102a44:	8d 45 d4             	lea    eax,[ebp-0x2c]
c0102a47:	89 04 24             	mov    DWORD PTR [esp],eax
c0102a4a:	56                   	push   esi
c0102a4b:	e8 fb 2d 00 00       	call   c010584b <vfs_write>
c0102a50:	83 c4 20             	add    esp,0x20
c0102a53:	85 c0                	test   eax,eax
c0102a55:	75 3d                	jne    c0102a94 <sys_read+0x99>
c0102a57:	8d 75 a8             	lea    esi,[ebp-0x58]
c0102a5a:	50                   	push   eax
c0102a5b:	50                   	push   eax
c0102a5c:	6a 01                	push   0x1
c0102a5e:	6a 00                	push   0x0
c0102a60:	6a 00                	push   0x0
c0102a62:	6a 04                	push   0x4
c0102a64:	ff 73 0c             	push   DWORD PTR [ebx+0xc]
c0102a67:	56                   	push   esi
c0102a68:	e8 d6 23 00 00       	call   c0104e43 <uio_construct>
c0102a6d:	b9 05 00 00 00       	mov    ecx,0x5
c0102a72:	8d 7d d4             	lea    edi,[ebp-0x2c]
c0102a75:	f3 a5                	rep movs DWORD PTR es:[edi],DWORD PTR ds:[esi]
c0102a77:	8b 43 04             	mov    eax,DWORD PTR [ebx+0x4]
c0102a7a:	2b 45 d8             	sub    eax,DWORD PTR [ebp-0x28]
c0102a7d:	89 45 d0             	mov    DWORD PTR [ebp-0x30],eax
c0102a80:	5a                   	pop    edx
c0102a81:	59                   	pop    ecx
c0102a82:	6a 04                	push   0x4
c0102a84:	8d 45 d4             	lea    eax,[ebp-0x2c]
c0102a87:	50                   	push   eax
c0102a88:	8d 45 d0             	lea    eax,[ebp-0x30]
c0102a8b:	50                   	push   eax
c0102a8c:	e8 6d 22 00 00       	call   c0104cfe <uio_move>
c0102a91:	83 c4 20             	add    esp,0x20
c0102a94:	8d 65 f4             	lea    esp,[ebp-0xc]
c0102a97:	5b                   	pop    ebx
c0102a98:	5e                   	pop    esi
c0102a99:	5f                   	pop    edi
c0102a9a:	5d                   	pop    ebp
c0102a9b:	c3                   	ret    

c0102a9c <sys_sbrk>:
c0102a9c:	55                   	push   ebp
c0102a9d:	89 e5                	mov    ebp,esp
c0102a9f:	57                   	push   edi
c0102aa0:	56                   	push   esi
c0102aa1:	53                   	push   ebx
c0102aa2:	83 ec 5c             	sub    esp,0x5c
c0102aa5:	8b 7d 08             	mov    edi,DWORD PTR [ebp+0x8]
c0102aa8:	8b 5f 04             	mov    ebx,DWORD PTR [edi+0x4]
c0102aab:	b8 01 00 00 00       	mov    eax,0x1
c0102ab0:	85 db                	test   ebx,ebx
c0102ab2:	0f 85 c9 00 00 00    	jne    c0102b81 <sys_sbrk+0xe5>
c0102ab8:	51                   	push   ecx
c0102ab9:	51                   	push   ecx
c0102aba:	6a 01                	push   0x1
c0102abc:	6a 00                	push   0x0
c0102abe:	6a 00                	push   0x0
c0102ac0:	6a 04                	push   0x4
c0102ac2:	ff 77 08             	push   DWORD PTR [edi+0x8]
c0102ac5:	8d 45 d4             	lea    eax,[ebp-0x2c]
c0102ac8:	50                   	push   eax
c0102ac9:	e8 75 23 00 00       	call   c0104e43 <uio_construct>
c0102ace:	a1 e8 1a 11 c0       	mov    eax,ds:0xc0111ae8
c0102ad3:	8b 00                	mov    eax,DWORD PTR [eax]
c0102ad5:	8b 40 4c             	mov    eax,DWORD PTR [eax+0x4c]
c0102ad8:	8b 40 58             	mov    eax,DWORD PTR [eax+0x58]
c0102adb:	89 45 cc             	mov    DWORD PTR [ebp-0x34],eax
c0102ade:	5e                   	pop    esi
c0102adf:	58                   	pop    eax
c0102ae0:	6a 04                	push   0x4
c0102ae2:	8d 45 d4             	lea    eax,[ebp-0x2c]
c0102ae5:	50                   	push   eax
c0102ae6:	8d 45 cc             	lea    eax,[ebp-0x34]
c0102ae9:	50                   	push   eax
c0102aea:	e8 0f 22 00 00       	call   c0104cfe <uio_move>
c0102aef:	83 c4 20             	add    esp,0x20
c0102af2:	85 c0                	test   eax,eax
c0102af4:	0f 85 87 00 00 00    	jne    c0102b81 <sys_sbrk+0xe5>
c0102afa:	83 ec 0c             	sub    esp,0xc
c0102afd:	ff 37                	push   DWORD PTR [edi]
c0102aff:	e8 12 fc ff ff       	call   c0102716 <virt_bytes_to_pages>
c0102b04:	89 45 a4             	mov    DWORD PTR [ebp-0x5c],eax
c0102b07:	83 c4 10             	add    esp,0x10
c0102b0a:	a1 e8 1a 11 c0       	mov    eax,ds:0xc0111ae8
c0102b0f:	8b 00                	mov    eax,DWORD PTR [eax]
c0102b11:	8b 40 4c             	mov    eax,DWORD PTR [eax+0x4c]
c0102b14:	8b 70 58             	mov    esi,DWORD PTR [eax+0x58]
c0102b17:	3b 5d a4             	cmp    ebx,DWORD PTR [ebp-0x5c]
c0102b1a:	74 19                	je     c0102b35 <sys_sbrk+0x99>
c0102b1c:	89 d8                	mov    eax,ebx
c0102b1e:	c1 e0 0c             	shl    eax,0xc
c0102b21:	01 c6                	add    esi,eax
c0102b23:	e8 fe f8 ff ff       	call   c0102426 <vas_get_current_vas>
c0102b28:	52                   	push   edx
c0102b29:	6a 45                	push   0x45
c0102b2b:	56                   	push   esi
c0102b2c:	50                   	push   eax
c0102b2d:	e8 1e fa ff ff       	call   c0102550 <vas_reflag>
c0102b32:	43                   	inc    ebx
c0102b33:	eb d2                	jmp    c0102b07 <sys_sbrk+0x6b>
c0102b35:	c1 e3 0c             	shl    ebx,0xc
c0102b38:	01 f3                	add    ebx,esi
c0102b3a:	89 58 58             	mov    DWORD PTR [eax+0x58],ebx
c0102b3d:	8d 75 a8             	lea    esi,[ebp-0x58]
c0102b40:	50                   	push   eax
c0102b41:	50                   	push   eax
c0102b42:	6a 01                	push   0x1
c0102b44:	6a 00                	push   0x0
c0102b46:	6a 00                	push   0x0
c0102b48:	6a 04                	push   0x4
c0102b4a:	ff 77 0c             	push   DWORD PTR [edi+0xc]
c0102b4d:	56                   	push   esi
c0102b4e:	e8 f0 22 00 00       	call   c0104e43 <uio_construct>
c0102b53:	b9 05 00 00 00       	mov    ecx,0x5
c0102b58:	8d 7d d4             	lea    edi,[ebp-0x2c]
c0102b5b:	f3 a5                	rep movs DWORD PTR es:[edi],DWORD PTR ds:[esi]
c0102b5d:	a1 e8 1a 11 c0       	mov    eax,ds:0xc0111ae8
c0102b62:	8b 00                	mov    eax,DWORD PTR [eax]
c0102b64:	8b 40 4c             	mov    eax,DWORD PTR [eax+0x4c]
c0102b67:	8b 40 58             	mov    eax,DWORD PTR [eax+0x58]
c0102b6a:	89 45 d0             	mov    DWORD PTR [ebp-0x30],eax
c0102b6d:	5a                   	pop    edx
c0102b6e:	59                   	pop    ecx
c0102b6f:	6a 04                	push   0x4
c0102b71:	8d 45 d4             	lea    eax,[ebp-0x2c]
c0102b74:	50                   	push   eax
c0102b75:	8d 45 d0             	lea    eax,[ebp-0x30]
c0102b78:	50                   	push   eax
c0102b79:	e8 80 21 00 00       	call   c0104cfe <uio_move>
c0102b7e:	83 c4 20             	add    esp,0x20
c0102b81:	8d 65 f4             	lea    esp,[ebp-0xc]
c0102b84:	5b                   	pop    ebx
c0102b85:	5e                   	pop    esi
c0102b86:	5f                   	pop    edi
c0102b87:	5d                   	pop    ebp
c0102b88:	c3                   	ret    

c0102b89 <syscall_init>:
c0102b89:	55                   	push   ebp
c0102b8a:	89 e5                	mov    ebp,esp
c0102b8c:	83 ec 0c             	sub    esp,0xc
c0102b8f:	6a 40                	push   0x40
c0102b91:	6a 00                	push   0x0
c0102b93:	68 60 1a 11 c0       	push   0xc0111a60
c0102b98:	e8 be e6 ff ff       	call   c010125b <memset>
c0102b9d:	c7 05 60 1a 11 c0 d9 2c 10 c0 	mov    DWORD PTR ds:0xc0111a60,0xc0102cd9
c0102ba7:	c7 05 64 1a 11 c0 18 2c 10 c0 	mov    DWORD PTR ds:0xc0111a64,0xc0102c18
c0102bb1:	c7 05 68 1a 11 c0 65 29 10 c0 	mov    DWORD PTR ds:0xc0111a68,0xc0102965
c0102bbb:	c7 05 6c 1a 11 c0 fb 29 10 c0 	mov    DWORD PTR ds:0xc0111a6c,0xc01029fb
c0102bc5:	c7 05 70 1a 11 c0 30 2c 10 c0 	mov    DWORD PTR ds:0xc0111a70,0xc0102c30
c0102bcf:	c7 05 74 1a 11 c0 2e 28 10 c0 	mov    DWORD PTR ds:0xc0111a74,0xc010282e
c0102bd9:	c7 05 78 1a 11 c0 6b 28 10 c0 	mov    DWORD PTR ds:0xc0111a78,0xc010286b
c0102be3:	c7 05 7c 1a 11 c0 9c 2a 10 c0 	mov    DWORD PTR ds:0xc0111a7c,0xc0102a9c
c0102bed:	83 c4 10             	add    esp,0x10
c0102bf0:	c9                   	leave  
c0102bf1:	c3                   	ret    

c0102bf2 <syscall_perform>:
c0102bf2:	55                   	push   ebp
c0102bf3:	89 e5                	mov    ebp,esp
c0102bf5:	8b 45 08             	mov    eax,DWORD PTR [ebp+0x8]
c0102bf8:	8b 55 0c             	mov    edx,DWORD PTR [ebp+0xc]
c0102bfb:	83 f8 0f             	cmp    eax,0xf
c0102bfe:	77 11                	ja     c0102c11 <syscall_perform+0x1f>
c0102c00:	8b 04 85 60 1a 11 c0 	mov    eax,DWORD PTR [eax*4-0x3feee5a0]
c0102c07:	85 c0                	test   eax,eax
c0102c09:	74 06                	je     c0102c11 <syscall_perform+0x1f>
c0102c0b:	89 55 08             	mov    DWORD PTR [ebp+0x8],edx
c0102c0e:	5d                   	pop    ebp
c0102c0f:	ff e0                	jmp    eax
c0102c11:	b8 01 00 00 00       	mov    eax,0x1
c0102c16:	5d                   	pop    ebp
c0102c17:	c3                   	ret    

c0102c18 <sys_terminate>:
c0102c18:	55                   	push   ebp
c0102c19:	89 e5                	mov    ebp,esp
c0102c1b:	83 ec 08             	sub    esp,0x8
c0102c1e:	e8 5a 11 00 00       	call   c0103d7d <thread_terminate>
c0102c23:	83 ec 0c             	sub    esp,0xc
c0102c26:	68 ec 96 10 c0       	push   0xc01096ec
c0102c2b:	e8 44 1e 00 00       	call   c0104a74 <panic>

c0102c30 <sys_write>:
c0102c30:	55                   	push   ebp
c0102c31:	89 e5                	mov    ebp,esp
c0102c33:	57                   	push   edi
c0102c34:	56                   	push   esi
c0102c35:	53                   	push   ebx
c0102c36:	83 ec 50             	sub    esp,0x50
c0102c39:	8b 5d 08             	mov    ebx,DWORD PTR [ebp+0x8]
c0102c3c:	c7 45 cc 00 00 00 00 	mov    DWORD PTR [ebp-0x34],0x0
c0102c43:	8d 45 cc             	lea    eax,[ebp-0x34]
c0102c46:	50                   	push   eax
c0102c47:	ff 73 08             	push   DWORD PTR [ebx+0x8]
c0102c4a:	a1 e8 1a 11 c0       	mov    eax,ds:0xc0111ae8
c0102c4f:	8b 00                	mov    eax,DWORD PTR [eax]
c0102c51:	8b 40 4c             	mov    eax,DWORD PTR [eax+0x4c]
c0102c54:	ff 70 0c             	push   DWORD PTR [eax+0xc]
c0102c57:	e8 dd 02 00 00       	call   c0102f39 <fildesc_convert_to_vnode>
c0102c5c:	89 c6                	mov    esi,eax
c0102c5e:	83 c4 10             	add    esp,0x10
c0102c61:	b8 14 00 00 00       	mov    eax,0x14
c0102c66:	85 f6                	test   esi,esi
c0102c68:	74 67                	je     c0102cd1 <sys_write+0xa1>
c0102c6a:	57                   	push   edi
c0102c6b:	57                   	push   edi
c0102c6c:	6a 01                	push   0x1
c0102c6e:	6a 01                	push   0x1
c0102c70:	ff 75 cc             	push   DWORD PTR [ebp-0x34]
c0102c73:	ff 73 04             	push   DWORD PTR [ebx+0x4]
c0102c76:	ff 33                	push   DWORD PTR [ebx]
c0102c78:	8d 45 d4             	lea    eax,[ebp-0x2c]
c0102c7b:	50                   	push   eax
c0102c7c:	e8 c2 21 00 00       	call   c0104e43 <uio_construct>
c0102c81:	8d 45 d4             	lea    eax,[ebp-0x2c]
c0102c84:	89 04 24             	mov    DWORD PTR [esp],eax
c0102c87:	56                   	push   esi
c0102c88:	e8 be 2b 00 00       	call   c010584b <vfs_write>
c0102c8d:	83 c4 20             	add    esp,0x20
c0102c90:	85 c0                	test   eax,eax
c0102c92:	75 3d                	jne    c0102cd1 <sys_write+0xa1>
c0102c94:	8d 75 a8             	lea    esi,[ebp-0x58]
c0102c97:	50                   	push   eax
c0102c98:	50                   	push   eax
c0102c99:	6a 01                	push   0x1
c0102c9b:	6a 00                	push   0x0
c0102c9d:	6a 00                	push   0x0
c0102c9f:	6a 04                	push   0x4
c0102ca1:	ff 73 0c             	push   DWORD PTR [ebx+0xc]
c0102ca4:	56                   	push   esi
c0102ca5:	e8 99 21 00 00       	call   c0104e43 <uio_construct>
c0102caa:	b9 05 00 00 00       	mov    ecx,0x5
c0102caf:	8d 7d d4             	lea    edi,[ebp-0x2c]
c0102cb2:	f3 a5                	rep movs DWORD PTR es:[edi],DWORD PTR ds:[esi]
c0102cb4:	8b 43 04             	mov    eax,DWORD PTR [ebx+0x4]
c0102cb7:	2b 45 d8             	sub    eax,DWORD PTR [ebp-0x28]
c0102cba:	89 45 d0             	mov    DWORD PTR [ebp-0x30],eax
c0102cbd:	5a                   	pop    edx
c0102cbe:	59                   	pop    ecx
c0102cbf:	6a 04                	push   0x4
c0102cc1:	8d 45 d4             	lea    eax,[ebp-0x2c]
c0102cc4:	50                   	push   eax
c0102cc5:	8d 45 d0             	lea    eax,[ebp-0x30]
c0102cc8:	50                   	push   eax
c0102cc9:	e8 30 20 00 00       	call   c0104cfe <uio_move>
c0102cce:	83 c4 20             	add    esp,0x20
c0102cd1:	8d 65 f4             	lea    esp,[ebp-0xc]
c0102cd4:	5b                   	pop    ebx
c0102cd5:	5e                   	pop    esi
c0102cd6:	5f                   	pop    edi
c0102cd7:	5d                   	pop    ebp
c0102cd8:	c3                   	ret    

c0102cd9 <sys_yield>:
c0102cd9:	55                   	push   ebp
c0102cda:	89 e5                	mov    ebp,esp
c0102cdc:	83 ec 08             	sub    esp,0x8
c0102cdf:	e8 73 10 00 00       	call   c0103d57 <thread_yield>
c0102ce4:	31 c0                	xor    eax,eax
c0102ce6:	c9                   	leave  
c0102ce7:	c3                   	ret    

c0102ce8 <test_run>:
c0102ce8:	55                   	push   ebp
c0102ce9:	89 e5                	mov    ebp,esp
c0102ceb:	56                   	push   esi
c0102cec:	53                   	push   ebx
c0102ced:	8b 75 08             	mov    esi,DWORD PTR [ebp+0x8]
c0102cf0:	31 db                	xor    ebx,ebx
c0102cf2:	50                   	push   eax
c0102cf3:	50                   	push   eax
c0102cf4:	56                   	push   esi
c0102cf5:	ff 34 dd 10 d0 10 c0 	push   DWORD PTR [ebx*8-0x3fef2ff0]
c0102cfc:	e8 ac e5 ff ff       	call   c01012ad <strcmp>
c0102d01:	83 c4 10             	add    esp,0x10
c0102d04:	85 c0                	test   eax,eax
c0102d06:	75 0f                	jne    c0102d17 <test_run+0x2f>
c0102d08:	8b 04 dd 0c d0 10 c0 	mov    eax,DWORD PTR [ebx*8-0x3fef2ff4]
c0102d0f:	8d 65 f8             	lea    esp,[ebp-0x8]
c0102d12:	5b                   	pop    ebx
c0102d13:	5e                   	pop    esi
c0102d14:	5d                   	pop    ebp
c0102d15:	ff e0                	jmp    eax
c0102d17:	43                   	inc    ebx
c0102d18:	83 fb 03             	cmp    ebx,0x3
c0102d1b:	75 d5                	jne    c0102cf2 <test_run+0xa>
c0102d1d:	c7 45 08 11 97 10 c0 	mov    DWORD PTR [ebp+0x8],0xc0109711
c0102d24:	8d 65 f8             	lea    esp,[ebp-0x8]
c0102d27:	5b                   	pop    ebx
c0102d28:	5e                   	pop    esi
c0102d29:	5d                   	pop    ebp
c0102d2a:	e9 8b 1b 00 00       	jmp    c01048ba <kprintf>

c0102d2f <cleaner_thread_task>:
c0102d2f:	55                   	push   ebp
c0102d30:	89 e5                	mov    ebp,esp
c0102d32:	56                   	push   esi
c0102d33:	53                   	push   ebx
c0102d34:	83 ec 0c             	sub    esp,0xc
c0102d37:	68 a0 1a 11 c0       	push   0xc0111aa0
c0102d3c:	e8 3c 06 00 00       	call   c010337d <spinlock_acquire>
c0102d41:	c7 04 24 03 00 00 00 	mov    DWORD PTR [esp],0x3
c0102d48:	e8 88 0e 00 00       	call   c0103bd5 <thread_block>
c0102d4d:	83 c4 10             	add    esp,0x10
c0102d50:	8b 1d a0 56 11 c0    	mov    ebx,DWORD PTR ds:0xc01156a0
c0102d56:	85 db                	test   ebx,ebx
c0102d58:	74 6e                	je     c0102dc8 <cleaner_thread_task+0x99>
c0102d5a:	8b 43 24             	mov    eax,DWORD PTR [ebx+0x24]
c0102d5d:	a3 a0 56 11 c0       	mov    ds:0xc01156a0,eax
c0102d62:	83 ec 0c             	sub    esp,0xc
c0102d65:	ff 73 48             	push   DWORD PTR [ebx+0x48]
c0102d68:	e8 a9 f9 ff ff       	call   c0102716 <virt_bytes_to_pages>
c0102d6d:	5e                   	pop    esi
c0102d6e:	5a                   	pop    edx
c0102d6f:	50                   	push   eax
c0102d70:	8b 43 04             	mov    eax,DWORD PTR [ebx+0x4]
c0102d73:	2b 43 48             	sub    eax,DWORD PTR [ebx+0x48]
c0102d76:	50                   	push   eax
c0102d77:	e8 73 fa ff ff       	call   c01027ef <virt_free_backed_pages>
c0102d7c:	8b 73 4c             	mov    esi,DWORD PTR [ebx+0x4c]
c0102d7f:	83 c4 10             	add    esp,0x10
c0102d82:	85 f6                	test   esi,esi
c0102d84:	74 37                	je     c0102dbd <cleaner_thread_task+0x8e>
c0102d86:	52                   	push   edx
c0102d87:	52                   	push   edx
c0102d88:	53                   	push   ebx
c0102d89:	ff 36                	push   DWORD PTR [esi]
c0102d8b:	e8 ff 18 00 00       	call   c010468f <adt_list_remove_element>
c0102d90:	59                   	pop    ecx
c0102d91:	ff 36                	push   DWORD PTR [esi]
c0102d93:	e8 5b 18 00 00       	call   c01045f3 <adt_list_size>
c0102d98:	83 c4 10             	add    esp,0x10
c0102d9b:	85 c0                	test   eax,eax
c0102d9d:	75 1e                	jne    c0102dbd <cleaner_thread_task+0x8e>
c0102d9f:	83 ec 0c             	sub    esp,0xc
c0102da2:	ff 76 08             	push   DWORD PTR [esi+0x8]
c0102da5:	e8 8a f6 ff ff       	call   c0102434 <vas_destroy>
c0102daa:	58                   	pop    eax
c0102dab:	ff 36                	push   DWORD PTR [esi]
c0102dad:	e8 63 17 00 00       	call   c0104515 <adt_list_destroy>
c0102db2:	89 34 24             	mov    DWORD PTR [esp],esi
c0102db5:	e8 25 f2 ff ff       	call   c0101fdf <free>
c0102dba:	83 c4 10             	add    esp,0x10
c0102dbd:	83 ec 0c             	sub    esp,0xc
c0102dc0:	53                   	push   ebx
c0102dc1:	e8 19 f2 ff ff       	call   c0101fdf <free>
c0102dc6:	eb 85                	jmp    c0102d4d <cleaner_thread_task+0x1e>
c0102dc8:	83 ec 0c             	sub    esp,0xc
c0102dcb:	68 a0 1a 11 c0       	push   0xc0111aa0
c0102dd0:	e8 ad 05 00 00       	call   c0103382 <spinlock_release>
c0102dd5:	83 c4 10             	add    esp,0x10
c0102dd8:	e9 57 ff ff ff       	jmp    c0102d34 <cleaner_thread_task+0x5>

c0102ddd <cleaner_thread_init>:
c0102ddd:	55                   	push   ebp
c0102dde:	89 e5                	mov    ebp,esp
c0102de0:	83 ec 08             	sub    esp,0x8
c0102de3:	e8 3e f6 ff ff       	call   c0102426 <vas_get_current_vas>
c0102de8:	52                   	push   edx
c0102de9:	50                   	push   eax
c0102dea:	6a 00                	push   0x0
c0102dec:	68 2f 2d 10 c0       	push   0xc0102d2f
c0102df1:	e8 b0 0b 00 00       	call   c01039a6 <thread_create>
c0102df6:	a3 3c 56 11 c0       	mov    ds:0xc011563c,eax
c0102dfb:	83 c4 10             	add    esp,0x10
c0102dfe:	c9                   	leave  
c0102dff:	c3                   	ret    

c0102e00 <cleaner_thread_awaken>:
c0102e00:	a1 3c 56 11 c0       	mov    eax,ds:0xc011563c
c0102e05:	83 78 14 03          	cmp    DWORD PTR [eax+0x14],0x3
c0102e09:	75 11                	jne    c0102e1c <cleaner_thread_awaken+0x1c>
c0102e0b:	55                   	push   ebp
c0102e0c:	89 e5                	mov    ebp,esp
c0102e0e:	83 ec 14             	sub    esp,0x14
c0102e11:	50                   	push   eax
c0102e12:	e8 d4 0d 00 00       	call   c0103beb <thread_unblock>
c0102e17:	83 c4 10             	add    esp,0x10
c0102e1a:	c9                   	leave  
c0102e1b:	c3                   	ret    
c0102e1c:	c3                   	ret    

c0102e1d <filedes_table_create>:
c0102e1d:	55                   	push   ebp
c0102e1e:	89 e5                	mov    ebp,esp
c0102e20:	53                   	push   ebx
c0102e21:	83 ec 10             	sub    esp,0x10
c0102e24:	6a 58                	push   0x58
c0102e26:	e8 98 f0 ff ff       	call   c0101ec3 <malloc>
c0102e2b:	89 c3                	mov    ebx,eax
c0102e2d:	58                   	pop    eax
c0102e2e:	5a                   	pop    edx
c0102e2f:	68 34 97 10 c0       	push   0xc0109734
c0102e34:	8d 43 08             	lea    eax,[ebx+0x8]
c0102e37:	50                   	push   eax
c0102e38:	e8 0f 05 00 00       	call   c010334c <spinlock_init>
c0102e3d:	c7 03 00 00 00 00    	mov    DWORD PTR [ebx],0x0
c0102e43:	c7 43 04 10 00 00 00 	mov    DWORD PTR [ebx+0x4],0x10
c0102e4a:	c7 04 24 40 00 00 00 	mov    DWORD PTR [esp],0x40
c0102e51:	e8 6d f0 ff ff       	call   c0101ec3 <malloc>
c0102e56:	89 43 50             	mov    DWORD PTR [ebx+0x50],eax
c0102e59:	8b 43 04             	mov    eax,DWORD PTR [ebx+0x4]
c0102e5c:	c1 e0 02             	shl    eax,0x2
c0102e5f:	89 04 24             	mov    DWORD PTR [esp],eax
c0102e62:	e8 5c f0 ff ff       	call   c0101ec3 <malloc>
c0102e67:	89 43 54             	mov    DWORD PTR [ebx+0x54],eax
c0102e6a:	89 d8                	mov    eax,ebx
c0102e6c:	8b 5d fc             	mov    ebx,DWORD PTR [ebp-0x4]
c0102e6f:	c9                   	leave  
c0102e70:	c3                   	ret    

c0102e71 <filedes_table_copy>:
c0102e71:	55                   	push   ebp
c0102e72:	89 e5                	mov    ebp,esp
c0102e74:	57                   	push   edi
c0102e75:	56                   	push   esi
c0102e76:	53                   	push   ebx
c0102e77:	83 ec 18             	sub    esp,0x18
c0102e7a:	8b 5d 08             	mov    ebx,DWORD PTR [ebp+0x8]
c0102e7d:	6a 58                	push   0x58
c0102e7f:	e8 3f f0 ff ff       	call   c0101ec3 <malloc>
c0102e84:	89 c6                	mov    esi,eax
c0102e86:	8d 7b 08             	lea    edi,[ebx+0x8]
c0102e89:	89 3c 24             	mov    DWORD PTR [esp],edi
c0102e8c:	e8 ec 04 00 00       	call   c010337d <spinlock_acquire>
c0102e91:	8b 03                	mov    eax,DWORD PTR [ebx]
c0102e93:	89 06                	mov    DWORD PTR [esi],eax
c0102e95:	8b 43 04             	mov    eax,DWORD PTR [ebx+0x4]
c0102e98:	89 46 04             	mov    DWORD PTR [esi+0x4],eax
c0102e9b:	c1 e0 02             	shl    eax,0x2
c0102e9e:	89 04 24             	mov    DWORD PTR [esp],eax
c0102ea1:	e8 1d f0 ff ff       	call   c0101ec3 <malloc>
c0102ea6:	89 46 50             	mov    DWORD PTR [esi+0x50],eax
c0102ea9:	8b 43 04             	mov    eax,DWORD PTR [ebx+0x4]
c0102eac:	c1 e0 02             	shl    eax,0x2
c0102eaf:	89 04 24             	mov    DWORD PTR [esp],eax
c0102eb2:	e8 0c f0 ff ff       	call   c0101ec3 <malloc>
c0102eb7:	89 46 54             	mov    DWORD PTR [esi+0x54],eax
c0102eba:	83 c4 0c             	add    esp,0xc
c0102ebd:	8b 43 04             	mov    eax,DWORD PTR [ebx+0x4]
c0102ec0:	c1 e0 02             	shl    eax,0x2
c0102ec3:	50                   	push   eax
c0102ec4:	ff 73 50             	push   DWORD PTR [ebx+0x50]
c0102ec7:	ff 76 50             	push   DWORD PTR [esi+0x50]
c0102eca:	e8 47 e3 ff ff       	call   c0101216 <memcpy>
c0102ecf:	83 c4 0c             	add    esp,0xc
c0102ed2:	8b 43 04             	mov    eax,DWORD PTR [ebx+0x4]
c0102ed5:	c1 e0 02             	shl    eax,0x2
c0102ed8:	50                   	push   eax
c0102ed9:	ff 73 54             	push   DWORD PTR [ebx+0x54]
c0102edc:	ff 76 54             	push   DWORD PTR [esi+0x54]
c0102edf:	e8 32 e3 ff ff       	call   c0101216 <memcpy>
c0102ee4:	89 3c 24             	mov    DWORD PTR [esp],edi
c0102ee7:	e8 96 04 00 00       	call   c0103382 <spinlock_release>
c0102eec:	89 f0                	mov    eax,esi
c0102eee:	8d 65 f4             	lea    esp,[ebp-0xc]
c0102ef1:	5b                   	pop    ebx
c0102ef2:	5e                   	pop    esi
c0102ef3:	5f                   	pop    edi
c0102ef4:	5d                   	pop    ebp
c0102ef5:	c3                   	ret    

c0102ef6 <filedesc_seek>:
c0102ef6:	55                   	push   ebp
c0102ef7:	89 e5                	mov    ebp,esp
c0102ef9:	57                   	push   edi
c0102efa:	56                   	push   esi
c0102efb:	53                   	push   ebx
c0102efc:	83 ec 18             	sub    esp,0x18
c0102eff:	8b 5d 08             	mov    ebx,DWORD PTR [ebp+0x8]
c0102f02:	8b 75 0c             	mov    esi,DWORD PTR [ebp+0xc]
c0102f05:	8d 7b 08             	lea    edi,[ebx+0x8]
c0102f08:	57                   	push   edi
c0102f09:	e8 6f 04 00 00       	call   c010337d <spinlock_acquire>
c0102f0e:	83 c4 10             	add    esp,0x10
c0102f11:	b8 07 00 00 00       	mov    eax,0x7
c0102f16:	39 33                	cmp    DWORD PTR [ebx],esi
c0102f18:	7e 17                	jle    c0102f31 <filedesc_seek+0x3b>
c0102f1a:	8b 43 54             	mov    eax,DWORD PTR [ebx+0x54]
c0102f1d:	8b 55 10             	mov    edx,DWORD PTR [ebp+0x10]
c0102f20:	89 14 b0             	mov    DWORD PTR [eax+esi*4],edx
c0102f23:	83 ec 0c             	sub    esp,0xc
c0102f26:	57                   	push   edi
c0102f27:	e8 56 04 00 00       	call   c0103382 <spinlock_release>
c0102f2c:	83 c4 10             	add    esp,0x10
c0102f2f:	31 c0                	xor    eax,eax
c0102f31:	8d 65 f4             	lea    esp,[ebp-0xc]
c0102f34:	5b                   	pop    ebx
c0102f35:	5e                   	pop    esi
c0102f36:	5f                   	pop    edi
c0102f37:	5d                   	pop    ebp
c0102f38:	c3                   	ret    

c0102f39 <fildesc_convert_to_vnode>:
c0102f39:	55                   	push   ebp
c0102f3a:	89 e5                	mov    ebp,esp
c0102f3c:	57                   	push   edi
c0102f3d:	56                   	push   esi
c0102f3e:	53                   	push   ebx
c0102f3f:	83 ec 28             	sub    esp,0x28
c0102f42:	8b 5d 08             	mov    ebx,DWORD PTR [ebp+0x8]
c0102f45:	8b 75 0c             	mov    esi,DWORD PTR [ebp+0xc]
c0102f48:	8d 43 08             	lea    eax,[ebx+0x8]
c0102f4b:	50                   	push   eax
c0102f4c:	89 45 e4             	mov    DWORD PTR [ebp-0x1c],eax
c0102f4f:	e8 29 04 00 00       	call   c010337d <spinlock_acquire>
c0102f54:	83 c4 10             	add    esp,0x10
c0102f57:	31 ff                	xor    edi,edi
c0102f59:	39 33                	cmp    DWORD PTR [ebx],esi
c0102f5b:	7e 20                	jle    c0102f7d <fildesc_convert_to_vnode+0x44>
c0102f5d:	8b 53 50             	mov    edx,DWORD PTR [ebx+0x50]
c0102f60:	8b 3c b2             	mov    edi,DWORD PTR [edx+esi*4]
c0102f63:	8b 53 54             	mov    edx,DWORD PTR [ebx+0x54]
c0102f66:	8b 0c b2             	mov    ecx,DWORD PTR [edx+esi*4]
c0102f69:	8b 55 10             	mov    edx,DWORD PTR [ebp+0x10]
c0102f6c:	89 0a                	mov    DWORD PTR [edx],ecx
c0102f6e:	83 ec 0c             	sub    esp,0xc
c0102f71:	8b 45 e4             	mov    eax,DWORD PTR [ebp-0x1c]
c0102f74:	50                   	push   eax
c0102f75:	e8 08 04 00 00       	call   c0103382 <spinlock_release>
c0102f7a:	83 c4 10             	add    esp,0x10
c0102f7d:	89 f8                	mov    eax,edi
c0102f7f:	8d 65 f4             	lea    esp,[ebp-0xc]
c0102f82:	5b                   	pop    ebx
c0102f83:	5e                   	pop    esi
c0102f84:	5f                   	pop    edi
c0102f85:	5d                   	pop    ebp
c0102f86:	c3                   	ret    

c0102f87 <filedesc_table_register_vnode>:
c0102f87:	55                   	push   ebp
c0102f88:	89 e5                	mov    ebp,esp
c0102f8a:	57                   	push   edi
c0102f8b:	56                   	push   esi
c0102f8c:	53                   	push   ebx
c0102f8d:	83 ec 28             	sub    esp,0x28
c0102f90:	8b 75 08             	mov    esi,DWORD PTR [ebp+0x8]
c0102f93:	8d 46 08             	lea    eax,[esi+0x8]
c0102f96:	89 45 e4             	mov    DWORD PTR [ebp-0x1c],eax
c0102f99:	50                   	push   eax
c0102f9a:	e8 de 03 00 00       	call   c010337d <spinlock_acquire>
c0102f9f:	8b 1e                	mov    ebx,DWORD PTR [esi]
c0102fa1:	8d 43 01             	lea    eax,[ebx+0x1]
c0102fa4:	89 06                	mov    DWORD PTR [esi],eax
c0102fa6:	8b 46 50             	mov    eax,DWORD PTR [esi+0x50]
c0102fa9:	8b 55 0c             	mov    edx,DWORD PTR [ebp+0xc]
c0102fac:	89 14 98             	mov    DWORD PTR [eax+ebx*4],edx
c0102faf:	8b 46 54             	mov    eax,DWORD PTR [esi+0x54]
c0102fb2:	c7 04 98 00 00 00 00 	mov    DWORD PTR [eax+ebx*4],0x0
c0102fb9:	8b 46 04             	mov    eax,DWORD PTR [esi+0x4]
c0102fbc:	83 c4 10             	add    esp,0x10
c0102fbf:	39 06                	cmp    DWORD PTR [esi],eax
c0102fc1:	7c 68                	jl     c010302b <filedesc_table_register_vnode+0xa4>
c0102fc3:	83 ec 0c             	sub    esp,0xc
c0102fc6:	c1 e0 03             	shl    eax,0x3
c0102fc9:	50                   	push   eax
c0102fca:	e8 f4 ee ff ff       	call   c0101ec3 <malloc>
c0102fcf:	89 c7                	mov    edi,eax
c0102fd1:	8b 46 04             	mov    eax,DWORD PTR [esi+0x4]
c0102fd4:	c1 e0 03             	shl    eax,0x3
c0102fd7:	89 04 24             	mov    DWORD PTR [esp],eax
c0102fda:	e8 e4 ee ff ff       	call   c0101ec3 <malloc>
c0102fdf:	89 45 e0             	mov    DWORD PTR [ebp-0x20],eax
c0102fe2:	83 c4 0c             	add    esp,0xc
c0102fe5:	8b 46 04             	mov    eax,DWORD PTR [esi+0x4]
c0102fe8:	c1 e0 02             	shl    eax,0x2
c0102feb:	50                   	push   eax
c0102fec:	ff 76 50             	push   DWORD PTR [esi+0x50]
c0102fef:	57                   	push   edi
c0102ff0:	e8 21 e2 ff ff       	call   c0101216 <memcpy>
c0102ff5:	83 c4 0c             	add    esp,0xc
c0102ff8:	8b 46 04             	mov    eax,DWORD PTR [esi+0x4]
c0102ffb:	c1 e0 02             	shl    eax,0x2
c0102ffe:	50                   	push   eax
c0102fff:	ff 76 54             	push   DWORD PTR [esi+0x54]
c0103002:	ff 75 e0             	push   DWORD PTR [ebp-0x20]
c0103005:	e8 0c e2 ff ff       	call   c0101216 <memcpy>
c010300a:	58                   	pop    eax
c010300b:	ff 76 50             	push   DWORD PTR [esi+0x50]
c010300e:	e8 cc ef ff ff       	call   c0101fdf <free>
c0103013:	5a                   	pop    edx
c0103014:	ff 76 54             	push   DWORD PTR [esi+0x54]
c0103017:	e8 c3 ef ff ff       	call   c0101fdf <free>
c010301c:	89 7e 50             	mov    DWORD PTR [esi+0x50],edi
c010301f:	8b 45 e0             	mov    eax,DWORD PTR [ebp-0x20]
c0103022:	89 46 54             	mov    DWORD PTR [esi+0x54],eax
c0103025:	d1 66 04             	shl    DWORD PTR [esi+0x4],1
c0103028:	83 c4 10             	add    esp,0x10
c010302b:	83 ec 0c             	sub    esp,0xc
c010302e:	ff 75 e4             	push   DWORD PTR [ebp-0x1c]
c0103031:	e8 4c 03 00 00       	call   c0103382 <spinlock_release>
c0103036:	89 d8                	mov    eax,ebx
c0103038:	8d 65 f4             	lea    esp,[ebp-0xc]
c010303b:	5b                   	pop    ebx
c010303c:	5e                   	pop    esi
c010303d:	5f                   	pop    edi
c010303e:	5d                   	pop    ebp
c010303f:	c3                   	ret    

c0103040 <idle_function>:
c0103040:	55                   	push   ebp
c0103041:	89 e5                	mov    ebp,esp
c0103043:	83 ec 14             	sub    esp,0x14
c0103046:	68 ff 00 00 00       	push   0xff
c010304b:	e8 00 10 00 00       	call   c0104050 <thread_set_priority>
c0103050:	83 c4 10             	add    esp,0x10
c0103053:	e8 8f 52 00 00       	call   c01082e7 <arch_stall_processor>
c0103058:	eb f9                	jmp    c0103053 <idle_function+0x13>

c010305a <idle_thread_init>:
c010305a:	55                   	push   ebp
c010305b:	89 e5                	mov    ebp,esp
c010305d:	83 ec 0c             	sub    esp,0xc
c0103060:	a1 e8 1a 11 c0       	mov    eax,ds:0xc0111ae8
c0103065:	ff 70 04             	push   DWORD PTR [eax+0x4]
c0103068:	6a 00                	push   0x0
c010306a:	68 40 30 10 c0       	push   0xc0103040
c010306f:	e8 32 09 00 00       	call   c01039a6 <thread_create>
c0103074:	83 c4 10             	add    esp,0x10
c0103077:	c9                   	leave  
c0103078:	c3                   	ret    

c0103079 <load_program>:
c0103079:	55                   	push   ebp
c010307a:	89 e5                	mov    ebp,esp
c010307c:	56                   	push   esi
c010307d:	53                   	push   ebx
c010307e:	83 ec 60             	sub    esp,0x60
c0103081:	8d 45 98             	lea    eax,[ebp-0x68]
c0103084:	50                   	push   eax
c0103085:	6a 00                	push   0x0
c0103087:	6a 20                	push   0x20
c0103089:	ff 75 08             	push   DWORD PTR [ebp+0x8]
c010308c:	e8 76 26 00 00       	call   c0105707 <vfs_open>
c0103091:	89 c3                	mov    ebx,eax
c0103093:	83 c4 10             	add    esp,0x10
c0103096:	85 c0                	test   eax,eax
c0103098:	0f 85 8b 00 00 00    	jne    c0103129 <load_program+0xb0>
c010309e:	53                   	push   ebx
c010309f:	53                   	push   ebx
c01030a0:	8d 45 b0             	lea    eax,[ebp-0x50]
c01030a3:	50                   	push   eax
c01030a4:	ff 75 98             	push   DWORD PTR [ebp-0x68]
c01030a7:	e8 80 2a 00 00       	call   c0105b2c <vnode_op_stat>
c01030ac:	89 c3                	mov    ebx,eax
c01030ae:	83 c4 10             	add    esp,0x10
c01030b1:	85 c0                	test   eax,eax
c01030b3:	74 05                	je     c01030ba <load_program+0x41>
c01030b5:	83 ec 0c             	sub    esp,0xc
c01030b8:	eb 64                	jmp    c010311e <load_program+0xa5>
c01030ba:	83 ec 0c             	sub    esp,0xc
c01030bd:	ff 75 d4             	push   DWORD PTR [ebp-0x2c]
c01030c0:	e8 fe ed ff ff       	call   c0101ec3 <malloc>
c01030c5:	89 c6                	mov    esi,eax
c01030c7:	83 c4 0c             	add    esp,0xc
c01030ca:	ff 75 d4             	push   DWORD PTR [ebp-0x2c]
c01030cd:	6a 00                	push   0x0
c01030cf:	50                   	push   eax
c01030d0:	e8 86 e1 ff ff       	call   c010125b <memset>
c01030d5:	8d 5d 9c             	lea    ebx,[ebp-0x64]
c01030d8:	5a                   	pop    edx
c01030d9:	59                   	pop    ecx
c01030da:	6a 00                	push   0x0
c01030dc:	6a 00                	push   0x0
c01030de:	6a 00                	push   0x0
c01030e0:	ff 75 d4             	push   DWORD PTR [ebp-0x2c]
c01030e3:	56                   	push   esi
c01030e4:	53                   	push   ebx
c01030e5:	e8 59 1d 00 00       	call   c0104e43 <uio_construct>
c01030ea:	89 1c 24             	mov    DWORD PTR [esp],ebx
c01030ed:	ff 75 98             	push   DWORD PTR [ebp-0x68]
c01030f0:	e8 82 27 00 00       	call   c0105877 <vfs_read>
c01030f5:	89 c3                	mov    ebx,eax
c01030f7:	83 c4 20             	add    esp,0x20
c01030fa:	85 c0                	test   eax,eax
c01030fc:	74 06                	je     c0103104 <load_program+0x8b>
c01030fe:	83 ec 0c             	sub    esp,0xc
c0103101:	56                   	push   esi
c0103102:	eb 14                	jmp    c0103118 <load_program+0x9f>
c0103104:	ff 75 10             	push   DWORD PTR [ebp+0x10]
c0103107:	ff 75 0c             	push   DWORD PTR [ebp+0xc]
c010310a:	ff 75 d4             	push   DWORD PTR [ebp-0x2c]
c010310d:	56                   	push   esi
c010310e:	e8 5e 40 00 00       	call   c0107171 <arch_exec>
c0103113:	89 c3                	mov    ebx,eax
c0103115:	89 34 24             	mov    DWORD PTR [esp],esi
c0103118:	e8 c2 ee ff ff       	call   c0101fdf <free>
c010311d:	58                   	pop    eax
c010311e:	ff 75 98             	push   DWORD PTR [ebp-0x68]
c0103121:	e8 bf 25 00 00       	call   c01056e5 <vfs_close>
c0103126:	83 c4 10             	add    esp,0x10
c0103129:	89 d8                	mov    eax,ebx
c010312b:	8d 65 f8             	lea    esp,[ebp-0x8]
c010312e:	5b                   	pop    ebx
c010312f:	5e                   	pop    esi
c0103130:	5d                   	pop    ebp
c0103131:	c3                   	ret    

c0103132 <load_driver>:
c0103132:	55                   	push   ebp
c0103133:	89 e5                	mov    ebp,esp
c0103135:	57                   	push   edi
c0103136:	56                   	push   esi
c0103137:	53                   	push   ebx
c0103138:	83 ec 6c             	sub    esp,0x6c
c010313b:	8b 7d 0c             	mov    edi,DWORD PTR [ebp+0xc]
c010313e:	8d 45 88             	lea    eax,[ebp-0x78]
c0103141:	50                   	push   eax
c0103142:	6a 00                	push   0x0
c0103144:	6a 20                	push   0x20
c0103146:	ff 75 08             	push   DWORD PTR [ebp+0x8]
c0103149:	e8 b9 25 00 00       	call   c0105707 <vfs_open>
c010314e:	89 c3                	mov    ebx,eax
c0103150:	83 c4 10             	add    esp,0x10
c0103153:	85 c0                	test   eax,eax
c0103155:	0f 85 c2 00 00 00    	jne    c010321d <load_driver+0xeb>
c010315b:	51                   	push   ecx
c010315c:	51                   	push   ecx
c010315d:	8d 45 a0             	lea    eax,[ebp-0x60]
c0103160:	50                   	push   eax
c0103161:	ff 75 88             	push   DWORD PTR [ebp-0x78]
c0103164:	e8 c3 29 00 00       	call   c0105b2c <vnode_op_stat>
c0103169:	89 c3                	mov    ebx,eax
c010316b:	83 c4 10             	add    esp,0x10
c010316e:	85 c0                	test   eax,eax
c0103170:	74 05                	je     c0103177 <load_driver+0x45>
c0103172:	83 ec 0c             	sub    esp,0xc
c0103175:	eb 4e                	jmp    c01031c5 <load_driver+0x93>
c0103177:	83 ec 0c             	sub    esp,0xc
c010317a:	ff 75 c4             	push   DWORD PTR [ebp-0x3c]
c010317d:	e8 41 ed ff ff       	call   c0101ec3 <malloc>
c0103182:	89 c6                	mov    esi,eax
c0103184:	83 c4 0c             	add    esp,0xc
c0103187:	ff 75 c4             	push   DWORD PTR [ebp-0x3c]
c010318a:	6a 00                	push   0x0
c010318c:	50                   	push   eax
c010318d:	e8 c9 e0 ff ff       	call   c010125b <memset>
c0103192:	8d 5d 8c             	lea    ebx,[ebp-0x74]
c0103195:	58                   	pop    eax
c0103196:	5a                   	pop    edx
c0103197:	6a 00                	push   0x0
c0103199:	6a 00                	push   0x0
c010319b:	6a 00                	push   0x0
c010319d:	ff 75 c4             	push   DWORD PTR [ebp-0x3c]
c01031a0:	56                   	push   esi
c01031a1:	53                   	push   ebx
c01031a2:	e8 9c 1c 00 00       	call   c0104e43 <uio_construct>
c01031a7:	89 1c 24             	mov    DWORD PTR [esp],ebx
c01031aa:	ff 75 88             	push   DWORD PTR [ebp-0x78]
c01031ad:	e8 c5 26 00 00       	call   c0105877 <vfs_read>
c01031b2:	89 c3                	mov    ebx,eax
c01031b4:	83 c4 20             	add    esp,0x20
c01031b7:	85 c0                	test   eax,eax
c01031b9:	74 14                	je     c01031cf <load_driver+0x9d>
c01031bb:	83 ec 0c             	sub    esp,0xc
c01031be:	56                   	push   esi
c01031bf:	e8 1b ee ff ff       	call   c0101fdf <free>
c01031c4:	58                   	pop    eax
c01031c5:	ff 75 88             	push   DWORD PTR [ebp-0x78]
c01031c8:	e8 18 25 00 00       	call   c01056e5 <vfs_close>
c01031cd:	eb 4b                	jmp    c010321a <load_driver+0xe8>
c01031cf:	89 f8                	mov    eax,edi
c01031d1:	84 c0                	test   al,al
c01031d3:	74 05                	je     c01031da <load_driver+0xa8>
c01031d5:	bb 20 00 00 00       	mov    ebx,0x20
c01031da:	83 ec 0c             	sub    esp,0xc
c01031dd:	ff 75 c4             	push   DWORD PTR [ebp-0x3c]
c01031e0:	e8 31 f5 ff ff       	call   c0102716 <virt_bytes_to_pages>
c01031e5:	5a                   	pop    edx
c01031e6:	59                   	pop    ecx
c01031e7:	53                   	push   ebx
c01031e8:	50                   	push   eax
c01031e9:	e8 93 f5 ff ff       	call   c0102781 <virt_allocate_backed_pages>
c01031ee:	83 c4 0c             	add    esp,0xc
c01031f1:	50                   	push   eax
c01031f2:	ff 75 c4             	push   DWORD PTR [ebp-0x3c]
c01031f5:	56                   	push   esi
c01031f6:	e8 fc 3e 00 00       	call   c01070f7 <arch_load_driver>
c01031fb:	89 c3                	mov    ebx,eax
c01031fd:	89 34 24             	mov    DWORD PTR [esp],esi
c0103200:	e8 da ed ff ff       	call   c0101fdf <free>
c0103205:	5e                   	pop    esi
c0103206:	ff 75 88             	push   DWORD PTR [ebp-0x78]
c0103209:	e8 d7 24 00 00       	call   c01056e5 <vfs_close>
c010320e:	5f                   	pop    edi
c010320f:	58                   	pop    eax
c0103210:	6a 00                	push   0x0
c0103212:	53                   	push   ebx
c0103213:	e8 38 3f 00 00       	call   c0107150 <arch_start_driver>
c0103218:	89 c3                	mov    ebx,eax
c010321a:	83 c4 10             	add    esp,0x10
c010321d:	89 d8                	mov    eax,ebx
c010321f:	8d 65 f4             	lea    esp,[ebp-0xc]
c0103222:	5b                   	pop    ebx
c0103223:	5e                   	pop    esi
c0103224:	5f                   	pop    edi
c0103225:	5d                   	pop    ebp
c0103226:	c3                   	ret    

c0103227 <process_create_child>:
c0103227:	55                   	push   ebp
c0103228:	89 e5                	mov    ebp,esp
c010322a:	53                   	push   ebx
c010322b:	83 ec 10             	sub    esp,0x10
c010322e:	6a 5c                	push   0x5c
c0103230:	e8 8e ec ff ff       	call   c0101ec3 <malloc>
c0103235:	89 c3                	mov    ebx,eax
c0103237:	e8 e6 11 00 00       	call   c0104422 <adt_list_create>
c010323c:	89 03                	mov    DWORD PTR [ebx],eax
c010323e:	8b 45 08             	mov    eax,DWORD PTR [ebp+0x8]
c0103241:	89 43 08             	mov    DWORD PTR [ebx+0x8],eax
c0103244:	58                   	pop    eax
c0103245:	ff 75 0c             	push   DWORD PTR [ebp+0xc]
c0103248:	e8 24 fc ff ff       	call   c0102e71 <filedes_table_copy>
c010324d:	89 43 0c             	mov    DWORD PTR [ebx+0xc],eax
c0103250:	c7 04 24 40 56 11 c0 	mov    DWORD PTR [esp],0xc0115640
c0103257:	e8 21 01 00 00       	call   c010337d <spinlock_acquire>
c010325c:	a1 24 d0 10 c0       	mov    eax,ds:0xc010d024
c0103261:	8d 50 01             	lea    edx,[eax+0x1]
c0103264:	89 15 24 d0 10 c0    	mov    DWORD PTR ds:0xc010d024,edx
c010326a:	89 43 04             	mov    DWORD PTR [ebx+0x4],eax
c010326d:	c7 04 24 40 56 11 c0 	mov    DWORD PTR [esp],0xc0115640
c0103274:	e8 09 01 00 00       	call   c0103382 <spinlock_release>
c0103279:	5a                   	pop    edx
c010327a:	59                   	pop    ecx
c010327b:	68 47 97 10 c0       	push   0xc0109747
c0103280:	8d 43 10             	lea    eax,[ebx+0x10]
c0103283:	50                   	push   eax
c0103284:	e8 c3 00 00 00       	call   c010334c <spinlock_init>
c0103289:	89 d8                	mov    eax,ebx
c010328b:	8b 5d fc             	mov    ebx,DWORD PTR [ebp-0x4]
c010328e:	c9                   	leave  
c010328f:	c3                   	ret    

c0103290 <process_create>:
c0103290:	55                   	push   ebp
c0103291:	89 e5                	mov    ebp,esp
c0103293:	53                   	push   ebx
c0103294:	50                   	push   eax
c0103295:	e8 83 fb ff ff       	call   c0102e1d <filedes_table_create>
c010329a:	89 c3                	mov    ebx,eax
c010329c:	e8 4f f1 ff ff       	call   c01023f0 <vas_create>
c01032a1:	52                   	push   edx
c01032a2:	52                   	push   edx
c01032a3:	53                   	push   ebx
c01032a4:	50                   	push   eax
c01032a5:	e8 7d ff ff ff       	call   c0103227 <process_create_child>
c01032aa:	8b 5d fc             	mov    ebx,DWORD PTR [ebp-0x4]
c01032ad:	c9                   	leave  
c01032ae:	c3                   	ret    

c01032af <process_kill>:
c01032af:	b8 01 00 00 00       	mov    eax,0x1
c01032b4:	c3                   	ret    

c01032b5 <process_add_thread>:
c01032b5:	55                   	push   ebp
c01032b6:	89 e5                	mov    ebp,esp
c01032b8:	57                   	push   edi
c01032b9:	56                   	push   esi
c01032ba:	53                   	push   ebx
c01032bb:	83 ec 18             	sub    esp,0x18
c01032be:	8b 5d 08             	mov    ebx,DWORD PTR [ebp+0x8]
c01032c1:	8b 7d 0c             	mov    edi,DWORD PTR [ebp+0xc]
c01032c4:	8d 73 10             	lea    esi,[ebx+0x10]
c01032c7:	56                   	push   esi
c01032c8:	e8 b0 00 00 00       	call   c010337d <spinlock_acquire>
c01032cd:	89 5f 4c             	mov    DWORD PTR [edi+0x4c],ebx
c01032d0:	58                   	pop    eax
c01032d1:	5a                   	pop    edx
c01032d2:	57                   	push   edi
c01032d3:	ff 33                	push   DWORD PTR [ebx]
c01032d5:	e8 b4 11 00 00       	call   c010448e <adt_list_add_back>
c01032da:	83 c4 10             	add    esp,0x10
c01032dd:	89 75 08             	mov    DWORD PTR [ebp+0x8],esi
c01032e0:	8d 65 f4             	lea    esp,[ebp-0xc]
c01032e3:	5b                   	pop    ebx
c01032e4:	5e                   	pop    esi
c01032e5:	5f                   	pop    edi
c01032e6:	5d                   	pop    ebp
c01032e7:	e9 96 00 00 00       	jmp    c0103382 <spinlock_release>

c01032ec <process_create_thread>:
c01032ec:	55                   	push   ebp
c01032ed:	89 e5                	mov    ebp,esp
c01032ef:	53                   	push   ebx
c01032f0:	83 ec 14             	sub    esp,0x14
c01032f3:	8b 5d 08             	mov    ebx,DWORD PTR [ebp+0x8]
c01032f6:	e8 9e 07 00 00       	call   c0103a99 <thread_postpone_switches>
c01032fb:	50                   	push   eax
c01032fc:	ff 73 08             	push   DWORD PTR [ebx+0x8]
c01032ff:	ff 75 10             	push   DWORD PTR [ebp+0x10]
c0103302:	ff 75 0c             	push   DWORD PTR [ebp+0xc]
c0103305:	e8 9c 06 00 00       	call   c01039a6 <thread_create>
c010330a:	5a                   	pop    edx
c010330b:	59                   	pop    ecx
c010330c:	50                   	push   eax
c010330d:	89 45 f4             	mov    DWORD PTR [ebp-0xc],eax
c0103310:	53                   	push   ebx
c0103311:	e8 9f ff ff ff       	call   c01032b5 <process_add_thread>
c0103316:	e8 10 09 00 00       	call   c0103c2b <thread_end_postpone_switches>
c010331b:	8b 45 f4             	mov    eax,DWORD PTR [ebp-0xc]
c010331e:	8b 5d fc             	mov    ebx,DWORD PTR [ebp-0x4]
c0103321:	c9                   	leave  
c0103322:	c3                   	ret    

c0103323 <process_init>:
c0103323:	55                   	push   ebp
c0103324:	89 e5                	mov    ebp,esp
c0103326:	83 ec 10             	sub    esp,0x10
c0103329:	68 54 97 10 c0       	push   0xc0109754
c010332e:	68 40 56 11 c0       	push   0xc0115640
c0103333:	e8 14 00 00 00       	call   c010334c <spinlock_init>
c0103338:	83 c4 10             	add    esp,0x10
c010333b:	c9                   	leave  
c010333c:	c3                   	ret    

c010333d <spinlock_is_held>:
c010333d:	55                   	push   ebp
c010333e:	89 e5                	mov    ebp,esp
c0103340:	8b 45 08             	mov    eax,DWORD PTR [ebp+0x8]
c0103343:	8b 00                	mov    eax,DWORD PTR [eax]
c0103345:	85 c0                	test   eax,eax
c0103347:	0f 95 c0             	setne  al
c010334a:	5d                   	pop    ebp
c010334b:	c3                   	ret    

c010334c <spinlock_init>:
c010334c:	55                   	push   ebp
c010334d:	89 e5                	mov    ebp,esp
c010334f:	53                   	push   ebx
c0103350:	83 ec 08             	sub    esp,0x8
c0103353:	8b 5d 08             	mov    ebx,DWORD PTR [ebp+0x8]
c0103356:	c7 03 00 00 00 00    	mov    DWORD PTR [ebx],0x0
c010335c:	c7 43 04 ff ff ff ff 	mov    DWORD PTR [ebx+0x4],0xffffffff
c0103363:	6a 3f                	push   0x3f
c0103365:	ff 75 0c             	push   DWORD PTR [ebp+0xc]
c0103368:	8d 43 08             	lea    eax,[ebx+0x8]
c010336b:	50                   	push   eax
c010336c:	e8 a0 df ff ff       	call   c0101311 <strncpy>
c0103371:	c6 43 47 00          	mov    BYTE PTR [ebx+0x47],0x0
c0103375:	83 c4 10             	add    esp,0x10
c0103378:	8b 5d fc             	mov    ebx,DWORD PTR [ebp-0x4]
c010337b:	c9                   	leave  
c010337c:	c3                   	ret    

c010337d <spinlock_acquire>:
c010337d:	e9 e2 50 00 00       	jmp    c0108464 <arch_irq_spinlock_acquire>

c0103382 <spinlock_release>:
c0103382:	e9 fc 50 00 00       	jmp    c0108483 <arch_irq_spinlock_release>

c0103387 <spinlock_acquire_if_unlocked>:
c0103387:	55                   	push   ebp
c0103388:	89 e5                	mov    ebp,esp
c010338a:	83 ec 08             	sub    esp,0x8
c010338d:	8b 55 08             	mov    edx,DWORD PTR [ebp+0x8]
c0103390:	8b 0a                	mov    ecx,DWORD PTR [edx]
c0103392:	31 c0                	xor    eax,eax
c0103394:	85 c9                	test   ecx,ecx
c0103396:	75 0e                	jne    c01033a6 <spinlock_acquire_if_unlocked+0x1f>
c0103398:	83 ec 0c             	sub    esp,0xc
c010339b:	52                   	push   edx
c010339c:	e8 c3 50 00 00       	call   c0108464 <arch_irq_spinlock_acquire>
c01033a1:	83 c4 10             	add    esp,0x10
c01033a4:	b0 01                	mov    al,0x1
c01033a6:	c9                   	leave  
c01033a7:	c3                   	ret    

c01033a8 <semaphore_create>:
c01033a8:	55                   	push   ebp
c01033a9:	89 e5                	mov    ebp,esp
c01033ab:	83 ec 14             	sub    esp,0x14
c01033ae:	6a 10                	push   0x10
c01033b0:	e8 0e eb ff ff       	call   c0101ec3 <malloc>
c01033b5:	c7 40 04 00 00 00 00 	mov    DWORD PTR [eax+0x4],0x0
c01033bc:	8b 55 08             	mov    edx,DWORD PTR [ebp+0x8]
c01033bf:	89 10                	mov    DWORD PTR [eax],edx
c01033c1:	c7 40 08 00 00 00 00 	mov    DWORD PTR [eax+0x8],0x0
c01033c8:	c7 40 0c 00 00 00 00 	mov    DWORD PTR [eax+0xc],0x0
c01033cf:	c9                   	leave  
c01033d0:	c3                   	ret    

c01033d1 <semaphore_destory>:
c01033d1:	e9 09 ec ff ff       	jmp    c0101fdf <free>

c01033d6 <semaphore_acquire>:
c01033d6:	55                   	push   ebp
c01033d7:	89 e5                	mov    ebp,esp
c01033d9:	53                   	push   ebx
c01033da:	83 ec 10             	sub    esp,0x10
c01033dd:	8b 5d 08             	mov    ebx,DWORD PTR [ebp+0x8]
c01033e0:	68 a0 1a 11 c0       	push   0xc0111aa0
c01033e5:	e8 93 ff ff ff       	call   c010337d <spinlock_acquire>
c01033ea:	8b 43 04             	mov    eax,DWORD PTR [ebx+0x4]
c01033ed:	83 c4 10             	add    esp,0x10
c01033f0:	3b 03                	cmp    eax,DWORD PTR [ebx]
c01033f2:	7d 06                	jge    c01033fa <semaphore_acquire+0x24>
c01033f4:	40                   	inc    eax
c01033f5:	89 43 04             	mov    DWORD PTR [ebx+0x4],eax
c01033f8:	eb 3d                	jmp    c0103437 <semaphore_acquire+0x61>
c01033fa:	e8 9a 06 00 00       	call   c0103a99 <thread_postpone_switches>
c01033ff:	a1 e8 1a 11 c0       	mov    eax,ds:0xc0111ae8
c0103404:	8b 10                	mov    edx,DWORD PTR [eax]
c0103406:	c7 42 24 00 00 00 00 	mov    DWORD PTR [edx+0x24],0x0
c010340d:	83 7b 08 00          	cmp    DWORD PTR [ebx+0x8],0x0
c0103411:	8b 10                	mov    edx,DWORD PTR [eax]
c0103413:	75 05                	jne    c010341a <semaphore_acquire+0x44>
c0103415:	89 53 08             	mov    DWORD PTR [ebx+0x8],edx
c0103418:	eb 06                	jmp    c0103420 <semaphore_acquire+0x4a>
c010341a:	8b 4b 0c             	mov    ecx,DWORD PTR [ebx+0xc]
c010341d:	89 51 24             	mov    DWORD PTR [ecx+0x24],edx
c0103420:	8b 00                	mov    eax,DWORD PTR [eax]
c0103422:	89 43 0c             	mov    DWORD PTR [ebx+0xc],eax
c0103425:	83 ec 0c             	sub    esp,0xc
c0103428:	6a 04                	push   0x4
c010342a:	e8 a6 07 00 00       	call   c0103bd5 <thread_block>
c010342f:	e8 f7 07 00 00       	call   c0103c2b <thread_end_postpone_switches>
c0103434:	83 c4 10             	add    esp,0x10
c0103437:	c7 45 08 a0 1a 11 c0 	mov    DWORD PTR [ebp+0x8],0xc0111aa0
c010343e:	8b 5d fc             	mov    ebx,DWORD PTR [ebp-0x4]
c0103441:	c9                   	leave  
c0103442:	e9 3b ff ff ff       	jmp    c0103382 <spinlock_release>

c0103447 <semaphore_try_acquire>:
c0103447:	55                   	push   ebp
c0103448:	89 e5                	mov    ebp,esp
c010344a:	53                   	push   ebx
c010344b:	83 ec 10             	sub    esp,0x10
c010344e:	8b 5d 08             	mov    ebx,DWORD PTR [ebp+0x8]
c0103451:	68 a0 1a 11 c0       	push   0xc0111aa0
c0103456:	e8 22 ff ff ff       	call   c010337d <spinlock_acquire>
c010345b:	8b 43 04             	mov    eax,DWORD PTR [ebx+0x4]
c010345e:	83 c4 10             	add    esp,0x10
c0103461:	3b 03                	cmp    eax,DWORD PTR [ebx]
c0103463:	7d 18                	jge    c010347d <semaphore_try_acquire+0x36>
c0103465:	40                   	inc    eax
c0103466:	89 43 04             	mov    DWORD PTR [ebx+0x4],eax
c0103469:	83 ec 0c             	sub    esp,0xc
c010346c:	68 a0 1a 11 c0       	push   0xc0111aa0
c0103471:	e8 0c ff ff ff       	call   c0103382 <spinlock_release>
c0103476:	83 c4 10             	add    esp,0x10
c0103479:	31 c0                	xor    eax,eax
c010347b:	eb 15                	jmp    c0103492 <semaphore_try_acquire+0x4b>
c010347d:	83 ec 0c             	sub    esp,0xc
c0103480:	68 a0 1a 11 c0       	push   0xc0111aa0
c0103485:	e8 f8 fe ff ff       	call   c0103382 <spinlock_release>
c010348a:	83 c4 10             	add    esp,0x10
c010348d:	b8 12 00 00 00       	mov    eax,0x12
c0103492:	8b 5d fc             	mov    ebx,DWORD PTR [ebp-0x4]
c0103495:	c9                   	leave  
c0103496:	c3                   	ret    

c0103497 <semaphore_release>:
c0103497:	55                   	push   ebp
c0103498:	89 e5                	mov    ebp,esp
c010349a:	53                   	push   ebx
c010349b:	83 ec 10             	sub    esp,0x10
c010349e:	8b 5d 08             	mov    ebx,DWORD PTR [ebp+0x8]
c01034a1:	68 a0 1a 11 c0       	push   0xc0111aa0
c01034a6:	e8 d2 fe ff ff       	call   c010337d <spinlock_acquire>
c01034ab:	e8 e9 05 00 00       	call   c0103a99 <thread_postpone_switches>
c01034b0:	8b 43 08             	mov    eax,DWORD PTR [ebx+0x8]
c01034b3:	83 c4 10             	add    esp,0x10
c01034b6:	85 c0                	test   eax,eax
c01034b8:	74 1b                	je     c01034d5 <semaphore_release+0x3e>
c01034ba:	8b 50 24             	mov    edx,DWORD PTR [eax+0x24]
c01034bd:	89 53 08             	mov    DWORD PTR [ebx+0x8],edx
c01034c0:	c7 40 24 00 00 00 00 	mov    DWORD PTR [eax+0x24],0x0
c01034c7:	83 ec 0c             	sub    esp,0xc
c01034ca:	50                   	push   eax
c01034cb:	e8 1b 07 00 00       	call   c0103beb <thread_unblock>
c01034d0:	83 c4 10             	add    esp,0x10
c01034d3:	eb 03                	jmp    c01034d8 <semaphore_release+0x41>
c01034d5:	ff 4b 04             	dec    DWORD PTR [ebx+0x4]
c01034d8:	e8 4e 07 00 00       	call   c0103c2b <thread_end_postpone_switches>
c01034dd:	c7 45 08 a0 1a 11 c0 	mov    DWORD PTR [ebp+0x8],0xc0111aa0
c01034e4:	8b 5d fc             	mov    ebx,DWORD PTR [ebp-0x4]
c01034e7:	c9                   	leave  
c01034e8:	e9 95 fe ff ff       	jmp    c0103382 <spinlock_release>

c01034ed <semaphore_set_count>:
c01034ed:	55                   	push   ebp
c01034ee:	89 e5                	mov    ebp,esp
c01034f0:	56                   	push   esi
c01034f1:	53                   	push   ebx
c01034f2:	8b 5d 08             	mov    ebx,DWORD PTR [ebp+0x8]
c01034f5:	8b 75 0c             	mov    esi,DWORD PTR [ebp+0xc]
c01034f8:	83 ec 0c             	sub    esp,0xc
c01034fb:	68 a0 1a 11 c0       	push   0xc0111aa0
c0103500:	e8 78 fe ff ff       	call   c010337d <spinlock_acquire>
c0103505:	83 c4 10             	add    esp,0x10
c0103508:	83 7b 04 00          	cmp    DWORD PTR [ebx+0x4],0x0
c010350c:	74 0d                	je     c010351b <semaphore_set_count+0x2e>
c010350e:	83 ec 0c             	sub    esp,0xc
c0103511:	68 62 97 10 c0       	push   0xc0109762
c0103516:	e8 59 15 00 00       	call   c0104a74 <panic>
c010351b:	89 73 04             	mov    DWORD PTR [ebx+0x4],esi
c010351e:	c7 45 08 a0 1a 11 c0 	mov    DWORD PTR [ebp+0x8],0xc0111aa0
c0103525:	8d 65 f8             	lea    esp,[ebp-0x8]
c0103528:	5b                   	pop    ebx
c0103529:	5e                   	pop    esi
c010352a:	5d                   	pop    ebp
c010352b:	e9 52 fe ff ff       	jmp    c0103382 <spinlock_release>

c0103530 <rw_lock_create>:
c0103530:	55                   	push   ebp
c0103531:	89 e5                	mov    ebp,esp
c0103533:	53                   	push   ebx
c0103534:	83 ec 10             	sub    esp,0x10
c0103537:	6a 0c                	push   0xc
c0103539:	e8 85 e9 ff ff       	call   c0101ec3 <malloc>
c010353e:	89 c3                	mov    ebx,eax
c0103540:	c7 40 08 00 00 00 00 	mov    DWORD PTR [eax+0x8],0x0
c0103547:	c7 04 24 01 00 00 00 	mov    DWORD PTR [esp],0x1
c010354e:	e8 55 fe ff ff       	call   c01033a8 <semaphore_create>
c0103553:	89 03                	mov    DWORD PTR [ebx],eax
c0103555:	c7 04 24 01 00 00 00 	mov    DWORD PTR [esp],0x1
c010355c:	e8 47 fe ff ff       	call   c01033a8 <semaphore_create>
c0103561:	89 43 04             	mov    DWORD PTR [ebx+0x4],eax
c0103564:	89 d8                	mov    eax,ebx
c0103566:	8b 5d fc             	mov    ebx,DWORD PTR [ebp-0x4]
c0103569:	c9                   	leave  
c010356a:	c3                   	ret    

c010356b <rw_lock_destroy>:
c010356b:	55                   	push   ebp
c010356c:	89 e5                	mov    ebp,esp
c010356e:	53                   	push   ebx
c010356f:	83 ec 10             	sub    esp,0x10
c0103572:	8b 5d 08             	mov    ebx,DWORD PTR [ebp+0x8]
c0103575:	ff 33                	push   DWORD PTR [ebx]
c0103577:	e8 63 ea ff ff       	call   c0101fdf <free>
c010357c:	58                   	pop    eax
c010357d:	ff 73 04             	push   DWORD PTR [ebx+0x4]
c0103580:	e8 5a ea ff ff       	call   c0101fdf <free>
c0103585:	83 c4 10             	add    esp,0x10
c0103588:	89 5d 08             	mov    DWORD PTR [ebp+0x8],ebx
c010358b:	8b 5d fc             	mov    ebx,DWORD PTR [ebp-0x4]
c010358e:	c9                   	leave  
c010358f:	e9 4b ea ff ff       	jmp    c0101fdf <free>

c0103594 <rw_lock_acquire_read>:
c0103594:	55                   	push   ebp
c0103595:	89 e5                	mov    ebp,esp
c0103597:	53                   	push   ebx
c0103598:	83 ec 10             	sub    esp,0x10
c010359b:	8b 5d 08             	mov    ebx,DWORD PTR [ebp+0x8]
c010359e:	ff 73 04             	push   DWORD PTR [ebx+0x4]
c01035a1:	e8 30 fe ff ff       	call   c01033d6 <semaphore_acquire>
c01035a6:	8b 43 08             	mov    eax,DWORD PTR [ebx+0x8]
c01035a9:	40                   	inc    eax
c01035aa:	89 43 08             	mov    DWORD PTR [ebx+0x8],eax
c01035ad:	83 c4 10             	add    esp,0x10
c01035b0:	48                   	dec    eax
c01035b1:	75 0d                	jne    c01035c0 <rw_lock_acquire_read+0x2c>
c01035b3:	83 ec 0c             	sub    esp,0xc
c01035b6:	ff 33                	push   DWORD PTR [ebx]
c01035b8:	e8 19 fe ff ff       	call   c01033d6 <semaphore_acquire>
c01035bd:	83 c4 10             	add    esp,0x10
c01035c0:	8b 43 04             	mov    eax,DWORD PTR [ebx+0x4]
c01035c3:	89 45 08             	mov    DWORD PTR [ebp+0x8],eax
c01035c6:	8b 5d fc             	mov    ebx,DWORD PTR [ebp-0x4]
c01035c9:	c9                   	leave  
c01035ca:	e9 c8 fe ff ff       	jmp    c0103497 <semaphore_release>

c01035cf <rw_lock_release_read>:
c01035cf:	55                   	push   ebp
c01035d0:	89 e5                	mov    ebp,esp
c01035d2:	53                   	push   ebx
c01035d3:	83 ec 10             	sub    esp,0x10
c01035d6:	8b 5d 08             	mov    ebx,DWORD PTR [ebp+0x8]
c01035d9:	ff 73 04             	push   DWORD PTR [ebx+0x4]
c01035dc:	e8 f5 fd ff ff       	call   c01033d6 <semaphore_acquire>
c01035e1:	8b 43 08             	mov    eax,DWORD PTR [ebx+0x8]
c01035e4:	48                   	dec    eax
c01035e5:	89 43 08             	mov    DWORD PTR [ebx+0x8],eax
c01035e8:	83 c4 10             	add    esp,0x10
c01035eb:	85 c0                	test   eax,eax
c01035ed:	75 0d                	jne    c01035fc <rw_lock_release_read+0x2d>
c01035ef:	83 ec 0c             	sub    esp,0xc
c01035f2:	ff 33                	push   DWORD PTR [ebx]
c01035f4:	e8 9e fe ff ff       	call   c0103497 <semaphore_release>
c01035f9:	83 c4 10             	add    esp,0x10
c01035fc:	8b 43 04             	mov    eax,DWORD PTR [ebx+0x4]
c01035ff:	89 45 08             	mov    DWORD PTR [ebp+0x8],eax
c0103602:	8b 5d fc             	mov    ebx,DWORD PTR [ebp-0x4]
c0103605:	c9                   	leave  
c0103606:	e9 8c fe ff ff       	jmp    c0103497 <semaphore_release>

c010360b <rw_lock_acquire_write>:
c010360b:	55                   	push   ebp
c010360c:	89 e5                	mov    ebp,esp
c010360e:	8b 45 08             	mov    eax,DWORD PTR [ebp+0x8]
c0103611:	8b 00                	mov    eax,DWORD PTR [eax]
c0103613:	89 45 08             	mov    DWORD PTR [ebp+0x8],eax
c0103616:	5d                   	pop    ebp
c0103617:	e9 ba fd ff ff       	jmp    c01033d6 <semaphore_acquire>

c010361c <rw_lock_release_write>:
c010361c:	55                   	push   ebp
c010361d:	89 e5                	mov    ebp,esp
c010361f:	8b 45 08             	mov    eax,DWORD PTR [ebp+0x8]
c0103622:	8b 00                	mov    eax,DWORD PTR [eax]
c0103624:	89 45 08             	mov    DWORD PTR [ebp+0x8],eax
c0103627:	5d                   	pop    ebp
c0103628:	e9 6a fe ff ff       	jmp    c0103497 <semaphore_release>

c010362d <thread_add_to_ready_list>:
c010362d:	c7 40 24 00 00 00 00 	mov    DWORD PTR [eax+0x24],0x0
c0103634:	c7 40 14 01 00 00 00 	mov    DWORD PTR [eax+0x14],0x1
c010363b:	8b 0d 74 57 11 c0    	mov    ecx,DWORD PTR ds:0xc0115774
c0103641:	85 c9                	test   ecx,ecx
c0103643:	75 07                	jne    c010364c <thread_add_to_ready_list+0x1f>
c0103645:	a3 74 57 11 c0       	mov    ds:0xc0115774,eax
c010364a:	eb 16                	jmp    c0103662 <thread_add_to_ready_list+0x35>
c010364c:	84 d2                	test   dl,dl
c010364e:	74 09                	je     c0103659 <thread_add_to_ready_list+0x2c>
c0103650:	89 48 24             	mov    DWORD PTR [eax+0x24],ecx
c0103653:	a3 74 57 11 c0       	mov    ds:0xc0115774,eax
c0103658:	c3                   	ret    
c0103659:	8b 15 70 57 11 c0    	mov    edx,DWORD PTR ds:0xc0115770
c010365f:	89 42 24             	mov    DWORD PTR [edx+0x24],eax
c0103662:	a3 70 57 11 c0       	mov    ds:0xc0115770,eax
c0103667:	c3                   	ret    

c0103668 <thread_reset_timeslice>:
c0103668:	55                   	push   ebp
c0103669:	89 e5                	mov    ebp,esp
c010366b:	83 ec 14             	sub    esp,0x14
c010366e:	68 c0 56 11 c0       	push   0xc01156c0
c0103673:	e8 05 fd ff ff       	call   c010337d <spinlock_acquire>
c0103678:	a1 e8 1a 11 c0       	mov    eax,ds:0xc0111ae8
c010367d:	8b 08                	mov    ecx,DWORD PTR [eax]
c010367f:	a1 08 57 11 c0       	mov    eax,ds:0xc0115708
c0103684:	8b 15 0c 57 11 c0    	mov    edx,DWORD PTR ds:0xc011570c
c010368a:	05 40 78 7d 01       	add    eax,0x17d7840
c010368f:	83 d2 00             	adc    edx,0x0
c0103692:	89 41 40             	mov    DWORD PTR [ecx+0x40],eax
c0103695:	89 51 44             	mov    DWORD PTR [ecx+0x44],edx
c0103698:	c7 04 24 c0 56 11 c0 	mov    DWORD PTR [esp],0xc01156c0
c010369f:	e8 de fc ff ff       	call   c0103382 <spinlock_release>
c01036a4:	83 c4 10             	add    esp,0x10
c01036a7:	c9                   	leave  
c01036a8:	c3                   	ret    

c01036a9 <thread_create_kernel_stack>:
c01036a9:	55                   	push   ebp
c01036aa:	89 e5                	mov    ebp,esp
c01036ac:	56                   	push   esi
c01036ad:	53                   	push   ebx
c01036ae:	89 d6                	mov    esi,edx
c01036b0:	83 ec 0c             	sub    esp,0xc
c01036b3:	50                   	push   eax
c01036b4:	e8 5d f0 ff ff       	call   c0102716 <virt_bytes_to_pages>
c01036b9:	89 c3                	mov    ebx,eax
c01036bb:	c7 04 24 00 08 00 00 	mov    DWORD PTR [esp],0x800
c01036c2:	e8 4f f0 ff ff       	call   c0102716 <virt_bytes_to_pages>
c01036c7:	01 c3                	add    ebx,eax
c01036c9:	58                   	pop    eax
c01036ca:	5a                   	pop    edx
c01036cb:	6a 21                	push   0x21
c01036cd:	53                   	push   ebx
c01036ce:	e8 ae f0 ff ff       	call   c0102781 <virt_allocate_backed_pages>
c01036d3:	89 c2                	mov    edx,eax
c01036d5:	c1 e3 0c             	shl    ebx,0xc
c01036d8:	8d 04 03             	lea    eax,[ebx+eax*1]
c01036db:	89 16                	mov    DWORD PTR [esi],edx
c01036dd:	8d 8a 00 08 00 00    	lea    ecx,[edx+0x800]
c01036e3:	83 c4 10             	add    esp,0x10
c01036e6:	c7 02 0d f0 ad 8b    	mov    DWORD PTR [edx],0x8badf00d
c01036ec:	83 c2 04             	add    edx,0x4
c01036ef:	39 ca                	cmp    edx,ecx
c01036f1:	75 f3                	jne    c01036e6 <thread_create_kernel_stack+0x3d>
c01036f3:	8d 65 f8             	lea    esp,[ebp-0x8]
c01036f6:	5b                   	pop    ebx
c01036f7:	5e                   	pop    esi
c01036f8:	5d                   	pop    ebp
c01036f9:	c3                   	ret    

c01036fa <thread_stack_check_canary>:
c01036fa:	55                   	push   ebp
c01036fb:	89 e5                	mov    ebp,esp
c01036fd:	83 ec 08             	sub    esp,0x8
c0103700:	8b 45 08             	mov    eax,DWORD PTR [ebp+0x8]
c0103703:	8d 90 00 08 00 00    	lea    edx,[eax+0x800]
c0103709:	8d 48 04             	lea    ecx,[eax+0x4]
c010370c:	81 38 0d f0 ad 8b    	cmp    DWORD PTR [eax],0x8badf00d
c0103712:	74 0d                	je     c0103721 <thread_stack_check_canary+0x27>
c0103714:	83 ec 0c             	sub    esp,0xc
c0103717:	68 a9 97 10 c0       	push   0xc01097a9
c010371c:	e8 53 13 00 00       	call   c0104a74 <panic>
c0103721:	89 c8                	mov    eax,ecx
c0103723:	39 ca                	cmp    edx,ecx
c0103725:	75 e2                	jne    c0103709 <thread_stack_check_canary+0xf>
c0103727:	c9                   	leave  
c0103728:	c3                   	ret    

c0103729 <thread_execve>:
c0103729:	55                   	push   ebp
c010372a:	89 e5                	mov    ebp,esp
c010372c:	a1 e8 1a 11 c0       	mov    eax,ds:0xc0111ae8
c0103731:	8b 00                	mov    eax,DWORD PTR [eax]
c0103733:	8b 40 4c             	mov    eax,DWORD PTR [eax+0x4c]
c0103736:	83 c0 58             	add    eax,0x58
c0103739:	89 45 10             	mov    DWORD PTR [ebp+0x10],eax
c010373c:	8b 45 14             	mov    eax,DWORD PTR [ebp+0x14]
c010373f:	89 45 0c             	mov    DWORD PTR [ebp+0xc],eax
c0103742:	5d                   	pop    ebp
c0103743:	e9 31 f9 ff ff       	jmp    c0103079 <load_program>

c0103748 <thread_init>:
c0103748:	55                   	push   ebp
c0103749:	89 e5                	mov    ebp,esp
c010374b:	56                   	push   esi
c010374c:	53                   	push   ebx
c010374d:	50                   	push   eax
c010374e:	50                   	push   eax
c010374f:	68 c9 97 10 c0       	push   0xc01097c9
c0103754:	68 a0 1a 11 c0       	push   0xc0111aa0
c0103759:	e8 ee fb ff ff       	call   c010334c <spinlock_init>
c010375e:	5a                   	pop    edx
c010375f:	59                   	pop    ecx
c0103760:	68 dc 97 10 c0       	push   0xc01097dc
c0103765:	68 20 57 11 c0       	push   0xc0115720
c010376a:	e8 dd fb ff ff       	call   c010334c <spinlock_init>
c010376f:	5b                   	pop    ebx
c0103770:	5e                   	pop    esi
c0103771:	68 f8 97 10 c0       	push   0xc01097f8
c0103776:	68 c0 56 11 c0       	push   0xc01156c0
c010377b:	e8 cc fb ff ff       	call   c010334c <spinlock_init>
c0103780:	c7 04 24 50 00 00 00 	mov    DWORD PTR [esp],0x50
c0103787:	e8 37 e7 ff ff       	call   c0101ec3 <malloc>
c010378c:	89 c3                	mov    ebx,eax
c010378e:	c7 40 08 be ba fe ca 	mov    DWORD PTR [eax+0x8],0xcafebabe
c0103795:	c7 40 18 de c0 ad de 	mov    DWORD PTR [eax+0x18],0xdeadc0de
c010379c:	e8 85 ec ff ff       	call   c0102426 <vas_get_current_vas>
c01037a1:	89 43 0c             	mov    DWORD PTR [ebx+0xc],eax
c01037a4:	c7 04 24 00 10 00 00 	mov    DWORD PTR [esp],0x1000
c01037ab:	e8 66 ef ff ff       	call   c0102716 <virt_bytes_to_pages>
c01037b0:	8d 53 3c             	lea    edx,[ebx+0x3c]
c01037b3:	c1 e0 0c             	shl    eax,0xc
c01037b6:	e8 ee fe ff ff       	call   c01036a9 <thread_create_kernel_stack>
c01037bb:	89 43 04             	mov    DWORD PTR [ebx+0x4],eax
c01037be:	c7 04 24 00 10 00 00 	mov    DWORD PTR [esp],0x1000
c01037c5:	e8 4c ef ff ff       	call   c0102716 <virt_bytes_to_pages>
c01037ca:	89 c6                	mov    esi,eax
c01037cc:	c7 04 24 00 08 00 00 	mov    DWORD PTR [esp],0x800
c01037d3:	e8 3e ef ff ff       	call   c0102716 <virt_bytes_to_pages>
c01037d8:	01 c6                	add    esi,eax
c01037da:	c1 e6 0c             	shl    esi,0xc
c01037dd:	89 73 48             	mov    DWORD PTR [ebx+0x48],esi
c01037e0:	c7 43 14 00 00 00 00 	mov    DWORD PTR [ebx+0x14],0x0
c01037e7:	c7 43 1c 00 00 00 00 	mov    DWORD PTR [ebx+0x1c],0x0
c01037ee:	c7 43 20 00 00 00 00 	mov    DWORD PTR [ebx+0x20],0x0
c01037f5:	c7 43 24 00 00 00 00 	mov    DWORD PTR [ebx+0x24],0x0
c01037fc:	c7 43 28 0d 98 10 c0 	mov    DWORD PTR [ebx+0x28],0xc010980d
c0103803:	c7 43 34 80 00 00 00 	mov    DWORD PTR [ebx+0x34],0x80
c010380a:	c7 43 2c 00 00 00 00 	mov    DWORD PTR [ebx+0x2c],0x0
c0103811:	c7 43 30 00 00 00 00 	mov    DWORD PTR [ebx+0x30],0x0
c0103818:	c7 43 40 01 00 00 00 	mov    DWORD PTR [ebx+0x40],0x1
c010381f:	c7 43 44 00 00 00 00 	mov    DWORD PTR [ebx+0x44],0x0
c0103826:	c7 43 4c 00 00 00 00 	mov    DWORD PTR [ebx+0x4c],0x0
c010382d:	c7 43 38 00 00 00 00 	mov    DWORD PTR [ebx+0x38],0x0
c0103834:	c7 04 24 a0 1a 11 c0 	mov    DWORD PTR [esp],0xc0111aa0
c010383b:	e8 3d fb ff ff       	call   c010337d <spinlock_acquire>
c0103840:	a1 28 d0 10 c0       	mov    eax,ds:0xc010d028
c0103845:	8d 50 01             	lea    edx,[eax+0x1]
c0103848:	89 15 28 d0 10 c0    	mov    DWORD PTR ds:0xc010d028,edx
c010384e:	89 43 10             	mov    DWORD PTR [ebx+0x10],eax
c0103851:	a1 e8 1a 11 c0       	mov    eax,ds:0xc0111ae8
c0103856:	89 18                	mov    DWORD PTR [eax],ebx
c0103858:	c7 04 24 a0 1a 11 c0 	mov    DWORD PTR [esp],0xc0111aa0
c010385f:	e8 1e fb ff ff       	call   c0103382 <spinlock_release>
c0103864:	e8 f1 f7 ff ff       	call   c010305a <idle_thread_init>
c0103869:	e8 6f f5 ff ff       	call   c0102ddd <cleaner_thread_init>
c010386e:	89 d8                	mov    eax,ebx
c0103870:	8d 65 f8             	lea    esp,[ebp-0x8]
c0103873:	5b                   	pop    ebx
c0103874:	5e                   	pop    esi
c0103875:	5d                   	pop    ebp
c0103876:	c3                   	ret    

c0103877 <thread_fork>:
c0103877:	55                   	push   ebp
c0103878:	89 e5                	mov    ebp,esp
c010387a:	57                   	push   edi
c010387b:	56                   	push   esi
c010387c:	53                   	push   ebx
c010387d:	83 ec 28             	sub    esp,0x28
c0103880:	6a 50                	push   0x50
c0103882:	e8 3c e6 ff ff       	call   c0101ec3 <malloc>
c0103887:	89 c3                	mov    ebx,eax
c0103889:	a1 e8 1a 11 c0       	mov    eax,ds:0xc0111ae8
c010388e:	8b 00                	mov    eax,DWORD PTR [eax]
c0103890:	89 45 e4             	mov    DWORD PTR [ebp-0x1c],eax
c0103893:	c7 04 24 a0 1a 11 c0 	mov    DWORD PTR [esp],0xc0111aa0
c010389a:	e8 de fa ff ff       	call   c010337d <spinlock_acquire>
c010389f:	b9 14 00 00 00       	mov    ecx,0x14
c01038a4:	89 df                	mov    edi,ebx
c01038a6:	8b 75 e4             	mov    esi,DWORD PTR [ebp-0x1c]
c01038a9:	f3 a5                	rep movs DWORD PTR es:[edi],DWORD PTR ds:[esi]
c01038ab:	a1 28 d0 10 c0       	mov    eax,ds:0xc010d028
c01038b0:	8d 50 01             	lea    edx,[eax+0x1]
c01038b3:	89 15 28 d0 10 c0    	mov    DWORD PTR ds:0xc010d028,edx
c01038b9:	89 43 10             	mov    DWORD PTR [ebx+0x10],eax
c01038bc:	c7 04 24 a0 1a 11 c0 	mov    DWORD PTR [esp],0xc0111aa0
c01038c3:	e8 ba fa ff ff       	call   c0103382 <spinlock_release>
c01038c8:	c7 43 24 00 00 00 00 	mov    DWORD PTR [ebx+0x24],0x0
c01038cf:	c7 43 1c 00 00 00 00 	mov    DWORD PTR [ebx+0x1c],0x0
c01038d6:	c7 43 20 00 00 00 00 	mov    DWORD PTR [ebx+0x20],0x0
c01038dd:	c7 43 14 01 00 00 00 	mov    DWORD PTR [ebx+0x14],0x1
c01038e4:	c7 04 24 14 98 10 c0 	mov    DWORD PTR [esp],0xc0109814
c01038eb:	e8 ca 0f 00 00       	call   c01048ba <kprintf>
c01038f0:	58                   	pop    eax
c01038f1:	ff 73 0c             	push   DWORD PTR [ebx+0xc]
c01038f4:	e8 c1 eb ff ff       	call   c01024ba <vas_copy>
c01038f9:	89 43 0c             	mov    DWORD PTR [ebx+0xc],eax
c01038fc:	5a                   	pop    edx
c01038fd:	59                   	pop    ecx
c01038fe:	8b 53 4c             	mov    edx,DWORD PTR [ebx+0x4c]
c0103901:	ff 72 0c             	push   DWORD PTR [edx+0xc]
c0103904:	50                   	push   eax
c0103905:	e8 1d f9 ff ff       	call   c0103227 <process_create_child>
c010390a:	89 c7                	mov    edi,eax
c010390c:	c7 04 24 00 10 00 00 	mov    DWORD PTR [esp],0x1000
c0103913:	e8 fe ed ff ff       	call   c0102716 <virt_bytes_to_pages>
c0103918:	8d 53 3c             	lea    edx,[ebx+0x3c]
c010391b:	c1 e0 0c             	shl    eax,0xc
c010391e:	e8 86 fd ff ff       	call   c01036a9 <thread_create_kernel_stack>
c0103923:	89 43 04             	mov    DWORD PTR [ebx+0x4],eax
c0103926:	c7 04 24 00 10 00 00 	mov    DWORD PTR [esp],0x1000
c010392d:	e8 e4 ed ff ff       	call   c0102716 <virt_bytes_to_pages>
c0103932:	89 c6                	mov    esi,eax
c0103934:	c7 04 24 00 08 00 00 	mov    DWORD PTR [esp],0x800
c010393b:	e8 d6 ed ff ff       	call   c0102716 <virt_bytes_to_pages>
c0103940:	01 c6                	add    esi,eax
c0103942:	c1 e6 0c             	shl    esi,0xc
c0103945:	89 73 48             	mov    DWORD PTR [ebx+0x48],esi
c0103948:	5e                   	pop    esi
c0103949:	58                   	pop    eax
c010394a:	53                   	push   ebx
c010394b:	57                   	push   edi
c010394c:	e8 64 f9 ff ff       	call   c01032b5 <process_add_thread>
c0103951:	89 7b 4c             	mov    DWORD PTR [ebx+0x4c],edi
c0103954:	c7 04 24 a0 1a 11 c0 	mov    DWORD PTR [esp],0xc0111aa0
c010395b:	e8 1d fa ff ff       	call   c010337d <spinlock_acquire>
c0103960:	31 d2                	xor    edx,edx
c0103962:	89 d8                	mov    eax,ebx
c0103964:	e8 c4 fc ff ff       	call   c010362d <thread_add_to_ready_list>
c0103969:	58                   	pop    eax
c010396a:	5a                   	pop    edx
c010396b:	53                   	push   ebx
c010396c:	ff 75 e4             	push   DWORD PTR [ebp-0x1c]
c010396f:	e8 62 47 00 00       	call   c01080d6 <arch_set_forked_kernel_stack>
c0103974:	a1 e8 1a 11 c0       	mov    eax,ds:0xc0111ae8
c0103979:	8b 18                	mov    ebx,DWORD PTR [eax]
c010397b:	c7 04 24 a0 1a 11 c0 	mov    DWORD PTR [esp],0xc0111aa0
c0103982:	e8 fb f9 ff ff       	call   c0103382 <spinlock_release>
c0103987:	83 c4 10             	add    esp,0x10
c010398a:	31 c0                	xor    eax,eax
c010398c:	3b 5d e4             	cmp    ebx,DWORD PTR [ebp-0x1c]
c010398f:	74 0d                	je     c010399e <thread_fork+0x127>
c0103991:	a1 e8 1a 11 c0       	mov    eax,ds:0xc0111ae8
c0103996:	8b 00                	mov    eax,DWORD PTR [eax]
c0103998:	8b 40 4c             	mov    eax,DWORD PTR [eax+0x4c]
c010399b:	8b 40 04             	mov    eax,DWORD PTR [eax+0x4]
c010399e:	8d 65 f4             	lea    esp,[ebp-0xc]
c01039a1:	5b                   	pop    ebx
c01039a2:	5e                   	pop    esi
c01039a3:	5f                   	pop    edi
c01039a4:	5d                   	pop    ebp
c01039a5:	c3                   	ret    

c01039a6 <thread_create>:
c01039a6:	55                   	push   ebp
c01039a7:	89 e5                	mov    ebp,esp
c01039a9:	56                   	push   esi
c01039aa:	53                   	push   ebx
c01039ab:	83 ec 0c             	sub    esp,0xc
c01039ae:	6a 50                	push   0x50
c01039b0:	e8 0e e5 ff ff       	call   c0101ec3 <malloc>
c01039b5:	89 c3                	mov    ebx,eax
c01039b7:	c7 40 14 01 00 00 00 	mov    DWORD PTR [eax+0x14],0x1
c01039be:	8b 45 08             	mov    eax,DWORD PTR [ebp+0x8]
c01039c1:	89 43 18             	mov    DWORD PTR [ebx+0x18],eax
c01039c4:	8b 45 0c             	mov    eax,DWORD PTR [ebp+0xc]
c01039c7:	89 43 38             	mov    DWORD PTR [ebx+0x38],eax
c01039ca:	c7 43 1c 00 00 00 00 	mov    DWORD PTR [ebx+0x1c],0x0
c01039d1:	c7 43 20 00 00 00 00 	mov    DWORD PTR [ebx+0x20],0x0
c01039d8:	c7 43 24 00 00 00 00 	mov    DWORD PTR [ebx+0x24],0x0
c01039df:	c7 43 28 8b 98 10 c0 	mov    DWORD PTR [ebx+0x28],0xc010988b
c01039e6:	c7 43 34 80 00 00 00 	mov    DWORD PTR [ebx+0x34],0x80
c01039ed:	c7 43 2c 00 00 00 00 	mov    DWORD PTR [ebx+0x2c],0x0
c01039f4:	c7 43 30 00 00 00 00 	mov    DWORD PTR [ebx+0x30],0x0
c01039fb:	c7 43 40 01 00 00 00 	mov    DWORD PTR [ebx+0x40],0x1
c0103a02:	c7 43 44 00 00 00 00 	mov    DWORD PTR [ebx+0x44],0x0
c0103a09:	c7 43 4c 00 00 00 00 	mov    DWORD PTR [ebx+0x4c],0x0
c0103a10:	c7 04 24 00 10 00 00 	mov    DWORD PTR [esp],0x1000
c0103a17:	e8 fa ec ff ff       	call   c0102716 <virt_bytes_to_pages>
c0103a1c:	8d 53 3c             	lea    edx,[ebx+0x3c]
c0103a1f:	c1 e0 0c             	shl    eax,0xc
c0103a22:	e8 82 fc ff ff       	call   c01036a9 <thread_create_kernel_stack>
c0103a27:	89 43 04             	mov    DWORD PTR [ebx+0x4],eax
c0103a2a:	c7 04 24 00 10 00 00 	mov    DWORD PTR [esp],0x1000
c0103a31:	e8 e0 ec ff ff       	call   c0102716 <virt_bytes_to_pages>
c0103a36:	89 c6                	mov    esi,eax
c0103a38:	c7 04 24 00 08 00 00 	mov    DWORD PTR [esp],0x800
c0103a3f:	e8 d2 ec ff ff       	call   c0102716 <virt_bytes_to_pages>
c0103a44:	01 c6                	add    esi,eax
c0103a46:	c1 e6 0c             	shl    esi,0xc
c0103a49:	89 73 48             	mov    DWORD PTR [ebx+0x48],esi
c0103a4c:	58                   	pop    eax
c0103a4d:	ff 73 04             	push   DWORD PTR [ebx+0x4]
c0103a50:	e8 4b 4a 00 00       	call   c01084a0 <arch_prepare_stack>
c0103a55:	89 43 08             	mov    DWORD PTR [ebx+0x8],eax
c0103a58:	8b 45 10             	mov    eax,DWORD PTR [ebp+0x10]
c0103a5b:	89 43 0c             	mov    DWORD PTR [ebx+0xc],eax
c0103a5e:	c7 04 24 a0 1a 11 c0 	mov    DWORD PTR [esp],0xc0111aa0
c0103a65:	e8 13 f9 ff ff       	call   c010337d <spinlock_acquire>
c0103a6a:	a1 28 d0 10 c0       	mov    eax,ds:0xc010d028
c0103a6f:	8d 50 01             	lea    edx,[eax+0x1]
c0103a72:	89 15 28 d0 10 c0    	mov    DWORD PTR ds:0xc010d028,edx
c0103a78:	89 43 10             	mov    DWORD PTR [ebx+0x10],eax
c0103a7b:	31 d2                	xor    edx,edx
c0103a7d:	89 d8                	mov    eax,ebx
c0103a7f:	e8 a9 fb ff ff       	call   c010362d <thread_add_to_ready_list>
c0103a84:	c7 04 24 a0 1a 11 c0 	mov    DWORD PTR [esp],0xc0111aa0
c0103a8b:	e8 f2 f8 ff ff       	call   c0103382 <spinlock_release>
c0103a90:	89 d8                	mov    eax,ebx
c0103a92:	8d 65 f8             	lea    esp,[ebp-0x8]
c0103a95:	5b                   	pop    ebx
c0103a96:	5e                   	pop    esi
c0103a97:	5d                   	pop    ebp
c0103a98:	c3                   	ret    

c0103a99 <thread_postpone_switches>:
c0103a99:	55                   	push   ebp
c0103a9a:	89 e5                	mov    ebp,esp
c0103a9c:	83 ec 14             	sub    esp,0x14
c0103a9f:	68 20 57 11 c0       	push   0xc0115720
c0103aa4:	e8 d4 f8 ff ff       	call   c010337d <spinlock_acquire>
c0103aa9:	c6 05 68 57 11 c0 01 	mov    BYTE PTR ds:0xc0115768,0x1
c0103ab0:	c6 05 69 57 11 c0 00 	mov    BYTE PTR ds:0xc0115769,0x0
c0103ab7:	83 c4 10             	add    esp,0x10
c0103aba:	c9                   	leave  
c0103abb:	c3                   	ret    

c0103abc <thread_schedule>:
c0103abc:	55                   	push   ebp
c0103abd:	89 e5                	mov    ebp,esp
c0103abf:	56                   	push   esi
c0103ac0:	53                   	push   ebx
c0103ac1:	e8 1a 48 00 00       	call   c01082e0 <arch_read_timestamp>
c0103ac6:	8b 0d a8 56 11 c0    	mov    ecx,DWORD PTR ds:0xc01156a8
c0103acc:	8b 1d ac 56 11 c0    	mov    ebx,DWORD PTR ds:0xc01156ac
c0103ad2:	a3 a8 56 11 c0       	mov    ds:0xc01156a8,eax
c0103ad7:	89 15 ac 56 11 c0    	mov    DWORD PTR ds:0xc01156ac,edx
c0103add:	8b 35 e8 1a 11 c0    	mov    esi,DWORD PTR ds:0xc0111ae8
c0103ae3:	8b 36                	mov    esi,DWORD PTR [esi]
c0103ae5:	03 46 1c             	add    eax,DWORD PTR [esi+0x1c]
c0103ae8:	13 56 20             	adc    edx,DWORD PTR [esi+0x20]
c0103aeb:	29 c8                	sub    eax,ecx
c0103aed:	19 da                	sbb    edx,ebx
c0103aef:	89 46 1c             	mov    DWORD PTR [esi+0x1c],eax
c0103af2:	89 56 20             	mov    DWORD PTR [esi+0x20],edx
c0103af5:	83 ec 0c             	sub    esp,0xc
c0103af8:	68 20 57 11 c0       	push   0xc0115720
c0103afd:	e8 3b f8 ff ff       	call   c010333d <spinlock_is_held>
c0103b02:	83 c4 10             	add    esp,0x10
c0103b05:	84 c0                	test   al,al
c0103b07:	74 17                	je     c0103b20 <thread_schedule+0x64>
c0103b09:	80 3d 68 57 11 c0 00 	cmp    BYTE PTR ds:0xc0115768,0x0
c0103b10:	74 0e                	je     c0103b20 <thread_schedule+0x64>
c0103b12:	c6 05 69 57 11 c0 01 	mov    BYTE PTR ds:0xc0115769,0x1
c0103b19:	8d 65 f8             	lea    esp,[ebp-0x8]
c0103b1c:	5b                   	pop    ebx
c0103b1d:	5e                   	pop    esi
c0103b1e:	5d                   	pop    ebp
c0103b1f:	c3                   	ret    
c0103b20:	8b 1d 74 57 11 c0    	mov    ebx,DWORD PTR ds:0xc0115774
c0103b26:	85 db                	test   ebx,ebx
c0103b28:	0f 84 9c 00 00 00    	je     c0103bca <thread_schedule+0x10e>
c0103b2e:	8b 43 24             	mov    eax,DWORD PTR [ebx+0x24]
c0103b31:	a3 74 57 11 c0       	mov    ds:0xc0115774,eax
c0103b36:	85 c0                	test   eax,eax
c0103b38:	75 0a                	jne    c0103b44 <thread_schedule+0x88>
c0103b3a:	c7 05 70 57 11 c0 00 00 00 00 	mov    DWORD PTR ds:0xc0115770,0x0
c0103b44:	81 7b 34 ff 00 00 00 	cmp    DWORD PTR [ebx+0x34],0xff
c0103b4b:	75 4c                	jne    c0103b99 <thread_schedule+0xdd>
c0103b4d:	85 c0                	test   eax,eax
c0103b4f:	74 27                	je     c0103b78 <thread_schedule+0xbc>
c0103b51:	31 d2                	xor    edx,edx
c0103b53:	89 d8                	mov    eax,ebx
c0103b55:	e8 d3 fa ff ff       	call   c010362d <thread_add_to_ready_list>
c0103b5a:	8b 1d 74 57 11 c0    	mov    ebx,DWORD PTR ds:0xc0115774
c0103b60:	8b 43 24             	mov    eax,DWORD PTR [ebx+0x24]
c0103b63:	a3 74 57 11 c0       	mov    ds:0xc0115774,eax
c0103b68:	85 c0                	test   eax,eax
c0103b6a:	75 2d                	jne    c0103b99 <thread_schedule+0xdd>
c0103b6c:	c7 05 70 57 11 c0 00 00 00 00 	mov    DWORD PTR ds:0xc0115770,0x0
c0103b76:	eb 21                	jmp    c0103b99 <thread_schedule+0xdd>
c0103b78:	a1 e8 1a 11 c0       	mov    eax,ds:0xc0111ae8
c0103b7d:	8b 00                	mov    eax,DWORD PTR [eax]
c0103b7f:	83 78 14 00          	cmp    DWORD PTR [eax+0x14],0x0
c0103b83:	75 14                	jne    c0103b99 <thread_schedule+0xdd>
c0103b85:	e8 de fa ff ff       	call   c0103668 <thread_reset_timeslice>
c0103b8a:	31 d2                	xor    edx,edx
c0103b8c:	89 d8                	mov    eax,ebx
c0103b8e:	8d 65 f8             	lea    esp,[ebp-0x8]
c0103b91:	5b                   	pop    ebx
c0103b92:	5e                   	pop    esi
c0103b93:	5d                   	pop    ebp
c0103b94:	e9 94 fa ff ff       	jmp    c010362d <thread_add_to_ready_list>
c0103b99:	a1 e8 1a 11 c0       	mov    eax,ds:0xc0111ae8
c0103b9e:	8b 00                	mov    eax,DWORD PTR [eax]
c0103ba0:	83 78 14 00          	cmp    DWORD PTR [eax+0x14],0x0
c0103ba4:	75 07                	jne    c0103bad <thread_schedule+0xf1>
c0103ba6:	31 d2                	xor    edx,edx
c0103ba8:	e8 80 fa ff ff       	call   c010362d <thread_add_to_ready_list>
c0103bad:	c7 43 14 00 00 00 00 	mov    DWORD PTR [ebx+0x14],0x0
c0103bb4:	83 ec 0c             	sub    esp,0xc
c0103bb7:	ff 73 0c             	push   DWORD PTR [ebx+0xc]
c0103bba:	e8 c6 e8 ff ff       	call   c0102485 <vas_load>
c0103bbf:	89 1c 24             	mov    DWORD PTR [esp],ebx
c0103bc2:	e8 e8 48 00 00       	call   c01084af <arch_switch_thread>
c0103bc7:	83 c4 10             	add    esp,0x10
c0103bca:	8d 65 f8             	lea    esp,[ebp-0x8]
c0103bcd:	5b                   	pop    ebx
c0103bce:	5e                   	pop    esi
c0103bcf:	5d                   	pop    ebp
c0103bd0:	e9 93 fa ff ff       	jmp    c0103668 <thread_reset_timeslice>

c0103bd5 <thread_block>:
c0103bd5:	55                   	push   ebp
c0103bd6:	89 e5                	mov    ebp,esp
c0103bd8:	a1 e8 1a 11 c0       	mov    eax,ds:0xc0111ae8
c0103bdd:	8b 00                	mov    eax,DWORD PTR [eax]
c0103bdf:	8b 55 08             	mov    edx,DWORD PTR [ebp+0x8]
c0103be2:	89 50 14             	mov    DWORD PTR [eax+0x14],edx
c0103be5:	5d                   	pop    ebp
c0103be6:	e9 d1 fe ff ff       	jmp    c0103abc <thread_schedule>

c0103beb <thread_unblock>:
c0103beb:	55                   	push   ebp
c0103bec:	89 e5                	mov    ebp,esp
c0103bee:	53                   	push   ebx
c0103bef:	51                   	push   ecx
c0103bf0:	8b 45 08             	mov    eax,DWORD PTR [ebp+0x8]
c0103bf3:	8b 15 e8 1a 11 c0    	mov    edx,DWORD PTR ds:0xc0111ae8
c0103bf9:	8b 12                	mov    edx,DWORD PTR [edx]
c0103bfb:	8b 4a 34             	mov    ecx,DWORD PTR [edx+0x34]
c0103bfe:	bb 01 00 00 00       	mov    ebx,0x1
c0103c03:	39 48 34             	cmp    DWORD PTR [eax+0x34],ecx
c0103c06:	7c 0c                	jl     c0103c14 <thread_unblock+0x29>
c0103c08:	31 db                	xor    ebx,ebx
c0103c0a:	83 3d 74 57 11 c0 00 	cmp    DWORD PTR ds:0xc0115774,0x0
c0103c11:	0f 94 c3             	sete   bl
c0103c14:	89 da                	mov    edx,ebx
c0103c16:	e8 12 fa ff ff       	call   c010362d <thread_add_to_ready_list>
c0103c1b:	85 db                	test   ebx,ebx
c0103c1d:	74 08                	je     c0103c27 <thread_unblock+0x3c>
c0103c1f:	5a                   	pop    edx
c0103c20:	5b                   	pop    ebx
c0103c21:	5d                   	pop    ebp
c0103c22:	e9 95 fe ff ff       	jmp    c0103abc <thread_schedule>
c0103c27:	58                   	pop    eax
c0103c28:	5b                   	pop    ebx
c0103c29:	5d                   	pop    ebp
c0103c2a:	c3                   	ret    

c0103c2b <thread_end_postpone_switches>:
c0103c2b:	55                   	push   ebp
c0103c2c:	89 e5                	mov    ebp,esp
c0103c2e:	83 ec 08             	sub    esp,0x8
c0103c31:	c6 05 68 57 11 c0 00 	mov    BYTE PTR ds:0xc0115768,0x0
c0103c38:	80 3d 69 57 11 c0 00 	cmp    BYTE PTR ds:0xc0115769,0x0
c0103c3f:	74 1d                	je     c0103c5e <thread_end_postpone_switches+0x33>
c0103c41:	c6 05 69 57 11 c0 00 	mov    BYTE PTR ds:0xc0115769,0x0
c0103c48:	83 ec 0c             	sub    esp,0xc
c0103c4b:	68 20 57 11 c0       	push   0xc0115720
c0103c50:	e8 2d f7 ff ff       	call   c0103382 <spinlock_release>
c0103c55:	83 c4 10             	add    esp,0x10
c0103c58:	c9                   	leave  
c0103c59:	e9 5e fe ff ff       	jmp    c0103abc <thread_schedule>
c0103c5e:	83 ec 0c             	sub    esp,0xc
c0103c61:	68 20 57 11 c0       	push   0xc0115720
c0103c66:	e8 17 f7 ff ff       	call   c0103382 <spinlock_release>
c0103c6b:	83 c4 10             	add    esp,0x10
c0103c6e:	c9                   	leave  
c0103c6f:	c3                   	ret    

c0103c70 <get_time_since_boot>:
c0103c70:	55                   	push   ebp
c0103c71:	89 e5                	mov    ebp,esp
c0103c73:	83 ec 24             	sub    esp,0x24
c0103c76:	68 c0 56 11 c0       	push   0xc01156c0
c0103c7b:	e8 fd f6 ff ff       	call   c010337d <spinlock_acquire>
c0103c80:	a1 08 57 11 c0       	mov    eax,ds:0xc0115708
c0103c85:	8b 15 0c 57 11 c0    	mov    edx,DWORD PTR ds:0xc011570c
c0103c8b:	89 45 f0             	mov    DWORD PTR [ebp-0x10],eax
c0103c8e:	89 55 f4             	mov    DWORD PTR [ebp-0xc],edx
c0103c91:	c7 04 24 c0 56 11 c0 	mov    DWORD PTR [esp],0xc01156c0
c0103c98:	e8 e5 f6 ff ff       	call   c0103382 <spinlock_release>
c0103c9d:	8b 45 f0             	mov    eax,DWORD PTR [ebp-0x10]
c0103ca0:	8b 55 f4             	mov    edx,DWORD PTR [ebp-0xc]
c0103ca3:	c9                   	leave  
c0103ca4:	c3                   	ret    

c0103ca5 <thread_nano_sleep_until>:
c0103ca5:	55                   	push   ebp
c0103ca6:	89 e5                	mov    ebp,esp
c0103ca8:	56                   	push   esi
c0103ca9:	53                   	push   ebx
c0103caa:	8b 75 08             	mov    esi,DWORD PTR [ebp+0x8]
c0103cad:	8b 5d 0c             	mov    ebx,DWORD PTR [ebp+0xc]
c0103cb0:	83 ec 0c             	sub    esp,0xc
c0103cb3:	68 a0 1a 11 c0       	push   0xc0111aa0
c0103cb8:	e8 c0 f6 ff ff       	call   c010337d <spinlock_acquire>
c0103cbd:	e8 ae ff ff ff       	call   c0103c70 <get_time_since_boot>
c0103cc2:	83 c4 10             	add    esp,0x10
c0103cc5:	39 c6                	cmp    esi,eax
c0103cc7:	89 d8                	mov    eax,ebx
c0103cc9:	19 d0                	sbb    eax,edx
c0103ccb:	73 10                	jae    c0103cdd <thread_nano_sleep_until+0x38>
c0103ccd:	83 ec 0c             	sub    esp,0xc
c0103cd0:	68 a0 1a 11 c0       	push   0xc0111aa0
c0103cd5:	e8 a8 f6 ff ff       	call   c0103382 <spinlock_release>
c0103cda:	83 c4 10             	add    esp,0x10
c0103cdd:	a1 e8 1a 11 c0       	mov    eax,ds:0xc0111ae8
c0103ce2:	8b 10                	mov    edx,DWORD PTR [eax]
c0103ce4:	89 72 2c             	mov    DWORD PTR [edx+0x2c],esi
c0103ce7:	89 5a 30             	mov    DWORD PTR [edx+0x30],ebx
c0103cea:	8b 10                	mov    edx,DWORD PTR [eax]
c0103cec:	8b 0d 6c 57 11 c0    	mov    ecx,DWORD PTR ds:0xc011576c
c0103cf2:	89 4a 24             	mov    DWORD PTR [edx+0x24],ecx
c0103cf5:	8b 00                	mov    eax,DWORD PTR [eax]
c0103cf7:	a3 6c 57 11 c0       	mov    ds:0xc011576c,eax
c0103cfc:	83 ec 0c             	sub    esp,0xc
c0103cff:	6a 02                	push   0x2
c0103d01:	e8 cf fe ff ff       	call   c0103bd5 <thread_block>
c0103d06:	83 c4 10             	add    esp,0x10
c0103d09:	c7 45 08 a0 1a 11 c0 	mov    DWORD PTR [ebp+0x8],0xc0111aa0
c0103d10:	8d 65 f8             	lea    esp,[ebp-0x8]
c0103d13:	5b                   	pop    ebx
c0103d14:	5e                   	pop    esi
c0103d15:	5d                   	pop    ebp
c0103d16:	e9 67 f6 ff ff       	jmp    c0103382 <spinlock_release>

c0103d1b <thread_nano_sleep>:
c0103d1b:	55                   	push   ebp
c0103d1c:	89 e5                	mov    ebp,esp
c0103d1e:	57                   	push   edi
c0103d1f:	56                   	push   esi
c0103d20:	8b 75 08             	mov    esi,DWORD PTR [ebp+0x8]
c0103d23:	8b 7d 0c             	mov    edi,DWORD PTR [ebp+0xc]
c0103d26:	e8 45 ff ff ff       	call   c0103c70 <get_time_since_boot>
c0103d2b:	01 f0                	add    eax,esi
c0103d2d:	11 fa                	adc    edx,edi
c0103d2f:	89 45 08             	mov    DWORD PTR [ebp+0x8],eax
c0103d32:	89 55 0c             	mov    DWORD PTR [ebp+0xc],edx
c0103d35:	5e                   	pop    esi
c0103d36:	5f                   	pop    edi
c0103d37:	5d                   	pop    ebp
c0103d38:	e9 68 ff ff ff       	jmp    c0103ca5 <thread_nano_sleep_until>

c0103d3d <thread_sleep>:
c0103d3d:	55                   	push   ebp
c0103d3e:	89 e5                	mov    ebp,esp
c0103d40:	83 ec 10             	sub    esp,0x10
c0103d43:	b8 00 ca 9a 3b       	mov    eax,0x3b9aca00
c0103d48:	f7 6d 08             	imul   DWORD PTR [ebp+0x8]
c0103d4b:	52                   	push   edx
c0103d4c:	50                   	push   eax
c0103d4d:	e8 c9 ff ff ff       	call   c0103d1b <thread_nano_sleep>
c0103d52:	83 c4 10             	add    esp,0x10
c0103d55:	c9                   	leave  
c0103d56:	c3                   	ret    

c0103d57 <thread_yield>:
c0103d57:	55                   	push   ebp
c0103d58:	89 e5                	mov    ebp,esp
c0103d5a:	83 ec 14             	sub    esp,0x14
c0103d5d:	68 a0 1a 11 c0       	push   0xc0111aa0
c0103d62:	e8 16 f6 ff ff       	call   c010337d <spinlock_acquire>
c0103d67:	e8 50 fd ff ff       	call   c0103abc <thread_schedule>
c0103d6c:	c7 04 24 a0 1a 11 c0 	mov    DWORD PTR [esp],0xc0111aa0
c0103d73:	e8 0a f6 ff ff       	call   c0103382 <spinlock_release>
c0103d78:	83 c4 10             	add    esp,0x10
c0103d7b:	c9                   	leave  
c0103d7c:	c3                   	ret    

c0103d7d <thread_terminate>:
c0103d7d:	55                   	push   ebp
c0103d7e:	89 e5                	mov    ebp,esp
c0103d80:	53                   	push   ebx
c0103d81:	83 ec 10             	sub    esp,0x10
c0103d84:	68 00 00 40 00       	push   0x400000
c0103d89:	e8 88 e9 ff ff       	call   c0102716 <virt_bytes_to_pages>
c0103d8e:	69 d8 00 f0 ff ff    	imul   ebx,eax,0xfffff000
c0103d94:	81 c3 00 00 00 10    	add    ebx,0x10000000
c0103d9a:	83 c4 10             	add    esp,0x10
c0103d9d:	81 fb ff ff ff 0f    	cmp    ebx,0xfffffff
c0103da3:	77 29                	ja     c0103dce <thread_terminate+0x51>
c0103da5:	e8 7c e6 ff ff       	call   c0102426 <vas_get_current_vas>
c0103daa:	52                   	push   edx
c0103dab:	52                   	push   edx
c0103dac:	53                   	push   ebx
c0103dad:	50                   	push   eax
c0103dae:	e8 1f e8 ff ff       	call   c01025d2 <vas_unmap>
c0103db3:	83 c4 10             	add    esp,0x10
c0103db6:	85 c0                	test   eax,eax
c0103db8:	74 0c                	je     c0103dc6 <thread_terminate+0x49>
c0103dba:	83 ec 0c             	sub    esp,0xc
c0103dbd:	50                   	push   eax
c0103dbe:	e8 27 e4 ff ff       	call   c01021ea <phys_free_page>
c0103dc3:	83 c4 10             	add    esp,0x10
c0103dc6:	81 c3 00 10 00 00    	add    ebx,0x1000
c0103dcc:	eb cf                	jmp    c0103d9d <thread_terminate+0x20>
c0103dce:	83 ec 0c             	sub    esp,0xc
c0103dd1:	68 a0 1a 11 c0       	push   0xc0111aa0
c0103dd6:	e8 a2 f5 ff ff       	call   c010337d <spinlock_acquire>
c0103ddb:	e8 b9 fc ff ff       	call   c0103a99 <thread_postpone_switches>
c0103de0:	a1 e8 1a 11 c0       	mov    eax,ds:0xc0111ae8
c0103de5:	8b 10                	mov    edx,DWORD PTR [eax]
c0103de7:	8b 0d a0 56 11 c0    	mov    ecx,DWORD PTR ds:0xc01156a0
c0103ded:	89 4a 24             	mov    DWORD PTR [edx+0x24],ecx
c0103df0:	8b 00                	mov    eax,DWORD PTR [eax]
c0103df2:	a3 a0 56 11 c0       	mov    ds:0xc01156a0,eax
c0103df7:	c7 04 24 05 00 00 00 	mov    DWORD PTR [esp],0x5
c0103dfe:	e8 d2 fd ff ff       	call   c0103bd5 <thread_block>
c0103e03:	e8 f8 ef ff ff       	call   c0102e00 <cleaner_thread_awaken>
c0103e08:	e8 1e fe ff ff       	call   c0103c2b <thread_end_postpone_switches>
c0103e0d:	c7 04 24 a0 1a 11 c0 	mov    DWORD PTR [esp],0xc0111aa0
c0103e14:	e8 69 f5 ff ff       	call   c0103382 <spinlock_release>
c0103e19:	83 c4 10             	add    esp,0x10
c0103e1c:	8b 5d fc             	mov    ebx,DWORD PTR [ebp-0x4]
c0103e1f:	c9                   	leave  
c0103e20:	c3                   	ret    

c0103e21 <thread_execute_in_usermode>:
c0103e21:	55                   	push   ebp
c0103e22:	89 e5                	mov    ebp,esp
c0103e24:	57                   	push   edi
c0103e25:	56                   	push   esi
c0103e26:	53                   	push   ebx
c0103e27:	83 ec 38             	sub    esp,0x38
c0103e2a:	68 00 00 40 00       	push   0x400000
c0103e2f:	e8 e2 e8 ff ff       	call   c0102716 <virt_bytes_to_pages>
c0103e34:	c1 e0 0c             	shl    eax,0xc
c0103e37:	89 04 24             	mov    DWORD PTR [esp],eax
c0103e3a:	e8 d7 e8 ff ff       	call   c0102716 <virt_bytes_to_pages>
c0103e3f:	89 c2                	mov    edx,eax
c0103e41:	bb 00 00 01 00       	mov    ebx,0x10000
c0103e46:	29 c3                	sub    ebx,eax
c0103e48:	c1 e3 0c             	shl    ebx,0xc
c0103e4b:	83 c4 10             	add    esp,0x10
c0103e4e:	31 f6                	xor    esi,esi
c0103e50:	39 f2                	cmp    edx,esi
c0103e52:	7e 22                	jle    c0103e76 <thread_execute_in_usermode+0x55>
c0103e54:	89 55 d4             	mov    DWORD PTR [ebp-0x2c],edx
c0103e57:	89 f7                	mov    edi,esi
c0103e59:	c1 e7 0c             	shl    edi,0xc
c0103e5c:	01 df                	add    edi,ebx
c0103e5e:	e8 c3 e5 ff ff       	call   c0102426 <vas_get_current_vas>
c0103e63:	51                   	push   ecx
c0103e64:	6a 45                	push   0x45
c0103e66:	57                   	push   edi
c0103e67:	50                   	push   eax
c0103e68:	e8 e3 e6 ff ff       	call   c0102550 <vas_reflag>
c0103e6d:	46                   	inc    esi
c0103e6e:	83 c4 10             	add    esp,0x10
c0103e71:	8b 55 d4             	mov    edx,DWORD PTR [ebp-0x2c]
c0103e74:	eb da                	jmp    c0103e50 <thread_execute_in_usermode+0x2f>
c0103e76:	83 ec 0c             	sub    esp,0xc
c0103e79:	68 a0 1a 11 c0       	push   0xc0111aa0
c0103e7e:	e8 fa f4 ff ff       	call   c010337d <spinlock_acquire>
c0103e83:	a1 e8 1a 11 c0       	mov    eax,ds:0xc0111ae8
c0103e88:	8b 00                	mov    eax,DWORD PTR [eax]
c0103e8a:	c7 40 08 00 00 00 10 	mov    DWORD PTR [eax+0x8],0x10000000
c0103e91:	c7 04 24 a0 1a 11 c0 	mov    DWORD PTR [esp],0xc0111aa0
c0103e98:	e8 e5 f4 ff ff       	call   c0103382 <spinlock_release>
c0103e9d:	c7 45 e0 99 98 10 c0 	mov    DWORD PTR [ebp-0x20],0xc0109899
c0103ea4:	c7 45 e4 00 00 00 00 	mov    DWORD PTR [ebp-0x1c],0x0
c0103eab:	c7 45 d8 00 00 00 00 	mov    DWORD PTR [ebp-0x28],0x0
c0103eb2:	8d 45 dc             	lea    eax,[ebp-0x24]
c0103eb5:	50                   	push   eax
c0103eb6:	8d 45 d8             	lea    eax,[ebp-0x28]
c0103eb9:	50                   	push   eax
c0103eba:	8d 45 e0             	lea    eax,[ebp-0x20]
c0103ebd:	50                   	push   eax
c0103ebe:	68 99 98 10 c0       	push   0xc0109899
c0103ec3:	e8 61 f8 ff ff       	call   c0103729 <thread_execve>
c0103ec8:	83 c4 20             	add    esp,0x20
c0103ecb:	85 c0                	test   eax,eax
c0103ecd:	74 15                	je     c0103ee4 <thread_execute_in_usermode+0xc3>
c0103ecf:	52                   	push   edx
c0103ed0:	52                   	push   edx
c0103ed1:	50                   	push   eax
c0103ed2:	68 b2 98 10 c0       	push   0xc01098b2
c0103ed7:	e8 de 09 00 00       	call   c01048ba <kprintf>
c0103edc:	e8 9c fe ff ff       	call   c0103d7d <thread_terminate>
c0103ee1:	83 c4 10             	add    esp,0x10
c0103ee4:	e8 00 44 00 00       	call   c01082e9 <arch_flush_tlb>
c0103ee9:	50                   	push   eax
c0103eea:	50                   	push   eax
c0103eeb:	68 00 00 00 10       	push   0x10000000
c0103ef0:	ff 75 dc             	push   DWORD PTR [ebp-0x24]
c0103ef3:	e8 e8 45 00 00       	call   c01084e0 <arch_switch_to_usermode>
c0103ef8:	e8 80 fe ff ff       	call   c0103d7d <thread_terminate>
c0103efd:	83 c4 10             	add    esp,0x10
c0103f00:	8d 65 f4             	lea    esp,[ebp-0xc]
c0103f03:	5b                   	pop    ebx
c0103f04:	5e                   	pop    esi
c0103f05:	5f                   	pop    edi
c0103f06:	5d                   	pop    ebp
c0103f07:	c3                   	ret    

c0103f08 <thread_startup_handler>:
c0103f08:	55                   	push   ebp
c0103f09:	89 e5                	mov    ebp,esp
c0103f0b:	83 ec 14             	sub    esp,0x14
c0103f0e:	68 a0 1a 11 c0       	push   0xc0111aa0
c0103f13:	e8 6a f4 ff ff       	call   c0103382 <spinlock_release>
c0103f18:	a1 e8 1a 11 c0       	mov    eax,ds:0xc0111ae8
c0103f1d:	8b 00                	mov    eax,DWORD PTR [eax]
c0103f1f:	5a                   	pop    edx
c0103f20:	ff 70 38             	push   DWORD PTR [eax+0x38]
c0103f23:	ff 50 18             	call   DWORD PTR [eax+0x18]
c0103f26:	83 c4 10             	add    esp,0x10
c0103f29:	c9                   	leave  
c0103f2a:	e9 4e fe ff ff       	jmp    c0103d7d <thread_terminate>

c0103f2f <thread_received_timer_interrupt_bsp>:
c0103f2f:	55                   	push   ebp
c0103f30:	89 e5                	mov    ebp,esp
c0103f32:	57                   	push   edi
c0103f33:	56                   	push   esi
c0103f34:	8b 75 08             	mov    esi,DWORD PTR [ebp+0x8]
c0103f37:	8b 7d 0c             	mov    edi,DWORD PTR [ebp+0xc]
c0103f3a:	83 ec 0c             	sub    esp,0xc
c0103f3d:	68 c0 56 11 c0       	push   0xc01156c0
c0103f42:	e8 36 f4 ff ff       	call   c010337d <spinlock_acquire>
c0103f47:	01 35 08 57 11 c0    	add    DWORD PTR ds:0xc0115708,esi
c0103f4d:	11 3d 0c 57 11 c0    	adc    DWORD PTR ds:0xc011570c,edi
c0103f53:	83 c4 10             	add    esp,0x10
c0103f56:	c7 45 08 c0 56 11 c0 	mov    DWORD PTR [ebp+0x8],0xc01156c0
c0103f5d:	8d 65 f8             	lea    esp,[ebp-0x8]
c0103f60:	5e                   	pop    esi
c0103f61:	5f                   	pop    edi
c0103f62:	5d                   	pop    ebp
c0103f63:	e9 1a f4 ff ff       	jmp    c0103382 <spinlock_release>

c0103f68 <thread_received_timer_interrupt>:
c0103f68:	55                   	push   ebp
c0103f69:	89 e5                	mov    ebp,esp
c0103f6b:	53                   	push   ebx
c0103f6c:	83 ec 10             	sub    esp,0x10
c0103f6f:	68 a0 1a 11 c0       	push   0xc0111aa0
c0103f74:	e8 04 f4 ff ff       	call   c010337d <spinlock_acquire>
c0103f79:	83 c4 10             	add    esp,0x10
c0103f7c:	a1 e8 1a 11 c0       	mov    eax,ds:0xc0111ae8
c0103f81:	83 38 00             	cmp    DWORD PTR [eax],0x0
c0103f84:	75 0d                	jne    c0103f93 <thread_received_timer_interrupt+0x2b>
c0103f86:	83 ec 0c             	sub    esp,0xc
c0103f89:	68 a0 1a 11 c0       	push   0xc0111aa0
c0103f8e:	e9 b0 00 00 00       	jmp    c0104043 <thread_received_timer_interrupt+0xdb>
c0103f93:	e8 01 fb ff ff       	call   c0103a99 <thread_postpone_switches>
c0103f98:	83 ec 0c             	sub    esp,0xc
c0103f9b:	68 c0 56 11 c0       	push   0xc01156c0
c0103fa0:	e8 d8 f3 ff ff       	call   c010337d <spinlock_acquire>
c0103fa5:	a1 6c 57 11 c0       	mov    eax,ds:0xc011576c
c0103faa:	c7 05 6c 57 11 c0 00 00 00 00 	mov    DWORD PTR ds:0xc011576c,0x0
c0103fb4:	83 c4 10             	add    esp,0x10
c0103fb7:	85 c0                	test   eax,eax
c0103fb9:	74 37                	je     c0103ff2 <thread_received_timer_interrupt+0x8a>
c0103fbb:	8b 58 24             	mov    ebx,DWORD PTR [eax+0x24]
c0103fbe:	8b 48 2c             	mov    ecx,DWORD PTR [eax+0x2c]
c0103fc1:	39 0d 08 57 11 c0    	cmp    DWORD PTR ds:0xc0115708,ecx
c0103fc7:	8b 15 0c 57 11 c0    	mov    edx,DWORD PTR ds:0xc011570c
c0103fcd:	1b 50 30             	sbb    edx,DWORD PTR [eax+0x30]
c0103fd0:	72 0e                	jb     c0103fe0 <thread_received_timer_interrupt+0x78>
c0103fd2:	83 ec 0c             	sub    esp,0xc
c0103fd5:	50                   	push   eax
c0103fd6:	e8 10 fc ff ff       	call   c0103beb <thread_unblock>
c0103fdb:	83 c4 10             	add    esp,0x10
c0103fde:	eb 0e                	jmp    c0103fee <thread_received_timer_interrupt+0x86>
c0103fe0:	8b 15 6c 57 11 c0    	mov    edx,DWORD PTR ds:0xc011576c
c0103fe6:	89 50 24             	mov    DWORD PTR [eax+0x24],edx
c0103fe9:	a3 6c 57 11 c0       	mov    ds:0xc011576c,eax
c0103fee:	89 d8                	mov    eax,ebx
c0103ff0:	eb c5                	jmp    c0103fb7 <thread_received_timer_interrupt+0x4f>
c0103ff2:	a1 e8 1a 11 c0       	mov    eax,ds:0xc0111ae8
c0103ff7:	8b 00                	mov    eax,DWORD PTR [eax]
c0103ff9:	85 c0                	test   eax,eax
c0103ffb:	74 2d                	je     c010402a <thread_received_timer_interrupt+0xc2>
c0103ffd:	8b 48 40             	mov    ecx,DWORD PTR [eax+0x40]
c0104000:	8b 50 44             	mov    edx,DWORD PTR [eax+0x44]
c0104003:	89 d3                	mov    ebx,edx
c0104005:	09 cb                	or     ebx,ecx
c0104007:	74 21                	je     c010402a <thread_received_timer_interrupt+0xc2>
c0104009:	3b 0d 08 57 11 c0    	cmp    ecx,DWORD PTR ds:0xc0115708
c010400f:	1b 15 0c 57 11 c0    	sbb    edx,DWORD PTR ds:0xc011570c
c0104015:	73 13                	jae    c010402a <thread_received_timer_interrupt+0xc2>
c0104017:	c7 40 40 00 00 00 00 	mov    DWORD PTR [eax+0x40],0x0
c010401e:	c7 40 44 00 00 00 00 	mov    DWORD PTR [eax+0x44],0x0
c0104025:	e8 92 fa ff ff       	call   c0103abc <thread_schedule>
c010402a:	83 ec 0c             	sub    esp,0xc
c010402d:	68 c0 56 11 c0       	push   0xc01156c0
c0104032:	e8 4b f3 ff ff       	call   c0103382 <spinlock_release>
c0104037:	e8 ef fb ff ff       	call   c0103c2b <thread_end_postpone_switches>
c010403c:	c7 04 24 a0 1a 11 c0 	mov    DWORD PTR [esp],0xc0111aa0
c0104043:	e8 3a f3 ff ff       	call   c0103382 <spinlock_release>
c0104048:	83 c4 10             	add    esp,0x10
c010404b:	8b 5d fc             	mov    ebx,DWORD PTR [ebp-0x4]
c010404e:	c9                   	leave  
c010404f:	c3                   	ret    

c0104050 <thread_set_priority>:
c0104050:	55                   	push   ebp
c0104051:	89 e5                	mov    ebp,esp
c0104053:	53                   	push   ebx
c0104054:	50                   	push   eax
c0104055:	8b 5d 08             	mov    ebx,DWORD PTR [ebp+0x8]
c0104058:	b8 07 00 00 00       	mov    eax,0x7
c010405d:	81 fb ff 00 00 00    	cmp    ebx,0xff
c0104063:	77 28                	ja     c010408d <thread_set_priority+0x3d>
c0104065:	83 ec 0c             	sub    esp,0xc
c0104068:	68 a0 1a 11 c0       	push   0xc0111aa0
c010406d:	e8 0b f3 ff ff       	call   c010337d <spinlock_acquire>
c0104072:	a1 e8 1a 11 c0       	mov    eax,ds:0xc0111ae8
c0104077:	8b 00                	mov    eax,DWORD PTR [eax]
c0104079:	89 58 34             	mov    DWORD PTR [eax+0x34],ebx
c010407c:	c7 04 24 a0 1a 11 c0 	mov    DWORD PTR [esp],0xc0111aa0
c0104083:	e8 fa f2 ff ff       	call   c0103382 <spinlock_release>
c0104088:	83 c4 10             	add    esp,0x10
c010408b:	31 c0                	xor    eax,eax
c010408d:	8b 5d fc             	mov    ebx,DWORD PTR [ebp-0x4]
c0104090:	c9                   	leave  
c0104091:	c3                   	ret    

c0104092 <adt_blocking_byte_buffer_create>:
c0104092:	55                   	push   ebp
c0104093:	89 e5                	mov    ebp,esp
c0104095:	56                   	push   esi
c0104096:	53                   	push   ebx
c0104097:	8b 75 08             	mov    esi,DWORD PTR [ebp+0x8]
c010409a:	83 ec 0c             	sub    esp,0xc
c010409d:	6a 60                	push   0x60
c010409f:	e8 1f de ff ff       	call   c0101ec3 <malloc>
c01040a4:	89 c3                	mov    ebx,eax
c01040a6:	89 34 24             	mov    DWORD PTR [esp],esi
c01040a9:	e8 15 de ff ff       	call   c0101ec3 <malloc>
c01040ae:	89 03                	mov    DWORD PTR [ebx],eax
c01040b0:	89 73 04             	mov    DWORD PTR [ebx+0x4],esi
c01040b3:	c7 43 08 00 00 00 00 	mov    DWORD PTR [ebx+0x8],0x0
c01040ba:	c7 43 0c 00 00 00 00 	mov    DWORD PTR [ebx+0xc],0x0
c01040c1:	c7 43 10 00 00 00 00 	mov    DWORD PTR [ebx+0x10],0x0
c01040c8:	89 34 24             	mov    DWORD PTR [esp],esi
c01040cb:	e8 d8 f2 ff ff       	call   c01033a8 <semaphore_create>
c01040d0:	89 43 14             	mov    DWORD PTR [ebx+0x14],eax
c01040d3:	58                   	pop    eax
c01040d4:	5a                   	pop    edx
c01040d5:	68 cb 98 10 c0       	push   0xc01098cb
c01040da:	8d 43 18             	lea    eax,[ebx+0x18]
c01040dd:	50                   	push   eax
c01040de:	e8 69 f2 ff ff       	call   c010334c <spinlock_init>
c01040e3:	59                   	pop    ecx
c01040e4:	58                   	pop    eax
c01040e5:	56                   	push   esi
c01040e6:	ff 73 14             	push   DWORD PTR [ebx+0x14]
c01040e9:	e8 ff f3 ff ff       	call   c01034ed <semaphore_set_count>
c01040ee:	89 d8                	mov    eax,ebx
c01040f0:	8d 65 f8             	lea    esp,[ebp-0x8]
c01040f3:	5b                   	pop    ebx
c01040f4:	5e                   	pop    esi
c01040f5:	5d                   	pop    ebp
c01040f6:	c3                   	ret    

c01040f7 <adt_blocking_byte_buffer_destroy>:
c01040f7:	55                   	push   ebp
c01040f8:	89 e5                	mov    ebp,esp
c01040fa:	53                   	push   ebx
c01040fb:	83 ec 10             	sub    esp,0x10
c01040fe:	8b 5d 08             	mov    ebx,DWORD PTR [ebp+0x8]
c0104101:	ff 33                	push   DWORD PTR [ebx]
c0104103:	e8 d7 de ff ff       	call   c0101fdf <free>
c0104108:	83 c4 10             	add    esp,0x10
c010410b:	89 5d 08             	mov    DWORD PTR [ebp+0x8],ebx
c010410e:	8b 5d fc             	mov    ebx,DWORD PTR [ebp-0x4]
c0104111:	c9                   	leave  
c0104112:	e9 c8 de ff ff       	jmp    c0101fdf <free>

c0104117 <adt_blocking_byte_buffer_add>:
c0104117:	55                   	push   ebp
c0104118:	89 e5                	mov    ebp,esp
c010411a:	57                   	push   edi
c010411b:	56                   	push   esi
c010411c:	53                   	push   ebx
c010411d:	83 ec 18             	sub    esp,0x18
c0104120:	8b 5d 08             	mov    ebx,DWORD PTR [ebp+0x8]
c0104123:	8b 7d 0c             	mov    edi,DWORD PTR [ebp+0xc]
c0104126:	8d 73 18             	lea    esi,[ebx+0x18]
c0104129:	56                   	push   esi
c010412a:	e8 4e f2 ff ff       	call   c010337d <spinlock_acquire>
c010412f:	83 c4 10             	add    esp,0x10
c0104132:	8b 43 04             	mov    eax,DWORD PTR [ebx+0x4]
c0104135:	39 43 08             	cmp    DWORD PTR [ebx+0x8],eax
c0104138:	75 0d                	jne    c0104147 <adt_blocking_byte_buffer_add+0x30>
c010413a:	83 ec 0c             	sub    esp,0xc
c010413d:	68 e5 98 10 c0       	push   0xc01098e5
c0104142:	e8 2d 09 00 00       	call   c0104a74 <panic>
c0104147:	8b 13                	mov    edx,DWORD PTR [ebx]
c0104149:	8b 43 10             	mov    eax,DWORD PTR [ebx+0x10]
c010414c:	89 f9                	mov    ecx,edi
c010414e:	88 0c 02             	mov    BYTE PTR [edx+eax*1],cl
c0104151:	8b 43 10             	mov    eax,DWORD PTR [ebx+0x10]
c0104154:	40                   	inc    eax
c0104155:	99                   	cdq    
c0104156:	f7 7b 04             	idiv   DWORD PTR [ebx+0x4]
c0104159:	89 53 10             	mov    DWORD PTR [ebx+0x10],edx
c010415c:	ff 43 08             	inc    DWORD PTR [ebx+0x8]
c010415f:	83 ec 0c             	sub    esp,0xc
c0104162:	56                   	push   esi
c0104163:	e8 1a f2 ff ff       	call   c0103382 <spinlock_release>
c0104168:	83 c4 10             	add    esp,0x10
c010416b:	8b 43 14             	mov    eax,DWORD PTR [ebx+0x14]
c010416e:	89 45 08             	mov    DWORD PTR [ebp+0x8],eax
c0104171:	8d 65 f4             	lea    esp,[ebp-0xc]
c0104174:	5b                   	pop    ebx
c0104175:	5e                   	pop    esi
c0104176:	5f                   	pop    edi
c0104177:	5d                   	pop    ebp
c0104178:	e9 1a f3 ff ff       	jmp    c0103497 <semaphore_release>

c010417d <adt_blocking_byte_buffer_get>:
c010417d:	55                   	push   ebp
c010417e:	89 e5                	mov    ebp,esp
c0104180:	57                   	push   edi
c0104181:	56                   	push   esi
c0104182:	53                   	push   ebx
c0104183:	83 ec 18             	sub    esp,0x18
c0104186:	8b 5d 08             	mov    ebx,DWORD PTR [ebp+0x8]
c0104189:	ff 73 14             	push   DWORD PTR [ebx+0x14]
c010418c:	e8 45 f2 ff ff       	call   c01033d6 <semaphore_acquire>
c0104191:	8d 73 18             	lea    esi,[ebx+0x18]
c0104194:	89 34 24             	mov    DWORD PTR [esp],esi
c0104197:	e8 e1 f1 ff ff       	call   c010337d <spinlock_acquire>
c010419c:	8b 43 0c             	mov    eax,DWORD PTR [ebx+0xc]
c010419f:	8b 13                	mov    edx,DWORD PTR [ebx]
c01041a1:	0f b6 3c 02          	movzx  edi,BYTE PTR [edx+eax*1]
c01041a5:	40                   	inc    eax
c01041a6:	99                   	cdq    
c01041a7:	f7 7b 04             	idiv   DWORD PTR [ebx+0x4]
c01041aa:	89 53 0c             	mov    DWORD PTR [ebx+0xc],edx
c01041ad:	ff 4b 08             	dec    DWORD PTR [ebx+0x8]
c01041b0:	89 34 24             	mov    DWORD PTR [esp],esi
c01041b3:	e8 ca f1 ff ff       	call   c0103382 <spinlock_release>
c01041b8:	89 f8                	mov    eax,edi
c01041ba:	8d 65 f4             	lea    esp,[ebp-0xc]
c01041bd:	5b                   	pop    ebx
c01041be:	5e                   	pop    esi
c01041bf:	5f                   	pop    edi
c01041c0:	5d                   	pop    ebp
c01041c1:	c3                   	ret    

c01041c2 <adt_blocking_byte_buffer_try_get>:
c01041c2:	55                   	push   ebp
c01041c3:	89 e5                	mov    ebp,esp
c01041c5:	57                   	push   edi
c01041c6:	56                   	push   esi
c01041c7:	53                   	push   ebx
c01041c8:	83 ec 18             	sub    esp,0x18
c01041cb:	8b 5d 08             	mov    ebx,DWORD PTR [ebp+0x8]
c01041ce:	ff 73 14             	push   DWORD PTR [ebx+0x14]
c01041d1:	e8 71 f2 ff ff       	call   c0103447 <semaphore_try_acquire>
c01041d6:	89 c6                	mov    esi,eax
c01041d8:	83 c4 10             	add    esp,0x10
c01041db:	85 c0                	test   eax,eax
c01041dd:	75 32                	jne    c0104211 <adt_blocking_byte_buffer_try_get+0x4f>
c01041df:	8d 7b 18             	lea    edi,[ebx+0x18]
c01041e2:	83 ec 0c             	sub    esp,0xc
c01041e5:	57                   	push   edi
c01041e6:	e8 92 f1 ff ff       	call   c010337d <spinlock_acquire>
c01041eb:	8b 13                	mov    edx,DWORD PTR [ebx]
c01041ed:	8b 43 0c             	mov    eax,DWORD PTR [ebx+0xc]
c01041f0:	8a 14 02             	mov    dl,BYTE PTR [edx+eax*1]
c01041f3:	8b 45 0c             	mov    eax,DWORD PTR [ebp+0xc]
c01041f6:	88 10                	mov    BYTE PTR [eax],dl
c01041f8:	8b 43 0c             	mov    eax,DWORD PTR [ebx+0xc]
c01041fb:	40                   	inc    eax
c01041fc:	99                   	cdq    
c01041fd:	f7 7b 04             	idiv   DWORD PTR [ebx+0x4]
c0104200:	89 53 0c             	mov    DWORD PTR [ebx+0xc],edx
c0104203:	ff 4b 08             	dec    DWORD PTR [ebx+0x8]
c0104206:	89 3c 24             	mov    DWORD PTR [esp],edi
c0104209:	e8 74 f1 ff ff       	call   c0103382 <spinlock_release>
c010420e:	83 c4 10             	add    esp,0x10
c0104211:	89 f0                	mov    eax,esi
c0104213:	8d 65 f4             	lea    esp,[ebp-0xc]
c0104216:	5b                   	pop    ebx
c0104217:	5e                   	pop    esi
c0104218:	5f                   	pop    edi
c0104219:	5d                   	pop    ebp
c010421a:	c3                   	ret    

c010421b <adt_hashmap_create>:
c010421b:	55                   	push   ebp
c010421c:	89 e5                	mov    ebp,esp
c010421e:	56                   	push   esi
c010421f:	53                   	push   ebx
c0104220:	8b 75 08             	mov    esi,DWORD PTR [ebp+0x8]
c0104223:	83 ec 0c             	sub    esp,0xc
c0104226:	6a 14                	push   0x14
c0104228:	e8 96 dc ff ff       	call   c0101ec3 <malloc>
c010422d:	83 c4 10             	add    esp,0x10
c0104230:	85 f6                	test   esi,esi
c0104232:	7f 0d                	jg     c0104241 <adt_hashmap_create+0x26>
c0104234:	83 ec 0c             	sub    esp,0xc
c0104237:	68 18 99 10 c0       	push   0xc0109918
c010423c:	e8 33 08 00 00       	call   c0104a74 <panic>
c0104241:	89 c3                	mov    ebx,eax
c0104243:	8b 45 10             	mov    eax,DWORD PTR [ebp+0x10]
c0104246:	89 43 04             	mov    DWORD PTR [ebx+0x4],eax
c0104249:	8b 45 0c             	mov    eax,DWORD PTR [ebp+0xc]
c010424c:	89 03                	mov    DWORD PTR [ebx],eax
c010424e:	89 73 0c             	mov    DWORD PTR [ebx+0xc],esi
c0104251:	c7 43 10 00 00 00 00 	mov    DWORD PTR [ebx+0x10],0x0
c0104258:	83 ec 0c             	sub    esp,0xc
c010425b:	8d 04 b5 00 00 00 00 	lea    eax,[esi*4+0x0]
c0104262:	50                   	push   eax
c0104263:	e8 5b dc ff ff       	call   c0101ec3 <malloc>
c0104268:	89 43 08             	mov    DWORD PTR [ebx+0x8],eax
c010426b:	83 c4 10             	add    esp,0x10
c010426e:	31 c0                	xor    eax,eax
c0104270:	8b 53 08             	mov    edx,DWORD PTR [ebx+0x8]
c0104273:	c7 04 82 00 00 00 00 	mov    DWORD PTR [edx+eax*4],0x0
c010427a:	40                   	inc    eax
c010427b:	39 c6                	cmp    esi,eax
c010427d:	75 f1                	jne    c0104270 <adt_hashmap_create+0x55>
c010427f:	89 d8                	mov    eax,ebx
c0104281:	8d 65 f8             	lea    esp,[ebp-0x8]
c0104284:	5b                   	pop    ebx
c0104285:	5e                   	pop    esi
c0104286:	5d                   	pop    ebp
c0104287:	c3                   	ret    

c0104288 <adt_hashmap_contains>:
c0104288:	55                   	push   ebp
c0104289:	89 e5                	mov    ebp,esp
c010428b:	57                   	push   edi
c010428c:	56                   	push   esi
c010428d:	53                   	push   ebx
c010428e:	83 ec 18             	sub    esp,0x18
c0104291:	8b 5d 08             	mov    ebx,DWORD PTR [ebp+0x8]
c0104294:	8b 7d 0c             	mov    edi,DWORD PTR [ebp+0xc]
c0104297:	57                   	push   edi
c0104298:	ff 13                	call   DWORD PTR [ebx]
c010429a:	31 d2                	xor    edx,edx
c010429c:	f7 73 0c             	div    DWORD PTR [ebx+0xc]
c010429f:	8b 43 08             	mov    eax,DWORD PTR [ebx+0x8]
c01042a2:	8b 34 90             	mov    esi,DWORD PTR [eax+edx*4]
c01042a5:	83 c4 10             	add    esp,0x10
c01042a8:	85 f6                	test   esi,esi
c01042aa:	75 04                	jne    c01042b0 <adt_hashmap_contains+0x28>
c01042ac:	31 c0                	xor    eax,eax
c01042ae:	eb 3b                	jmp    c01042eb <adt_hashmap_contains+0x63>
c01042b0:	83 ec 0c             	sub    esp,0xc
c01042b3:	56                   	push   esi
c01042b4:	e8 45 03 00 00       	call   c01045fe <adt_list_reset>
c01042b9:	83 c4 10             	add    esp,0x10
c01042bc:	83 ec 0c             	sub    esp,0xc
c01042bf:	56                   	push   esi
c01042c0:	e8 4a 03 00 00       	call   c010460f <adt_list_has_next>
c01042c5:	83 c4 10             	add    esp,0x10
c01042c8:	84 c0                	test   al,al
c01042ca:	74 e0                	je     c01042ac <adt_hashmap_contains+0x24>
c01042cc:	83 ec 0c             	sub    esp,0xc
c01042cf:	56                   	push   esi
c01042d0:	e8 5f 03 00 00       	call   c0104634 <adt_list_get_next>
c01042d5:	83 c4 10             	add    esp,0x10
c01042d8:	85 c0                	test   eax,eax
c01042da:	74 e0                	je     c01042bc <adt_hashmap_contains+0x34>
c01042dc:	52                   	push   edx
c01042dd:	52                   	push   edx
c01042de:	57                   	push   edi
c01042df:	ff 30                	push   DWORD PTR [eax]
c01042e1:	ff 53 04             	call   DWORD PTR [ebx+0x4]
c01042e4:	83 c4 10             	add    esp,0x10
c01042e7:	84 c0                	test   al,al
c01042e9:	74 d1                	je     c01042bc <adt_hashmap_contains+0x34>
c01042eb:	8d 65 f4             	lea    esp,[ebp-0xc]
c01042ee:	5b                   	pop    ebx
c01042ef:	5e                   	pop    esi
c01042f0:	5f                   	pop    edi
c01042f1:	5d                   	pop    ebp
c01042f2:	c3                   	ret    

c01042f3 <adt_hashmap_add>:
c01042f3:	55                   	push   ebp
c01042f4:	89 e5                	mov    ebp,esp
c01042f6:	57                   	push   edi
c01042f7:	56                   	push   esi
c01042f8:	53                   	push   ebx
c01042f9:	83 ec 28             	sub    esp,0x28
c01042fc:	8b 5d 08             	mov    ebx,DWORD PTR [ebp+0x8]
c01042ff:	8b 75 0c             	mov    esi,DWORD PTR [ebp+0xc]
c0104302:	8b 7d 10             	mov    edi,DWORD PTR [ebp+0x10]
c0104305:	56                   	push   esi
c0104306:	ff 13                	call   DWORD PTR [ebx]
c0104308:	31 d2                	xor    edx,edx
c010430a:	f7 73 0c             	div    DWORD PTR [ebx+0xc]
c010430d:	8b 43 08             	mov    eax,DWORD PTR [ebx+0x8]
c0104310:	8d 0c 90             	lea    ecx,[eax+edx*4]
c0104313:	83 c4 10             	add    esp,0x10
c0104316:	83 39 00             	cmp    DWORD PTR [ecx],0x0
c0104319:	75 13                	jne    c010432e <adt_hashmap_add+0x3b>
c010431b:	89 55 e0             	mov    DWORD PTR [ebp-0x20],edx
c010431e:	89 4d e4             	mov    DWORD PTR [ebp-0x1c],ecx
c0104321:	e8 fc 00 00 00       	call   c0104422 <adt_list_create>
c0104326:	8b 4d e4             	mov    ecx,DWORD PTR [ebp-0x1c]
c0104329:	89 01                	mov    DWORD PTR [ecx],eax
c010432b:	8b 55 e0             	mov    edx,DWORD PTR [ebp-0x20]
c010432e:	8b 43 08             	mov    eax,DWORD PTR [ebx+0x8]
c0104331:	8b 14 90             	mov    edx,DWORD PTR [eax+edx*4]
c0104334:	89 55 e4             	mov    DWORD PTR [ebp-0x1c],edx
c0104337:	83 ec 0c             	sub    esp,0xc
c010433a:	6a 08                	push   0x8
c010433c:	e8 82 db ff ff       	call   c0101ec3 <malloc>
c0104341:	89 30                	mov    DWORD PTR [eax],esi
c0104343:	89 78 04             	mov    DWORD PTR [eax+0x4],edi
c0104346:	ff 43 10             	inc    DWORD PTR [ebx+0x10]
c0104349:	83 c4 10             	add    esp,0x10
c010434c:	89 45 0c             	mov    DWORD PTR [ebp+0xc],eax
c010434f:	8b 55 e4             	mov    edx,DWORD PTR [ebp-0x1c]
c0104352:	89 55 08             	mov    DWORD PTR [ebp+0x8],edx
c0104355:	8d 65 f4             	lea    esp,[ebp-0xc]
c0104358:	5b                   	pop    ebx
c0104359:	5e                   	pop    esi
c010435a:	5f                   	pop    edi
c010435b:	5d                   	pop    ebp
c010435c:	e9 2d 01 00 00       	jmp    c010448e <adt_list_add_back>

c0104361 <adt_hashmap_get>:
c0104361:	55                   	push   ebp
c0104362:	89 e5                	mov    ebp,esp
c0104364:	57                   	push   edi
c0104365:	56                   	push   esi
c0104366:	53                   	push   ebx
c0104367:	83 ec 18             	sub    esp,0x18
c010436a:	8b 5d 08             	mov    ebx,DWORD PTR [ebp+0x8]
c010436d:	ff 75 0c             	push   DWORD PTR [ebp+0xc]
c0104370:	ff 13                	call   DWORD PTR [ebx]
c0104372:	31 d2                	xor    edx,edx
c0104374:	f7 73 0c             	div    DWORD PTR [ebx+0xc]
c0104377:	8b 43 08             	mov    eax,DWORD PTR [ebx+0x8]
c010437a:	8b 34 90             	mov    esi,DWORD PTR [eax+edx*4]
c010437d:	83 c4 10             	add    esp,0x10
c0104380:	85 f6                	test   esi,esi
c0104382:	74 51                	je     c01043d5 <adt_hashmap_get+0x74>
c0104384:	83 ec 0c             	sub    esp,0xc
c0104387:	56                   	push   esi
c0104388:	e8 71 02 00 00       	call   c01045fe <adt_list_reset>
c010438d:	83 c4 10             	add    esp,0x10
c0104390:	83 ec 0c             	sub    esp,0xc
c0104393:	56                   	push   esi
c0104394:	e8 76 02 00 00       	call   c010460f <adt_list_has_next>
c0104399:	83 c4 10             	add    esp,0x10
c010439c:	84 c0                	test   al,al
c010439e:	74 28                	je     c01043c8 <adt_hashmap_get+0x67>
c01043a0:	83 ec 0c             	sub    esp,0xc
c01043a3:	56                   	push   esi
c01043a4:	e8 8b 02 00 00       	call   c0104634 <adt_list_get_next>
c01043a9:	89 c7                	mov    edi,eax
c01043ab:	83 c4 10             	add    esp,0x10
c01043ae:	85 c0                	test   eax,eax
c01043b0:	74 de                	je     c0104390 <adt_hashmap_get+0x2f>
c01043b2:	50                   	push   eax
c01043b3:	50                   	push   eax
c01043b4:	ff 75 0c             	push   DWORD PTR [ebp+0xc]
c01043b7:	ff 37                	push   DWORD PTR [edi]
c01043b9:	ff 53 04             	call   DWORD PTR [ebx+0x4]
c01043bc:	83 c4 10             	add    esp,0x10
c01043bf:	84 c0                	test   al,al
c01043c1:	74 cd                	je     c0104390 <adt_hashmap_get+0x2f>
c01043c3:	8b 47 04             	mov    eax,DWORD PTR [edi+0x4]
c01043c6:	eb 0f                	jmp    c01043d7 <adt_hashmap_get+0x76>
c01043c8:	83 ec 0c             	sub    esp,0xc
c01043cb:	68 4c 99 10 c0       	push   0xc010994c
c01043d0:	e8 9f 06 00 00       	call   c0104a74 <panic>
c01043d5:	31 c0                	xor    eax,eax
c01043d7:	8d 65 f4             	lea    esp,[ebp-0xc]
c01043da:	5b                   	pop    ebx
c01043db:	5e                   	pop    esi
c01043dc:	5f                   	pop    edi
c01043dd:	5d                   	pop    ebp
c01043de:	c3                   	ret    

c01043df <adt_hashmap_size>:
c01043df:	55                   	push   ebp
c01043e0:	89 e5                	mov    ebp,esp
c01043e2:	8b 45 08             	mov    eax,DWORD PTR [ebp+0x8]
c01043e5:	8b 40 10             	mov    eax,DWORD PTR [eax+0x10]
c01043e8:	5d                   	pop    ebp
c01043e9:	c3                   	ret    

c01043ea <adt_hashmap_null_terminated_string_hash_function>:
c01043ea:	55                   	push   ebp
c01043eb:	89 e5                	mov    ebp,esp
c01043ed:	8b 4d 08             	mov    ecx,DWORD PTR [ebp+0x8]
c01043f0:	b8 05 15 00 00       	mov    eax,0x1505
c01043f5:	41                   	inc    ecx
c01043f6:	0f be 51 ff          	movsx  edx,BYTE PTR [ecx-0x1]
c01043fa:	84 d2                	test   dl,dl
c01043fc:	74 07                	je     c0104405 <adt_hashmap_null_terminated_string_hash_function+0x1b>
c01043fe:	6b c0 21             	imul   eax,eax,0x21
c0104401:	01 d0                	add    eax,edx
c0104403:	eb f0                	jmp    c01043f5 <adt_hashmap_null_terminated_string_hash_function+0xb>
c0104405:	5d                   	pop    ebp
c0104406:	c3                   	ret    

c0104407 <adt_hashmap_null_terminated_string_equality_function>:
c0104407:	55                   	push   ebp
c0104408:	89 e5                	mov    ebp,esp
c010440a:	83 ec 10             	sub    esp,0x10
c010440d:	ff 75 0c             	push   DWORD PTR [ebp+0xc]
c0104410:	ff 75 08             	push   DWORD PTR [ebp+0x8]
c0104413:	e8 95 ce ff ff       	call   c01012ad <strcmp>
c0104418:	83 c4 10             	add    esp,0x10
c010441b:	85 c0                	test   eax,eax
c010441d:	0f 94 c0             	sete   al
c0104420:	c9                   	leave  
c0104421:	c3                   	ret    

c0104422 <adt_list_create>:
c0104422:	55                   	push   ebp
c0104423:	89 e5                	mov    ebp,esp
c0104425:	83 ec 14             	sub    esp,0x14
c0104428:	6a 14                	push   0x14
c010442a:	e8 94 da ff ff       	call   c0101ec3 <malloc>
c010442f:	c7 00 00 00 00 00    	mov    DWORD PTR [eax],0x0
c0104435:	c7 40 04 00 00 00 00 	mov    DWORD PTR [eax+0x4],0x0
c010443c:	c7 40 0c 00 00 00 00 	mov    DWORD PTR [eax+0xc],0x0
c0104443:	c7 40 08 00 00 00 00 	mov    DWORD PTR [eax+0x8],0x0
c010444a:	c6 40 10 00          	mov    BYTE PTR [eax+0x10],0x0
c010444e:	c9                   	leave  
c010444f:	c3                   	ret    

c0104450 <adt_list_add_front>:
c0104450:	55                   	push   ebp
c0104451:	89 e5                	mov    ebp,esp
c0104453:	53                   	push   ebx
c0104454:	83 ec 10             	sub    esp,0x10
c0104457:	8b 5d 08             	mov    ebx,DWORD PTR [ebp+0x8]
c010445a:	6a 08                	push   0x8
c010445c:	e8 62 da ff ff       	call   c0101ec3 <malloc>
c0104461:	8b 55 0c             	mov    edx,DWORD PTR [ebp+0xc]
c0104464:	89 10                	mov    DWORD PTR [eax],edx
c0104466:	c7 40 04 00 00 00 00 	mov    DWORD PTR [eax+0x4],0x0
c010446d:	83 c4 10             	add    esp,0x10
c0104470:	83 7b 08 00          	cmp    DWORD PTR [ebx+0x8],0x0
c0104474:	75 05                	jne    c010447b <adt_list_add_front+0x2b>
c0104476:	89 43 04             	mov    DWORD PTR [ebx+0x4],eax
c0104479:	eb 05                	jmp    c0104480 <adt_list_add_front+0x30>
c010447b:	8b 13                	mov    edx,DWORD PTR [ebx]
c010447d:	89 50 04             	mov    DWORD PTR [eax+0x4],edx
c0104480:	89 03                	mov    DWORD PTR [ebx],eax
c0104482:	c6 43 10 01          	mov    BYTE PTR [ebx+0x10],0x1
c0104486:	ff 43 08             	inc    DWORD PTR [ebx+0x8]
c0104489:	8b 5d fc             	mov    ebx,DWORD PTR [ebp-0x4]
c010448c:	c9                   	leave  
c010448d:	c3                   	ret    

c010448e <adt_list_add_back>:
c010448e:	55                   	push   ebp
c010448f:	89 e5                	mov    ebp,esp
c0104491:	53                   	push   ebx
c0104492:	83 ec 10             	sub    esp,0x10
c0104495:	8b 5d 08             	mov    ebx,DWORD PTR [ebp+0x8]
c0104498:	6a 08                	push   0x8
c010449a:	e8 24 da ff ff       	call   c0101ec3 <malloc>
c010449f:	8b 55 0c             	mov    edx,DWORD PTR [ebp+0xc]
c01044a2:	89 10                	mov    DWORD PTR [eax],edx
c01044a4:	c7 40 04 00 00 00 00 	mov    DWORD PTR [eax+0x4],0x0
c01044ab:	83 c4 10             	add    esp,0x10
c01044ae:	83 7b 08 00          	cmp    DWORD PTR [ebx+0x8],0x0
c01044b2:	75 04                	jne    c01044b8 <adt_list_add_back+0x2a>
c01044b4:	89 03                	mov    DWORD PTR [ebx],eax
c01044b6:	eb 06                	jmp    c01044be <adt_list_add_back+0x30>
c01044b8:	8b 53 04             	mov    edx,DWORD PTR [ebx+0x4]
c01044bb:	89 42 04             	mov    DWORD PTR [edx+0x4],eax
c01044be:	89 43 04             	mov    DWORD PTR [ebx+0x4],eax
c01044c1:	c6 43 10 01          	mov    BYTE PTR [ebx+0x10],0x1
c01044c5:	ff 43 08             	inc    DWORD PTR [ebx+0x8]
c01044c8:	8b 5d fc             	mov    ebx,DWORD PTR [ebp-0x4]
c01044cb:	c9                   	leave  
c01044cc:	c3                   	ret    

c01044cd <adt_list_remove_front>:
c01044cd:	55                   	push   ebp
c01044ce:	89 e5                	mov    ebp,esp
c01044d0:	53                   	push   ebx
c01044d1:	50                   	push   eax
c01044d2:	8b 45 08             	mov    eax,DWORD PTR [ebp+0x8]
c01044d5:	8b 50 08             	mov    edx,DWORD PTR [eax+0x8]
c01044d8:	85 d2                	test   edx,edx
c01044da:	75 0d                	jne    c01044e9 <adt_list_remove_front+0x1c>
c01044dc:	83 ec 0c             	sub    esp,0xc
c01044df:	68 91 99 10 c0       	push   0xc0109991
c01044e4:	e8 8b 05 00 00       	call   c0104a74 <panic>
c01044e9:	8b 08                	mov    ecx,DWORD PTR [eax]
c01044eb:	8b 59 04             	mov    ebx,DWORD PTR [ecx+0x4]
c01044ee:	89 18                	mov    DWORD PTR [eax],ebx
c01044f0:	85 db                	test   ebx,ebx
c01044f2:	75 07                	jne    c01044fb <adt_list_remove_front+0x2e>
c01044f4:	c7 40 04 00 00 00 00 	mov    DWORD PTR [eax+0x4],0x0
c01044fb:	4a                   	dec    edx
c01044fc:	89 50 08             	mov    DWORD PTR [eax+0x8],edx
c01044ff:	c6 40 10 01          	mov    BYTE PTR [eax+0x10],0x1
c0104503:	8b 19                	mov    ebx,DWORD PTR [ecx]
c0104505:	83 ec 0c             	sub    esp,0xc
c0104508:	51                   	push   ecx
c0104509:	e8 d1 da ff ff       	call   c0101fdf <free>
c010450e:	89 d8                	mov    eax,ebx
c0104510:	8b 5d fc             	mov    ebx,DWORD PTR [ebp-0x4]
c0104513:	c9                   	leave  
c0104514:	c3                   	ret    

c0104515 <adt_list_destroy>:
c0104515:	55                   	push   ebp
c0104516:	89 e5                	mov    ebp,esp
c0104518:	53                   	push   ebx
c0104519:	50                   	push   eax
c010451a:	8b 5d 08             	mov    ebx,DWORD PTR [ebp+0x8]
c010451d:	83 7b 08 00          	cmp    DWORD PTR [ebx+0x8],0x0
c0104521:	7e 0e                	jle    c0104531 <adt_list_destroy+0x1c>
c0104523:	83 ec 0c             	sub    esp,0xc
c0104526:	53                   	push   ebx
c0104527:	e8 a1 ff ff ff       	call   c01044cd <adt_list_remove_front>
c010452c:	83 c4 10             	add    esp,0x10
c010452f:	eb ec                	jmp    c010451d <adt_list_destroy+0x8>
c0104531:	89 5d 08             	mov    DWORD PTR [ebp+0x8],ebx
c0104534:	8b 5d fc             	mov    ebx,DWORD PTR [ebp-0x4]
c0104537:	c9                   	leave  
c0104538:	e9 a2 da ff ff       	jmp    c0101fdf <free>

c010453d <adt_list_remove_back>:
c010453d:	55                   	push   ebp
c010453e:	89 e5                	mov    ebp,esp
c0104540:	53                   	push   ebx
c0104541:	50                   	push   eax
c0104542:	8b 45 08             	mov    eax,DWORD PTR [ebp+0x8]
c0104545:	83 78 08 00          	cmp    DWORD PTR [eax+0x8],0x0
c0104549:	75 0d                	jne    c0104558 <adt_list_remove_back+0x1b>
c010454b:	83 ec 0c             	sub    esp,0xc
c010454e:	68 b6 99 10 c0       	push   0xc01099b6
c0104553:	e8 1c 05 00 00       	call   c0104a74 <panic>
c0104558:	8b 50 04             	mov    edx,DWORD PTR [eax+0x4]
c010455b:	8b 08                	mov    ecx,DWORD PTR [eax]
c010455d:	39 d1                	cmp    ecx,edx
c010455f:	75 0f                	jne    c0104570 <adt_list_remove_back+0x33>
c0104561:	c7 00 00 00 00 00    	mov    DWORD PTR [eax],0x0
c0104567:	c7 40 04 00 00 00 00 	mov    DWORD PTR [eax+0x4],0x0
c010456e:	eb 25                	jmp    c0104595 <adt_list_remove_back+0x58>
c0104570:	89 48 0c             	mov    DWORD PTR [eax+0xc],ecx
c0104573:	8b 48 0c             	mov    ecx,DWORD PTR [eax+0xc]
c0104576:	85 c9                	test   ecx,ecx
c0104578:	74 1b                	je     c0104595 <adt_list_remove_back+0x58>
c010457a:	8b 59 04             	mov    ebx,DWORD PTR [ecx+0x4]
c010457d:	39 d3                	cmp    ebx,edx
c010457f:	75 0f                	jne    c0104590 <adt_list_remove_back+0x53>
c0104581:	c7 41 04 00 00 00 00 	mov    DWORD PTR [ecx+0x4],0x0
c0104588:	8b 48 0c             	mov    ecx,DWORD PTR [eax+0xc]
c010458b:	89 48 04             	mov    DWORD PTR [eax+0x4],ecx
c010458e:	eb 05                	jmp    c0104595 <adt_list_remove_back+0x58>
c0104590:	89 58 0c             	mov    DWORD PTR [eax+0xc],ebx
c0104593:	eb de                	jmp    c0104573 <adt_list_remove_back+0x36>
c0104595:	ff 48 08             	dec    DWORD PTR [eax+0x8]
c0104598:	c6 40 10 01          	mov    BYTE PTR [eax+0x10],0x1
c010459c:	8b 1a                	mov    ebx,DWORD PTR [edx]
c010459e:	83 ec 0c             	sub    esp,0xc
c01045a1:	52                   	push   edx
c01045a2:	e8 38 da ff ff       	call   c0101fdf <free>
c01045a7:	89 d8                	mov    eax,ebx
c01045a9:	8b 5d fc             	mov    ebx,DWORD PTR [ebp-0x4]
c01045ac:	c9                   	leave  
c01045ad:	c3                   	ret    

c01045ae <adt_list_get_front>:
c01045ae:	55                   	push   ebp
c01045af:	89 e5                	mov    ebp,esp
c01045b1:	83 ec 08             	sub    esp,0x8
c01045b4:	8b 45 08             	mov    eax,DWORD PTR [ebp+0x8]
c01045b7:	83 78 08 00          	cmp    DWORD PTR [eax+0x8],0x0
c01045bb:	75 0d                	jne    c01045ca <adt_list_get_front+0x1c>
c01045bd:	83 ec 0c             	sub    esp,0xc
c01045c0:	68 da 99 10 c0       	push   0xc01099da
c01045c5:	e8 aa 04 00 00       	call   c0104a74 <panic>
c01045ca:	8b 00                	mov    eax,DWORD PTR [eax]
c01045cc:	8b 00                	mov    eax,DWORD PTR [eax]
c01045ce:	c9                   	leave  
c01045cf:	c3                   	ret    

c01045d0 <adt_list_get_back>:
c01045d0:	55                   	push   ebp
c01045d1:	89 e5                	mov    ebp,esp
c01045d3:	83 ec 08             	sub    esp,0x8
c01045d6:	8b 45 08             	mov    eax,DWORD PTR [ebp+0x8]
c01045d9:	83 78 08 00          	cmp    DWORD PTR [eax+0x8],0x0
c01045dd:	75 0d                	jne    c01045ec <adt_list_get_back+0x1c>
c01045df:	83 ec 0c             	sub    esp,0xc
c01045e2:	68 fc 99 10 c0       	push   0xc01099fc
c01045e7:	e8 88 04 00 00       	call   c0104a74 <panic>
c01045ec:	8b 40 04             	mov    eax,DWORD PTR [eax+0x4]
c01045ef:	8b 00                	mov    eax,DWORD PTR [eax]
c01045f1:	c9                   	leave  
c01045f2:	c3                   	ret    

c01045f3 <adt_list_size>:
c01045f3:	55                   	push   ebp
c01045f4:	89 e5                	mov    ebp,esp
c01045f6:	8b 45 08             	mov    eax,DWORD PTR [ebp+0x8]
c01045f9:	8b 40 08             	mov    eax,DWORD PTR [eax+0x8]
c01045fc:	5d                   	pop    ebp
c01045fd:	c3                   	ret    

c01045fe <adt_list_reset>:
c01045fe:	55                   	push   ebp
c01045ff:	89 e5                	mov    ebp,esp
c0104601:	8b 45 08             	mov    eax,DWORD PTR [ebp+0x8]
c0104604:	c6 40 10 00          	mov    BYTE PTR [eax+0x10],0x0
c0104608:	8b 10                	mov    edx,DWORD PTR [eax]
c010460a:	89 50 0c             	mov    DWORD PTR [eax+0xc],edx
c010460d:	5d                   	pop    ebp
c010460e:	c3                   	ret    

c010460f <adt_list_has_next>:
c010460f:	55                   	push   ebp
c0104610:	89 e5                	mov    ebp,esp
c0104612:	83 ec 08             	sub    esp,0x8
c0104615:	8b 45 08             	mov    eax,DWORD PTR [ebp+0x8]
c0104618:	80 78 10 00          	cmp    BYTE PTR [eax+0x10],0x0
c010461c:	74 0d                	je     c010462b <adt_list_has_next+0x1c>
c010461e:	83 ec 0c             	sub    esp,0xc
c0104621:	68 1d 9a 10 c0       	push   0xc0109a1d
c0104626:	e8 49 04 00 00       	call   c0104a74 <panic>
c010462b:	83 78 0c 00          	cmp    DWORD PTR [eax+0xc],0x0
c010462f:	0f 95 c0             	setne  al
c0104632:	c9                   	leave  
c0104633:	c3                   	ret    

c0104634 <adt_list_get_next>:
c0104634:	55                   	push   ebp
c0104635:	89 e5                	mov    ebp,esp
c0104637:	83 ec 08             	sub    esp,0x8
c010463a:	8b 55 08             	mov    edx,DWORD PTR [ebp+0x8]
c010463d:	80 7a 10 00          	cmp    BYTE PTR [edx+0x10],0x0
c0104641:	74 0a                	je     c010464d <adt_list_get_next+0x19>
c0104643:	83 ec 0c             	sub    esp,0xc
c0104646:	68 4e 9a 10 c0       	push   0xc0109a4e
c010464b:	eb 0f                	jmp    c010465c <adt_list_get_next+0x28>
c010464d:	8b 4a 0c             	mov    ecx,DWORD PTR [edx+0xc]
c0104650:	85 c9                	test   ecx,ecx
c0104652:	75 0d                	jne    c0104661 <adt_list_get_next+0x2d>
c0104654:	83 ec 0c             	sub    esp,0xc
c0104657:	68 7f 9a 10 c0       	push   0xc0109a7f
c010465c:	e8 13 04 00 00       	call   c0104a74 <panic>
c0104661:	8b 01                	mov    eax,DWORD PTR [ecx]
c0104663:	8b 49 04             	mov    ecx,DWORD PTR [ecx+0x4]
c0104666:	89 4a 0c             	mov    DWORD PTR [edx+0xc],ecx
c0104669:	c9                   	leave  
c010466a:	c3                   	ret    

c010466b <adt_list_circulate>:
c010466b:	55                   	push   ebp
c010466c:	89 e5                	mov    ebp,esp
c010466e:	53                   	push   ebx
c010466f:	83 ec 20             	sub    esp,0x20
c0104672:	8b 5d 08             	mov    ebx,DWORD PTR [ebp+0x8]
c0104675:	53                   	push   ebx
c0104676:	e8 52 fe ff ff       	call   c01044cd <adt_list_remove_front>
c010467b:	5a                   	pop    edx
c010467c:	59                   	pop    ecx
c010467d:	50                   	push   eax
c010467e:	89 45 f4             	mov    DWORD PTR [ebp-0xc],eax
c0104681:	53                   	push   ebx
c0104682:	e8 07 fe ff ff       	call   c010448e <adt_list_add_back>
c0104687:	8b 45 f4             	mov    eax,DWORD PTR [ebp-0xc]
c010468a:	8b 5d fc             	mov    ebx,DWORD PTR [ebp-0x4]
c010468d:	c9                   	leave  
c010468e:	c3                   	ret    

c010468f <adt_list_remove_element>:
c010468f:	55                   	push   ebp
c0104690:	89 e5                	mov    ebp,esp
c0104692:	56                   	push   esi
c0104693:	53                   	push   ebx
c0104694:	8b 45 08             	mov    eax,DWORD PTR [ebp+0x8]
c0104697:	83 78 08 00          	cmp    DWORD PTR [eax+0x8],0x0
c010469b:	75 0d                	jne    c01046aa <adt_list_remove_element+0x1b>
c010469d:	83 ec 0c             	sub    esp,0xc
c01046a0:	68 a2 9a 10 c0       	push   0xc0109aa2
c01046a5:	e8 ca 03 00 00       	call   c0104a74 <panic>
c01046aa:	8b 10                	mov    edx,DWORD PTR [eax]
c01046ac:	89 50 0c             	mov    DWORD PTR [eax+0xc],edx
c01046af:	31 d2                	xor    edx,edx
c01046b1:	8b 48 0c             	mov    ecx,DWORD PTR [eax+0xc]
c01046b4:	85 c9                	test   ecx,ecx
c01046b6:	74 47                	je     c01046ff <adt_list_remove_element+0x70>
c01046b8:	8b 59 04             	mov    ebx,DWORD PTR [ecx+0x4]
c01046bb:	8b 75 0c             	mov    esi,DWORD PTR [ebp+0xc]
c01046be:	39 31                	cmp    DWORD PTR [ecx],esi
c01046c0:	75 36                	jne    c01046f8 <adt_list_remove_element+0x69>
c01046c2:	85 d2                	test   edx,edx
c01046c4:	75 0f                	jne    c01046d5 <adt_list_remove_element+0x46>
c01046c6:	89 18                	mov    DWORD PTR [eax],ebx
c01046c8:	85 db                	test   ebx,ebx
c01046ca:	75 0c                	jne    c01046d8 <adt_list_remove_element+0x49>
c01046cc:	c7 40 04 00 00 00 00 	mov    DWORD PTR [eax+0x4],0x0
c01046d3:	eb 18                	jmp    c01046ed <adt_list_remove_element+0x5e>
c01046d5:	89 5a 04             	mov    DWORD PTR [edx+0x4],ebx
c01046d8:	8b 70 04             	mov    esi,DWORD PTR [eax+0x4]
c01046db:	39 70 0c             	cmp    DWORD PTR [eax+0xc],esi
c01046de:	75 0d                	jne    c01046ed <adt_list_remove_element+0x5e>
c01046e0:	89 50 04             	mov    DWORD PTR [eax+0x4],edx
c01046e3:	85 d2                	test   edx,edx
c01046e5:	75 06                	jne    c01046ed <adt_list_remove_element+0x5e>
c01046e7:	c7 00 00 00 00 00    	mov    DWORD PTR [eax],0x0
c01046ed:	c6 40 10 01          	mov    BYTE PTR [eax+0x10],0x1
c01046f1:	ff 48 08             	dec    DWORD PTR [eax+0x8]
c01046f4:	b0 01                	mov    al,0x1
c01046f6:	eb 09                	jmp    c0104701 <adt_list_remove_element+0x72>
c01046f8:	89 58 0c             	mov    DWORD PTR [eax+0xc],ebx
c01046fb:	89 ca                	mov    edx,ecx
c01046fd:	eb b2                	jmp    c01046b1 <adt_list_remove_element+0x22>
c01046ff:	31 c0                	xor    eax,eax
c0104701:	8d 65 f8             	lea    esp,[ebp-0x8]
c0104704:	5b                   	pop    ebx
c0104705:	5e                   	pop    esi
c0104706:	5d                   	pop    ebp
c0104707:	c3                   	ret    

c0104708 <adt_stack_create>:
c0104708:	55                   	push   ebp
c0104709:	89 e5                	mov    ebp,esp
c010470b:	53                   	push   ebx
c010470c:	83 ec 10             	sub    esp,0x10
c010470f:	6a 04                	push   0x4
c0104711:	e8 ad d7 ff ff       	call   c0101ec3 <malloc>
c0104716:	89 c3                	mov    ebx,eax
c0104718:	e8 05 fd ff ff       	call   c0104422 <adt_list_create>
c010471d:	89 03                	mov    DWORD PTR [ebx],eax
c010471f:	89 d8                	mov    eax,ebx
c0104721:	8b 5d fc             	mov    ebx,DWORD PTR [ebp-0x4]
c0104724:	c9                   	leave  
c0104725:	c3                   	ret    

c0104726 <adt_stack_destroy>:
c0104726:	55                   	push   ebp
c0104727:	89 e5                	mov    ebp,esp
c0104729:	53                   	push   ebx
c010472a:	83 ec 10             	sub    esp,0x10
c010472d:	8b 5d 08             	mov    ebx,DWORD PTR [ebp+0x8]
c0104730:	ff 33                	push   DWORD PTR [ebx]
c0104732:	e8 de fd ff ff       	call   c0104515 <adt_list_destroy>
c0104737:	83 c4 10             	add    esp,0x10
c010473a:	89 5d 08             	mov    DWORD PTR [ebp+0x8],ebx
c010473d:	8b 5d fc             	mov    ebx,DWORD PTR [ebp-0x4]
c0104740:	c9                   	leave  
c0104741:	e9 99 d8 ff ff       	jmp    c0101fdf <free>

c0104746 <adt_stack_push>:
c0104746:	55                   	push   ebp
c0104747:	89 e5                	mov    ebp,esp
c0104749:	8b 45 08             	mov    eax,DWORD PTR [ebp+0x8]
c010474c:	8b 00                	mov    eax,DWORD PTR [eax]
c010474e:	89 45 08             	mov    DWORD PTR [ebp+0x8],eax
c0104751:	5d                   	pop    ebp
c0104752:	e9 f9 fc ff ff       	jmp    c0104450 <adt_list_add_front>

c0104757 <adt_stack_pop>:
c0104757:	55                   	push   ebp
c0104758:	89 e5                	mov    ebp,esp
c010475a:	8b 45 08             	mov    eax,DWORD PTR [ebp+0x8]
c010475d:	8b 00                	mov    eax,DWORD PTR [eax]
c010475f:	89 45 08             	mov    DWORD PTR [ebp+0x8],eax
c0104762:	5d                   	pop    ebp
c0104763:	e9 65 fd ff ff       	jmp    c01044cd <adt_list_remove_front>

c0104768 <adt_stack_size>:
c0104768:	55                   	push   ebp
c0104769:	89 e5                	mov    ebp,esp
c010476b:	8b 45 08             	mov    eax,DWORD PTR [ebp+0x8]
c010476e:	8b 00                	mov    eax,DWORD PTR [eax]
c0104770:	89 45 08             	mov    DWORD PTR [ebp+0x8],eax
c0104773:	5d                   	pop    ebp
c0104774:	e9 7a fe ff ff       	jmp    c01045f3 <adt_list_size>

c0104779 <bitarray_set>:
c0104779:	55                   	push   ebp
c010477a:	89 e5                	mov    ebp,esp
c010477c:	8b 4d 0c             	mov    ecx,DWORD PTR [ebp+0xc]
c010477f:	89 c8                	mov    eax,ecx
c0104781:	c1 e8 03             	shr    eax,0x3
c0104784:	03 45 08             	add    eax,DWORD PTR [ebp+0x8]
c0104787:	83 e1 07             	and    ecx,0x7
c010478a:	ba 01 00 00 00       	mov    edx,0x1
c010478f:	d3 e2                	shl    edx,cl
c0104791:	08 10                	or     BYTE PTR [eax],dl
c0104793:	5d                   	pop    ebp
c0104794:	c3                   	ret    

c0104795 <bitarray_clear>:
c0104795:	55                   	push   ebp
c0104796:	89 e5                	mov    ebp,esp
c0104798:	8b 4d 0c             	mov    ecx,DWORD PTR [ebp+0xc]
c010479b:	89 ca                	mov    edx,ecx
c010479d:	c1 ea 03             	shr    edx,0x3
c01047a0:	03 55 08             	add    edx,DWORD PTR [ebp+0x8]
c01047a3:	83 e1 07             	and    ecx,0x7
c01047a6:	b8 01 00 00 00       	mov    eax,0x1
c01047ab:	d3 e0                	shl    eax,cl
c01047ad:	f7 d0                	not    eax
c01047af:	20 02                	and    BYTE PTR [edx],al
c01047b1:	5d                   	pop    ebp
c01047b2:	c3                   	ret    

c01047b3 <bitarray_is_set>:
c01047b3:	55                   	push   ebp
c01047b4:	89 e5                	mov    ebp,esp
c01047b6:	8b 4d 0c             	mov    ecx,DWORD PTR [ebp+0xc]
c01047b9:	89 c8                	mov    eax,ecx
c01047bb:	c1 e8 03             	shr    eax,0x3
c01047be:	8b 55 08             	mov    edx,DWORD PTR [ebp+0x8]
c01047c1:	0f b6 14 02          	movzx  edx,BYTE PTR [edx+eax*1]
c01047c5:	83 e1 07             	and    ecx,0x7
c01047c8:	b8 01 00 00 00       	mov    eax,0x1
c01047cd:	d3 e0                	shl    eax,cl
c01047cf:	85 c2                	test   edx,eax
c01047d1:	0f 95 c0             	setne  al
c01047d4:	5d                   	pop    ebp
c01047d5:	c3                   	ret    

c01047d6 <cpu_get_count>:
c01047d6:	a1 78 57 11 c0       	mov    eax,ds:0xc0115778
c01047db:	c3                   	ret    

c01047dc <cpu_init>:
c01047dc:	55                   	push   ebp
c01047dd:	89 e5                	mov    ebp,esp
c01047df:	83 ec 08             	sub    esp,0x8
c01047e2:	e8 14 19 00 00       	call   c01060fb <arch_cpu_initialise_bootstrap>
c01047e7:	ff 05 78 57 11 c0    	inc    DWORD PTR ds:0xc0115778
c01047ed:	c9                   	leave  
c01047ee:	e9 59 19 00 00       	jmp    c010614c <arch_all_cpus_are_done>

c01047f3 <convert_int_to_string>:
c01047f3:	55                   	push   ebp
c01047f4:	89 e5                	mov    ebp,esp
c01047f6:	57                   	push   edi
c01047f7:	56                   	push   esi
c01047f8:	53                   	push   ebx
c01047f9:	89 c6                	mov    esi,eax
c01047fb:	89 d3                	mov    ebx,edx
c01047fd:	89 c7                	mov    edi,eax
c01047ff:	43                   	inc    ebx
c0104800:	31 d2                	xor    edx,edx
c0104802:	f7 f1                	div    ecx
c0104804:	39 f9                	cmp    ecx,edi
c0104806:	76 f5                	jbe    c01047fd <convert_int_to_string+0xa>
c0104808:	c6 03 00             	mov    BYTE PTR [ebx],0x0
c010480b:	89 f0                	mov    eax,esi
c010480d:	31 d2                	xor    edx,edx
c010480f:	f7 f1                	div    ecx
c0104811:	4b                   	dec    ebx
c0104812:	8a 92 c9 9a 10 c0    	mov    dl,BYTE PTR [edx-0x3fef6537]
c0104818:	88 13                	mov    BYTE PTR [ebx],dl
c010481a:	39 f1                	cmp    ecx,esi
c010481c:	77 04                	ja     c0104822 <convert_int_to_string+0x2f>
c010481e:	89 c6                	mov    esi,eax
c0104820:	eb e9                	jmp    c010480b <convert_int_to_string+0x18>
c0104822:	5b                   	pop    ebx
c0104823:	5e                   	pop    esi
c0104824:	5f                   	pop    edi
c0104825:	5d                   	pop    ebp
c0104826:	c3                   	ret    

c0104827 <logcnv>:
c0104827:	89 c1                	mov    ecx,eax
c0104829:	ba fd 03 00 00       	mov    edx,0x3fd
c010482e:	ec                   	in     al,dx
c010482f:	a8 20                	test   al,0x20
c0104831:	74 fb                	je     c010482e <logcnv+0x7>
c0104833:	ba f8 03 00 00       	mov    edx,0x3f8
c0104838:	88 c8                	mov    al,cl
c010483a:	ee                   	out    dx,al
c010483b:	c3                   	ret    

c010483c <logc>:
c010483c:	55                   	push   ebp
c010483d:	89 e5                	mov    ebp,esp
c010483f:	53                   	push   ebx
c0104840:	83 ec 10             	sub    esp,0x10
c0104843:	89 c3                	mov    ebx,eax
c0104845:	0f be c0             	movsx  eax,al
c0104848:	50                   	push   eax
c0104849:	e8 c4 ce ff ff       	call   c0101712 <console_putc>
c010484e:	83 c4 10             	add    esp,0x10
c0104851:	ba fd 03 00 00       	mov    edx,0x3fd
c0104856:	ec                   	in     al,dx
c0104857:	a8 20                	test   al,0x20
c0104859:	74 fb                	je     c0104856 <logc+0x1a>
c010485b:	ba f8 03 00 00       	mov    edx,0x3f8
c0104860:	88 d8                	mov    al,bl
c0104862:	ee                   	out    dx,al
c0104863:	8b 5d fc             	mov    ebx,DWORD PTR [ebp-0x4]
c0104866:	c9                   	leave  
c0104867:	c3                   	ret    

c0104868 <log_intnv>:
c0104868:	55                   	push   ebp
c0104869:	89 e5                	mov    ebp,esp
c010486b:	53                   	push   ebx
c010486c:	83 ec 14             	sub    esp,0x14
c010486f:	89 d1                	mov    ecx,edx
c0104871:	8d 55 ec             	lea    edx,[ebp-0x14]
c0104874:	e8 7a ff ff ff       	call   c01047f3 <convert_int_to_string>
c0104879:	8d 5d ec             	lea    ebx,[ebp-0x14]
c010487c:	0f be 03             	movsx  eax,BYTE PTR [ebx]
c010487f:	84 c0                	test   al,al
c0104881:	74 08                	je     c010488b <log_intnv+0x23>
c0104883:	43                   	inc    ebx
c0104884:	e8 9e ff ff ff       	call   c0104827 <logcnv>
c0104889:	eb f1                	jmp    c010487c <log_intnv+0x14>
c010488b:	83 c4 14             	add    esp,0x14
c010488e:	5b                   	pop    ebx
c010488f:	5d                   	pop    ebp
c0104890:	c3                   	ret    

c0104891 <log_int>:
c0104891:	55                   	push   ebp
c0104892:	89 e5                	mov    ebp,esp
c0104894:	53                   	push   ebx
c0104895:	83 ec 14             	sub    esp,0x14
c0104898:	89 d1                	mov    ecx,edx
c010489a:	8d 55 ec             	lea    edx,[ebp-0x14]
c010489d:	e8 51 ff ff ff       	call   c01047f3 <convert_int_to_string>
c01048a2:	8d 5d ec             	lea    ebx,[ebp-0x14]
c01048a5:	0f be 03             	movsx  eax,BYTE PTR [ebx]
c01048a8:	84 c0                	test   al,al
c01048aa:	74 08                	je     c01048b4 <log_int+0x23>
c01048ac:	43                   	inc    ebx
c01048ad:	e8 8a ff ff ff       	call   c010483c <logc>
c01048b2:	eb f1                	jmp    c01048a5 <log_int+0x14>
c01048b4:	83 c4 14             	add    esp,0x14
c01048b7:	5b                   	pop    ebx
c01048b8:	5d                   	pop    ebp
c01048b9:	c3                   	ret    

c01048ba <kprintf>:
c01048ba:	55                   	push   ebp
c01048bb:	89 e5                	mov    ebp,esp
c01048bd:	57                   	push   edi
c01048be:	56                   	push   esi
c01048bf:	53                   	push   ebx
c01048c0:	83 ec 0c             	sub    esp,0xc
c01048c3:	83 7d 08 00          	cmp    DWORD PTR [ebp+0x8],0x0
c01048c7:	75 10                	jne    c01048d9 <kprintf+0x1f>
c01048c9:	83 ec 0c             	sub    esp,0xc
c01048cc:	68 da 9a 10 c0       	push   0xc0109ada
c01048d1:	e8 e4 ff ff ff       	call   c01048ba <kprintf>
c01048d6:	83 c4 10             	add    esp,0x10
c01048d9:	8d 75 0c             	lea    esi,[ebp+0xc]
c01048dc:	31 db                	xor    ebx,ebx
c01048de:	8b 45 08             	mov    eax,DWORD PTR [ebp+0x8]
c01048e1:	0f be 04 18          	movsx  eax,BYTE PTR [eax+ebx*1]
c01048e5:	84 c0                	test   al,al
c01048e7:	0f 84 a2 00 00 00    	je     c010498f <kprintf+0xd5>
c01048ed:	3c 25                	cmp    al,0x25
c01048ef:	0f 85 8f 00 00 00    	jne    c0104984 <kprintf+0xca>
c01048f5:	43                   	inc    ebx
c01048f6:	8b 7d 08             	mov    edi,DWORD PTR [ebp+0x8]
c01048f9:	01 df                	add    edi,ebx
c01048fb:	8a 07                	mov    al,BYTE PTR [edi]
c01048fd:	3c 64                	cmp    al,0x64
c01048ff:	74 63                	je     c0104964 <kprintf+0xaa>
c0104901:	7f 26                	jg     c0104929 <kprintf+0x6f>
c0104903:	3c 4c                	cmp    al,0x4c
c0104905:	74 53                	je     c010495a <kprintf+0xa0>
c0104907:	7f 0b                	jg     c0104914 <kprintf+0x5a>
c0104909:	3c 25                	cmp    al,0x25
c010490b:	75 6a                	jne    c0104977 <kprintf+0xbd>
c010490d:	b8 25 00 00 00       	mov    eax,0x25
c0104912:	eb 70                	jmp    c0104984 <kprintf+0xca>
c0104914:	3c 58                	cmp    al,0x58
c0104916:	74 3d                	je     c0104955 <kprintf+0x9b>
c0104918:	3c 63                	cmp    al,0x63
c010491a:	75 5b                	jne    c0104977 <kprintf+0xbd>
c010491c:	8d 7e 04             	lea    edi,[esi+0x4]
c010491f:	0f be 06             	movsx  eax,BYTE PTR [esi]
c0104922:	e8 15 ff ff ff       	call   c010483c <logc>
c0104927:	eb 4a                	jmp    c0104973 <kprintf+0xb9>
c0104929:	3c 73                	cmp    al,0x73
c010492b:	74 12                	je     c010493f <kprintf+0x85>
c010492d:	7f 06                	jg     c0104935 <kprintf+0x7b>
c010492f:	3c 6c                	cmp    al,0x6c
c0104931:	74 27                	je     c010495a <kprintf+0xa0>
c0104933:	eb 42                	jmp    c0104977 <kprintf+0xbd>
c0104935:	3c 75                	cmp    al,0x75
c0104937:	74 2b                	je     c0104964 <kprintf+0xaa>
c0104939:	3c 78                	cmp    al,0x78
c010493b:	74 18                	je     c0104955 <kprintf+0x9b>
c010493d:	eb 38                	jmp    c0104977 <kprintf+0xbd>
c010493f:	89 f0                	mov    eax,esi
c0104941:	83 c6 04             	add    esi,0x4
c0104944:	8b 38                	mov    edi,DWORD PTR [eax]
c0104946:	0f be 07             	movsx  eax,BYTE PTR [edi]
c0104949:	84 c0                	test   al,al
c010494b:	74 3c                	je     c0104989 <kprintf+0xcf>
c010494d:	47                   	inc    edi
c010494e:	e8 e9 fe ff ff       	call   c010483c <logc>
c0104953:	eb f1                	jmp    c0104946 <kprintf+0x8c>
c0104955:	8d 7e 04             	lea    edi,[esi+0x4]
c0104958:	eb 03                	jmp    c010495d <kprintf+0xa3>
c010495a:	8d 7e 08             	lea    edi,[esi+0x8]
c010495d:	ba 10 00 00 00       	mov    edx,0x10
c0104962:	eb 08                	jmp    c010496c <kprintf+0xb2>
c0104964:	8d 7e 04             	lea    edi,[esi+0x4]
c0104967:	ba 0a 00 00 00       	mov    edx,0xa
c010496c:	8b 06                	mov    eax,DWORD PTR [esi]
c010496e:	e8 1e ff ff ff       	call   c0104891 <log_int>
c0104973:	89 fe                	mov    esi,edi
c0104975:	eb 12                	jmp    c0104989 <kprintf+0xcf>
c0104977:	b8 25 00 00 00       	mov    eax,0x25
c010497c:	e8 bb fe ff ff       	call   c010483c <logc>
c0104981:	0f be 07             	movsx  eax,BYTE PTR [edi]
c0104984:	e8 b3 fe ff ff       	call   c010483c <logc>
c0104989:	43                   	inc    ebx
c010498a:	e9 4f ff ff ff       	jmp    c01048de <kprintf+0x24>
c010498f:	8d 65 f4             	lea    esp,[ebp-0xc]
c0104992:	5b                   	pop    ebx
c0104993:	5e                   	pop    esi
c0104994:	5f                   	pop    edi
c0104995:	5d                   	pop    ebp
c0104996:	c3                   	ret    

c0104997 <kprintfnv>:
c0104997:	55                   	push   ebp
c0104998:	89 e5                	mov    ebp,esp
c010499a:	57                   	push   edi
c010499b:	56                   	push   esi
c010499c:	53                   	push   ebx
c010499d:	83 ec 0c             	sub    esp,0xc
c01049a0:	83 7d 08 00          	cmp    DWORD PTR [ebp+0x8],0x0
c01049a4:	75 10                	jne    c01049b6 <kprintfnv+0x1f>
c01049a6:	83 ec 0c             	sub    esp,0xc
c01049a9:	68 da 9a 10 c0       	push   0xc0109ada
c01049ae:	e8 e4 ff ff ff       	call   c0104997 <kprintfnv>
c01049b3:	83 c4 10             	add    esp,0x10
c01049b6:	8d 75 0c             	lea    esi,[ebp+0xc]
c01049b9:	31 db                	xor    ebx,ebx
c01049bb:	8b 45 08             	mov    eax,DWORD PTR [ebp+0x8]
c01049be:	0f be 04 18          	movsx  eax,BYTE PTR [eax+ebx*1]
c01049c2:	84 c0                	test   al,al
c01049c4:	0f 84 a2 00 00 00    	je     c0104a6c <kprintfnv+0xd5>
c01049ca:	3c 25                	cmp    al,0x25
c01049cc:	0f 85 8f 00 00 00    	jne    c0104a61 <kprintfnv+0xca>
c01049d2:	43                   	inc    ebx
c01049d3:	8b 7d 08             	mov    edi,DWORD PTR [ebp+0x8]
c01049d6:	01 df                	add    edi,ebx
c01049d8:	8a 07                	mov    al,BYTE PTR [edi]
c01049da:	3c 64                	cmp    al,0x64
c01049dc:	74 63                	je     c0104a41 <kprintfnv+0xaa>
c01049de:	7f 26                	jg     c0104a06 <kprintfnv+0x6f>
c01049e0:	3c 4c                	cmp    al,0x4c
c01049e2:	74 53                	je     c0104a37 <kprintfnv+0xa0>
c01049e4:	7f 0b                	jg     c01049f1 <kprintfnv+0x5a>
c01049e6:	3c 25                	cmp    al,0x25
c01049e8:	75 6a                	jne    c0104a54 <kprintfnv+0xbd>
c01049ea:	b8 25 00 00 00       	mov    eax,0x25
c01049ef:	eb 70                	jmp    c0104a61 <kprintfnv+0xca>
c01049f1:	3c 58                	cmp    al,0x58
c01049f3:	74 3d                	je     c0104a32 <kprintfnv+0x9b>
c01049f5:	3c 63                	cmp    al,0x63
c01049f7:	75 5b                	jne    c0104a54 <kprintfnv+0xbd>
c01049f9:	8d 7e 04             	lea    edi,[esi+0x4]
c01049fc:	0f be 06             	movsx  eax,BYTE PTR [esi]
c01049ff:	e8 23 fe ff ff       	call   c0104827 <logcnv>
c0104a04:	eb 4a                	jmp    c0104a50 <kprintfnv+0xb9>
c0104a06:	3c 73                	cmp    al,0x73
c0104a08:	74 12                	je     c0104a1c <kprintfnv+0x85>
c0104a0a:	7f 06                	jg     c0104a12 <kprintfnv+0x7b>
c0104a0c:	3c 6c                	cmp    al,0x6c
c0104a0e:	74 27                	je     c0104a37 <kprintfnv+0xa0>
c0104a10:	eb 42                	jmp    c0104a54 <kprintfnv+0xbd>
c0104a12:	3c 75                	cmp    al,0x75
c0104a14:	74 2b                	je     c0104a41 <kprintfnv+0xaa>
c0104a16:	3c 78                	cmp    al,0x78
c0104a18:	74 18                	je     c0104a32 <kprintfnv+0x9b>
c0104a1a:	eb 38                	jmp    c0104a54 <kprintfnv+0xbd>
c0104a1c:	89 f0                	mov    eax,esi
c0104a1e:	83 c6 04             	add    esi,0x4
c0104a21:	8b 38                	mov    edi,DWORD PTR [eax]
c0104a23:	0f be 07             	movsx  eax,BYTE PTR [edi]
c0104a26:	84 c0                	test   al,al
c0104a28:	74 3c                	je     c0104a66 <kprintfnv+0xcf>
c0104a2a:	47                   	inc    edi
c0104a2b:	e8 f7 fd ff ff       	call   c0104827 <logcnv>
c0104a30:	eb f1                	jmp    c0104a23 <kprintfnv+0x8c>
c0104a32:	8d 7e 04             	lea    edi,[esi+0x4]
c0104a35:	eb 03                	jmp    c0104a3a <kprintfnv+0xa3>
c0104a37:	8d 7e 08             	lea    edi,[esi+0x8]
c0104a3a:	ba 10 00 00 00       	mov    edx,0x10
c0104a3f:	eb 08                	jmp    c0104a49 <kprintfnv+0xb2>
c0104a41:	8d 7e 04             	lea    edi,[esi+0x4]
c0104a44:	ba 0a 00 00 00       	mov    edx,0xa
c0104a49:	8b 06                	mov    eax,DWORD PTR [esi]
c0104a4b:	e8 18 fe ff ff       	call   c0104868 <log_intnv>
c0104a50:	89 fe                	mov    esi,edi
c0104a52:	eb 12                	jmp    c0104a66 <kprintfnv+0xcf>
c0104a54:	b8 25 00 00 00       	mov    eax,0x25
c0104a59:	e8 c9 fd ff ff       	call   c0104827 <logcnv>
c0104a5e:	0f be 07             	movsx  eax,BYTE PTR [edi]
c0104a61:	e8 c1 fd ff ff       	call   c0104827 <logcnv>
c0104a66:	43                   	inc    ebx
c0104a67:	e9 4f ff ff ff       	jmp    c01049bb <kprintfnv+0x24>
c0104a6c:	8d 65 f4             	lea    esp,[ebp-0xc]
c0104a6f:	5b                   	pop    ebx
c0104a70:	5e                   	pop    esi
c0104a71:	5f                   	pop    edi
c0104a72:	5d                   	pop    ebp
c0104a73:	c3                   	ret    

c0104a74 <panic>:
c0104a74:	55                   	push   ebp
c0104a75:	89 e5                	mov    ebp,esp
c0104a77:	83 ec 10             	sub    esp,0x10
c0104a7a:	ff 75 08             	push   DWORD PTR [ebp+0x8]
c0104a7d:	68 04 9b 10 c0       	push   0xc0109b04
c0104a82:	e8 33 fe ff ff       	call   c01048ba <kprintf>
c0104a87:	83 c4 10             	add    esp,0x10
c0104a8a:	e8 56 38 00 00       	call   c01082e5 <arch_disable_interrupts>
c0104a8f:	e8 53 38 00 00       	call   c01082e7 <arch_stall_processor>
c0104a94:	eb f4                	jmp    c0104a8a <panic+0x16>

c0104a96 <validate_copy>:
c0104a96:	55                   	push   ebp
c0104a97:	89 e5                	mov    ebp,esp
c0104a99:	57                   	push   edi
c0104a9a:	56                   	push   esi
c0104a9b:	53                   	push   ebx
c0104a9c:	83 ec 1c             	sub    esp,0x1c
c0104a9f:	89 c3                	mov    ebx,eax
c0104aa1:	2d 00 00 00 08       	sub    eax,0x8000000
c0104aa6:	3d ff ff ff b7       	cmp    eax,0xb7ffffff
c0104aab:	77 78                	ja     c0104b25 <validate_copy+0x8f>
c0104aad:	89 cf                	mov    edi,ecx
c0104aaf:	b8 07 00 00 00       	mov    eax,0x7
c0104ab4:	89 d9                	mov    ecx,ebx
c0104ab6:	01 d1                	add    ecx,edx
c0104ab8:	72 70                	jb     c0104b2a <validate_copy+0x94>
c0104aba:	81 e9 00 00 00 08    	sub    ecx,0x8000000
c0104ac0:	81 f9 ff ff ff b7    	cmp    ecx,0xb7ffffff
c0104ac6:	77 62                	ja     c0104b2a <validate_copy+0x94>
c0104ac8:	c1 eb 0c             	shr    ebx,0xc
c0104acb:	89 de                	mov    esi,ebx
c0104acd:	c1 e6 0c             	shl    esi,0xc
c0104ad0:	81 c2 ff 0f 00 00    	add    edx,0xfff
c0104ad6:	c1 ea 0c             	shr    edx,0xc
c0104ad9:	01 d3                	add    ebx,edx
c0104adb:	c1 e3 0c             	shl    ebx,0xc
c0104ade:	39 f3                	cmp    ebx,esi
c0104ae0:	74 3f                	je     c0104b21 <validate_copy+0x8b>
c0104ae2:	e8 3f d9 ff ff       	call   c0102426 <vas_get_current_vas>
c0104ae7:	8d 55 e4             	lea    edx,[ebp-0x1c]
c0104aea:	52                   	push   edx
c0104aeb:	8d 55 e0             	lea    edx,[ebp-0x20]
c0104aee:	52                   	push   edx
c0104aef:	56                   	push   esi
c0104af0:	50                   	push   eax
c0104af1:	e8 21 35 00 00       	call   c0108017 <arch_vas_get_entry>
c0104af6:	8b 45 e4             	mov    eax,DWORD PTR [ebp-0x1c]
c0104af9:	83 c4 10             	add    esp,0x10
c0104afc:	a8 10                	test   al,0x10
c0104afe:	74 1a                	je     c0104b1a <validate_copy+0x84>
c0104b00:	a8 04                	test   al,0x4
c0104b02:	74 21                	je     c0104b25 <validate_copy+0x8f>
c0104b04:	89 f9                	mov    ecx,edi
c0104b06:	84 c9                	test   cl,cl
c0104b08:	74 08                	je     c0104b12 <validate_copy+0x7c>
c0104b0a:	a8 01                	test   al,0x1
c0104b0c:	74 17                	je     c0104b25 <validate_copy+0x8f>
c0104b0e:	a8 02                	test   al,0x2
c0104b10:	75 13                	jne    c0104b25 <validate_copy+0x8f>
c0104b12:	81 c6 00 10 00 00    	add    esi,0x1000
c0104b18:	eb c4                	jmp    c0104ade <validate_copy+0x48>
c0104b1a:	b8 01 00 00 00       	mov    eax,0x1
c0104b1f:	eb 09                	jmp    c0104b2a <validate_copy+0x94>
c0104b21:	31 c0                	xor    eax,eax
c0104b23:	eb 05                	jmp    c0104b2a <validate_copy+0x94>
c0104b25:	b8 07 00 00 00       	mov    eax,0x7
c0104b2a:	8d 65 f4             	lea    esp,[ebp-0xc]
c0104b2d:	5b                   	pop    ebx
c0104b2e:	5e                   	pop    esi
c0104b2f:	5f                   	pop    edi
c0104b30:	5d                   	pop    ebp
c0104b31:	c3                   	ret    

c0104b32 <copyin>:
c0104b32:	55                   	push   ebp
c0104b33:	89 e5                	mov    ebp,esp
c0104b35:	57                   	push   edi
c0104b36:	56                   	push   esi
c0104b37:	53                   	push   ebx
c0104b38:	83 ec 0c             	sub    esp,0xc
c0104b3b:	8b 75 0c             	mov    esi,DWORD PTR [ebp+0xc]
c0104b3e:	8b 7d 10             	mov    edi,DWORD PTR [ebp+0x10]
c0104b41:	31 c9                	xor    ecx,ecx
c0104b43:	89 fa                	mov    edx,edi
c0104b45:	89 f0                	mov    eax,esi
c0104b47:	e8 4a ff ff ff       	call   c0104a96 <validate_copy>
c0104b4c:	89 c3                	mov    ebx,eax
c0104b4e:	85 c0                	test   eax,eax
c0104b50:	75 0e                	jne    c0104b60 <copyin+0x2e>
c0104b52:	50                   	push   eax
c0104b53:	57                   	push   edi
c0104b54:	56                   	push   esi
c0104b55:	ff 75 08             	push   DWORD PTR [ebp+0x8]
c0104b58:	e8 b9 c6 ff ff       	call   c0101216 <memcpy>
c0104b5d:	83 c4 10             	add    esp,0x10
c0104b60:	89 d8                	mov    eax,ebx
c0104b62:	8d 65 f4             	lea    esp,[ebp-0xc]
c0104b65:	5b                   	pop    ebx
c0104b66:	5e                   	pop    esi
c0104b67:	5f                   	pop    edi
c0104b68:	5d                   	pop    ebp
c0104b69:	c3                   	ret    

c0104b6a <copyout>:
c0104b6a:	55                   	push   ebp
c0104b6b:	89 e5                	mov    ebp,esp
c0104b6d:	57                   	push   edi
c0104b6e:	56                   	push   esi
c0104b6f:	53                   	push   ebx
c0104b70:	83 ec 0c             	sub    esp,0xc
c0104b73:	8b 75 0c             	mov    esi,DWORD PTR [ebp+0xc]
c0104b76:	8b 7d 10             	mov    edi,DWORD PTR [ebp+0x10]
c0104b79:	b9 01 00 00 00       	mov    ecx,0x1
c0104b7e:	89 fa                	mov    edx,edi
c0104b80:	89 f0                	mov    eax,esi
c0104b82:	e8 0f ff ff ff       	call   c0104a96 <validate_copy>
c0104b87:	89 c3                	mov    ebx,eax
c0104b89:	85 c0                	test   eax,eax
c0104b8b:	75 0e                	jne    c0104b9b <copyout+0x31>
c0104b8d:	50                   	push   eax
c0104b8e:	57                   	push   edi
c0104b8f:	ff 75 08             	push   DWORD PTR [ebp+0x8]
c0104b92:	56                   	push   esi
c0104b93:	e8 7e c6 ff ff       	call   c0101216 <memcpy>
c0104b98:	83 c4 10             	add    esp,0x10
c0104b9b:	89 d8                	mov    eax,ebx
c0104b9d:	8d 65 f4             	lea    esp,[ebp-0xc]
c0104ba0:	5b                   	pop    ebx
c0104ba1:	5e                   	pop    esi
c0104ba2:	5f                   	pop    edi
c0104ba3:	5d                   	pop    ebp
c0104ba4:	c3                   	ret    

c0104ba5 <dev_check_open>:
c0104ba5:	55                   	push   ebp
c0104ba6:	89 e5                	mov    ebp,esp
c0104ba8:	8b 45 08             	mov    eax,DWORD PTR [ebp+0x8]
c0104bab:	8b 00                	mov    eax,DWORD PTR [eax]
c0104bad:	89 45 08             	mov    DWORD PTR [ebp+0x8],eax
c0104bb0:	8b 00                	mov    eax,DWORD PTR [eax]
c0104bb2:	5d                   	pop    ebp
c0104bb3:	ff e0                	jmp    eax

c0104bb5 <dev_ioctl>:
c0104bb5:	55                   	push   ebp
c0104bb6:	89 e5                	mov    ebp,esp
c0104bb8:	8b 45 08             	mov    eax,DWORD PTR [ebp+0x8]
c0104bbb:	8b 00                	mov    eax,DWORD PTR [eax]
c0104bbd:	89 45 08             	mov    DWORD PTR [ebp+0x8],eax
c0104bc0:	8b 40 04             	mov    eax,DWORD PTR [eax+0x4]
c0104bc3:	5d                   	pop    ebp
c0104bc4:	ff e0                	jmp    eax

c0104bc6 <dev_isseekable>:
c0104bc6:	55                   	push   ebp
c0104bc7:	89 e5                	mov    ebp,esp
c0104bc9:	8b 45 08             	mov    eax,DWORD PTR [ebp+0x8]
c0104bcc:	8b 00                	mov    eax,DWORD PTR [eax]
c0104bce:	83 78 10 00          	cmp    DWORD PTR [eax+0x10],0x0
c0104bd2:	0f 95 c0             	setne  al
c0104bd5:	5d                   	pop    ebp
c0104bd6:	c3                   	ret    

c0104bd7 <dev_read>:
c0104bd7:	55                   	push   ebp
c0104bd8:	89 e5                	mov    ebp,esp
c0104bda:	8b 45 08             	mov    eax,DWORD PTR [ebp+0x8]
c0104bdd:	8b 00                	mov    eax,DWORD PTR [eax]
c0104bdf:	89 45 08             	mov    DWORD PTR [ebp+0x8],eax
c0104be2:	8b 40 08             	mov    eax,DWORD PTR [eax+0x8]
c0104be5:	5d                   	pop    ebp
c0104be6:	ff e0                	jmp    eax

c0104be8 <dev_write>:
c0104be8:	eb ed                	jmp    c0104bd7 <dev_read>

c0104bea <dev_create>:
c0104bea:	b8 0e 00 00 00       	mov    eax,0xe
c0104bef:	c3                   	ret    

c0104bf0 <dev_dirent_type>:
c0104bf0:	55                   	push   ebp
c0104bf1:	89 e5                	mov    ebp,esp
c0104bf3:	8b 45 08             	mov    eax,DWORD PTR [ebp+0x8]
c0104bf6:	8b 00                	mov    eax,DWORD PTR [eax]
c0104bf8:	83 78 10 01          	cmp    DWORD PTR [eax+0x10],0x1
c0104bfc:	19 c0                	sbb    eax,eax
c0104bfe:	83 c0 06             	add    eax,0x6
c0104c01:	5d                   	pop    ebp
c0104c02:	c3                   	ret    

c0104c03 <dev_stat>:
c0104c03:	55                   	push   ebp
c0104c04:	89 e5                	mov    ebp,esp
c0104c06:	8b 4d 08             	mov    ecx,DWORD PTR [ebp+0x8]
c0104c09:	8b 45 0c             	mov    eax,DWORD PTR [ebp+0xc]
c0104c0c:	8b 11                	mov    edx,DWORD PTR [ecx]
c0104c0e:	83 7a 10 01          	cmp    DWORD PTR [edx+0x10],0x1
c0104c12:	19 d2                	sbb    edx,edx
c0104c14:	81 e2 00 80 00 00    	and    edx,0x8000
c0104c1a:	81 c2 ff 01 01 00    	add    edx,0x101ff
c0104c20:	89 50 0c             	mov    DWORD PTR [eax+0xc],edx
c0104c23:	c7 40 28 00 00 00 00 	mov    DWORD PTR [eax+0x28],0x0
c0104c2a:	c7 40 2c 00 00 00 00 	mov    DWORD PTR [eax+0x2c],0x0
c0104c31:	8b 11                	mov    edx,DWORD PTR [ecx]
c0104c33:	8b 52 10             	mov    edx,DWORD PTR [edx+0x10]
c0104c36:	89 50 44             	mov    DWORD PTR [eax+0x44],edx
c0104c39:	8b 09                	mov    ecx,DWORD PTR [ecx]
c0104c3b:	8b 49 0c             	mov    ecx,DWORD PTR [ecx+0xc]
c0104c3e:	89 48 40             	mov    DWORD PTR [eax+0x40],ecx
c0104c41:	c7 40 38 00 00 00 00 	mov    DWORD PTR [eax+0x38],0x0
c0104c48:	c7 40 3c 00 00 00 00 	mov    DWORD PTR [eax+0x3c],0x0
c0104c4f:	c7 00 fe ca be ba    	mov    DWORD PTR [eax],0xbabecafe
c0104c55:	c7 40 04 00 00 00 00 	mov    DWORD PTR [eax+0x4],0x0
c0104c5c:	c7 40 18 00 00 00 00 	mov    DWORD PTR [eax+0x18],0x0
c0104c63:	c7 40 08 be ba fe ca 	mov    DWORD PTR [eax+0x8],0xcafebabe
c0104c6a:	c7 40 30 00 00 00 00 	mov    DWORD PTR [eax+0x30],0x0
c0104c71:	c7 40 34 00 00 00 00 	mov    DWORD PTR [eax+0x34],0x0
c0104c78:	c7 40 10 01 00 00 00 	mov    DWORD PTR [eax+0x10],0x1
c0104c7f:	c7 40 1c ad de fe ca 	mov    DWORD PTR [eax+0x1c],0xcafedead
c0104c86:	c7 40 20 00 00 00 00 	mov    DWORD PTR [eax+0x20],0x0
c0104c8d:	0f af d1             	imul   edx,ecx
c0104c90:	89 50 24             	mov    DWORD PTR [eax+0x24],edx
c0104c93:	c7 40 14 00 00 00 00 	mov    DWORD PTR [eax+0x14],0x0
c0104c9a:	31 c0                	xor    eax,eax
c0104c9c:	5d                   	pop    ebp
c0104c9d:	c3                   	ret    

c0104c9e <dev_truncate>:
c0104c9e:	55                   	push   ebp
c0104c9f:	89 e5                	mov    ebp,esp
c0104ca1:	8b 45 08             	mov    eax,DWORD PTR [ebp+0x8]
c0104ca4:	8b 08                	mov    ecx,DWORD PTR [eax]
c0104ca6:	8b 51 0c             	mov    edx,DWORD PTR [ecx+0xc]
c0104ca9:	b8 07 00 00 00       	mov    eax,0x7
c0104cae:	85 d2                	test   edx,edx
c0104cb0:	74 10                	je     c0104cc2 <dev_truncate+0x24>
c0104cb2:	0f af 51 10          	imul   edx,DWORD PTR [ecx+0x10]
c0104cb6:	31 c0                	xor    eax,eax
c0104cb8:	3b 55 0c             	cmp    edx,DWORD PTR [ebp+0xc]
c0104cbb:	0f 94 c0             	sete   al
c0104cbe:	48                   	dec    eax
c0104cbf:	83 e0 07             	and    eax,0x7
c0104cc2:	5d                   	pop    ebp
c0104cc3:	c3                   	ret    

c0104cc4 <dev_close>:
c0104cc4:	31 c0                	xor    eax,eax
c0104cc6:	c3                   	ret    

c0104cc7 <dev_follow>:
c0104cc7:	b8 07 00 00 00       	mov    eax,0x7
c0104ccc:	c3                   	ret    

c0104ccd <dev_readdir>:
c0104ccd:	b8 07 00 00 00       	mov    eax,0x7
c0104cd2:	c3                   	ret    

c0104cd3 <dev_create_vnode>:
c0104cd3:	55                   	push   ebp
c0104cd4:	89 e5                	mov    ebp,esp
c0104cd6:	57                   	push   edi
c0104cd7:	56                   	push   esi
c0104cd8:	83 ec 3c             	sub    esp,0x3c
c0104cdb:	be 60 90 10 c0       	mov    esi,0xc0109060
c0104ce0:	b9 0c 00 00 00       	mov    ecx,0xc
c0104ce5:	89 e7                	mov    edi,esp
c0104ce7:	f3 a5                	rep movs DWORD PTR es:[edi],DWORD PTR ds:[esi]
c0104ce9:	ff 75 08             	push   DWORD PTR [ebp+0x8]
c0104cec:	e8 db 0b 00 00       	call   c01058cc <vnode_init>
c0104cf1:	66 c7 40 38 01 01    	mov    WORD PTR [eax+0x38],0x101
c0104cf7:	8d 65 f8             	lea    esp,[ebp-0x8]
c0104cfa:	5e                   	pop    esi
c0104cfb:	5f                   	pop    edi
c0104cfc:	5d                   	pop    ebp
c0104cfd:	c3                   	ret    

c0104cfe <uio_move>:
c0104cfe:	55                   	push   ebp
c0104cff:	89 e5                	mov    ebp,esp
c0104d01:	56                   	push   esi
c0104d02:	53                   	push   ebx
c0104d03:	8b 55 08             	mov    edx,DWORD PTR [ebp+0x8]
c0104d06:	8b 5d 0c             	mov    ebx,DWORD PTR [ebp+0xc]
c0104d09:	8b 45 10             	mov    eax,DWORD PTR [ebp+0x10]
c0104d0c:	8b 73 04             	mov    esi,DWORD PTR [ebx+0x4]
c0104d0f:	39 c6                	cmp    esi,eax
c0104d11:	76 02                	jbe    c0104d15 <uio_move+0x17>
c0104d13:	89 c6                	mov    esi,eax
c0104d15:	31 c0                	xor    eax,eax
c0104d17:	85 f6                	test   esi,esi
c0104d19:	74 4c                	je     c0104d67 <uio_move+0x69>
c0104d1b:	8b 4b 0c             	mov    ecx,DWORD PTR [ebx+0xc]
c0104d1e:	8b 03                	mov    eax,DWORD PTR [ebx]
c0104d20:	83 7b 10 00          	cmp    DWORD PTR [ebx+0x10],0x0
c0104d24:	75 18                	jne    c0104d3e <uio_move+0x40>
c0104d26:	85 c9                	test   ecx,ecx
c0104d28:	75 06                	jne    c0104d30 <uio_move+0x32>
c0104d2a:	51                   	push   ecx
c0104d2b:	56                   	push   esi
c0104d2c:	52                   	push   edx
c0104d2d:	50                   	push   eax
c0104d2e:	eb 04                	jmp    c0104d34 <uio_move+0x36>
c0104d30:	51                   	push   ecx
c0104d31:	56                   	push   esi
c0104d32:	50                   	push   eax
c0104d33:	52                   	push   edx
c0104d34:	e8 f3 c4 ff ff       	call   c010122c <memmove>
c0104d39:	83 c4 10             	add    esp,0x10
c0104d3c:	eb 1f                	jmp    c0104d5d <uio_move+0x5f>
c0104d3e:	85 c9                	test   ecx,ecx
c0104d40:	75 0b                	jne    c0104d4d <uio_move+0x4f>
c0104d42:	51                   	push   ecx
c0104d43:	56                   	push   esi
c0104d44:	50                   	push   eax
c0104d45:	52                   	push   edx
c0104d46:	e8 1f fe ff ff       	call   c0104b6a <copyout>
c0104d4b:	eb 09                	jmp    c0104d56 <uio_move+0x58>
c0104d4d:	51                   	push   ecx
c0104d4e:	56                   	push   esi
c0104d4f:	50                   	push   eax
c0104d50:	52                   	push   edx
c0104d51:	e8 dc fd ff ff       	call   c0104b32 <copyin>
c0104d56:	83 c4 10             	add    esp,0x10
c0104d59:	85 c0                	test   eax,eax
c0104d5b:	75 0a                	jne    c0104d67 <uio_move+0x69>
c0104d5d:	29 73 04             	sub    DWORD PTR [ebx+0x4],esi
c0104d60:	01 73 08             	add    DWORD PTR [ebx+0x8],esi
c0104d63:	01 33                	add    DWORD PTR [ebx],esi
c0104d65:	31 c0                	xor    eax,eax
c0104d67:	8d 65 f8             	lea    esp,[ebp-0x8]
c0104d6a:	5b                   	pop    ebx
c0104d6b:	5e                   	pop    esi
c0104d6c:	5d                   	pop    ebp
c0104d6d:	c3                   	ret    

c0104d6e <uio_move_string_to_usermode>:
c0104d6e:	55                   	push   ebp
c0104d6f:	89 e5                	mov    ebp,esp
c0104d71:	57                   	push   edi
c0104d72:	56                   	push   esi
c0104d73:	53                   	push   ebx
c0104d74:	83 ec 38             	sub    esp,0x38
c0104d77:	8b 75 08             	mov    esi,DWORD PTR [ebp+0x8]
c0104d7a:	8b 5d 10             	mov    ebx,DWORD PTR [ebp+0x10]
c0104d7d:	c6 45 d3 00          	mov    BYTE PTR [ebp-0x2d],0x0
c0104d81:	8b 45 0c             	mov    eax,DWORD PTR [ebp+0xc]
c0104d84:	89 45 d4             	mov    DWORD PTR [ebp-0x2c],eax
c0104d87:	89 5d d8             	mov    DWORD PTR [ebp-0x28],ebx
c0104d8a:	c7 45 dc 00 00 00 00 	mov    DWORD PTR [ebp-0x24],0x0
c0104d91:	c7 45 e0 00 00 00 00 	mov    DWORD PTR [ebp-0x20],0x0
c0104d98:	c7 45 e4 01 00 00 00 	mov    DWORD PTR [ebp-0x1c],0x1
c0104d9f:	56                   	push   esi
c0104da0:	e8 59 c5 ff ff       	call   c01012fe <strlen>
c0104da5:	83 c4 10             	add    esp,0x10
c0104da8:	39 d8                	cmp    eax,ebx
c0104daa:	8d 7d d4             	lea    edi,[ebp-0x2c]
c0104dad:	73 0f                	jae    c0104dbe <uio_move_string_to_usermode+0x50>
c0104daf:	83 ec 0c             	sub    esp,0xc
c0104db2:	56                   	push   esi
c0104db3:	e8 46 c5 ff ff       	call   c01012fe <strlen>
c0104db8:	83 c4 0c             	add    esp,0xc
c0104dbb:	50                   	push   eax
c0104dbc:	eb 03                	jmp    c0104dc1 <uio_move_string_to_usermode+0x53>
c0104dbe:	52                   	push   edx
c0104dbf:	4b                   	dec    ebx
c0104dc0:	53                   	push   ebx
c0104dc1:	57                   	push   edi
c0104dc2:	56                   	push   esi
c0104dc3:	e8 36 ff ff ff       	call   c0104cfe <uio_move>
c0104dc8:	83 c4 10             	add    esp,0x10
c0104dcb:	85 c0                	test   eax,eax
c0104dcd:	75 10                	jne    c0104ddf <uio_move_string_to_usermode+0x71>
c0104dcf:	50                   	push   eax
c0104dd0:	6a 01                	push   0x1
c0104dd2:	57                   	push   edi
c0104dd3:	8d 45 d3             	lea    eax,[ebp-0x2d]
c0104dd6:	50                   	push   eax
c0104dd7:	e8 22 ff ff ff       	call   c0104cfe <uio_move>
c0104ddc:	83 c4 10             	add    esp,0x10
c0104ddf:	8d 65 f4             	lea    esp,[ebp-0xc]
c0104de2:	5b                   	pop    ebx
c0104de3:	5e                   	pop    esi
c0104de4:	5f                   	pop    edi
c0104de5:	5d                   	pop    ebp
c0104de6:	c3                   	ret    

c0104de7 <uio_move_string_from_usermode>:
c0104de7:	55                   	push   ebp
c0104de8:	89 e5                	mov    ebp,esp
c0104dea:	56                   	push   esi
c0104deb:	53                   	push   ebx
c0104dec:	83 ec 20             	sub    esp,0x20
c0104def:	8b 75 10             	mov    esi,DWORD PTR [ebp+0x10]
c0104df2:	8b 45 0c             	mov    eax,DWORD PTR [ebp+0xc]
c0104df5:	89 45 e4             	mov    DWORD PTR [ebp-0x1c],eax
c0104df8:	89 75 e8             	mov    DWORD PTR [ebp-0x18],esi
c0104dfb:	c7 45 ec 00 00 00 00 	mov    DWORD PTR [ebp-0x14],0x0
c0104e02:	c7 45 f0 01 00 00 00 	mov    DWORD PTR [ebp-0x10],0x1
c0104e09:	c7 45 f4 01 00 00 00 	mov    DWORD PTR [ebp-0xc],0x1
c0104e10:	8b 5d 08             	mov    ebx,DWORD PTR [ebp+0x8]
c0104e13:	01 de                	add    esi,ebx
c0104e15:	39 f3                	cmp    ebx,esi
c0104e17:	74 21                	je     c0104e3a <uio_move_string_from_usermode+0x53>
c0104e19:	50                   	push   eax
c0104e1a:	6a 01                	push   0x1
c0104e1c:	8d 45 e4             	lea    eax,[ebp-0x1c]
c0104e1f:	50                   	push   eax
c0104e20:	8d 45 e3             	lea    eax,[ebp-0x1d]
c0104e23:	50                   	push   eax
c0104e24:	e8 d5 fe ff ff       	call   c0104cfe <uio_move>
c0104e29:	83 c4 10             	add    esp,0x10
c0104e2c:	85 c0                	test   eax,eax
c0104e2e:	75 0c                	jne    c0104e3c <uio_move_string_from_usermode+0x55>
c0104e30:	8a 45 e3             	mov    al,BYTE PTR [ebp-0x1d]
c0104e33:	88 03                	mov    BYTE PTR [ebx],al
c0104e35:	43                   	inc    ebx
c0104e36:	84 c0                	test   al,al
c0104e38:	75 db                	jne    c0104e15 <uio_move_string_from_usermode+0x2e>
c0104e3a:	31 c0                	xor    eax,eax
c0104e3c:	8d 65 f8             	lea    esp,[ebp-0x8]
c0104e3f:	5b                   	pop    ebx
c0104e40:	5e                   	pop    esi
c0104e41:	5d                   	pop    ebp
c0104e42:	c3                   	ret    

c0104e43 <uio_construct>:
c0104e43:	55                   	push   ebp
c0104e44:	89 e5                	mov    ebp,esp
c0104e46:	8b 45 08             	mov    eax,DWORD PTR [ebp+0x8]
c0104e49:	8b 55 0c             	mov    edx,DWORD PTR [ebp+0xc]
c0104e4c:	89 10                	mov    DWORD PTR [eax],edx
c0104e4e:	8b 55 10             	mov    edx,DWORD PTR [ebp+0x10]
c0104e51:	89 50 04             	mov    DWORD PTR [eax+0x4],edx
c0104e54:	8b 55 14             	mov    edx,DWORD PTR [ebp+0x14]
c0104e57:	89 50 08             	mov    DWORD PTR [eax+0x8],edx
c0104e5a:	8b 55 18             	mov    edx,DWORD PTR [ebp+0x18]
c0104e5d:	89 50 0c             	mov    DWORD PTR [eax+0xc],edx
c0104e60:	8b 55 1c             	mov    edx,DWORD PTR [ebp+0x1c]
c0104e63:	89 50 10             	mov    DWORD PTR [eax+0x10],edx
c0104e66:	5d                   	pop    ebp
c0104e67:	c2 04 00             	ret    0x4

c0104e6a <vfs_check_device_name_not_used>:
c0104e6a:	55                   	push   ebp
c0104e6b:	89 e5                	mov    ebp,esp
c0104e6d:	53                   	push   ebx
c0104e6e:	83 ec 10             	sub    esp,0x10
c0104e71:	89 c3                	mov    ebx,eax
c0104e73:	ff 35 7c 57 11 c0    	push   DWORD PTR ds:0xc011577c
c0104e79:	e8 80 f7 ff ff       	call   c01045fe <adt_list_reset>
c0104e7e:	83 c4 10             	add    esp,0x10
c0104e81:	83 ec 0c             	sub    esp,0xc
c0104e84:	ff 35 7c 57 11 c0    	push   DWORD PTR ds:0xc011577c
c0104e8a:	e8 80 f7 ff ff       	call   c010460f <adt_list_has_next>
c0104e8f:	83 c4 10             	add    esp,0x10
c0104e92:	84 c0                	test   al,al
c0104e94:	74 27                	je     c0104ebd <vfs_check_device_name_not_used+0x53>
c0104e96:	83 ec 0c             	sub    esp,0xc
c0104e99:	ff 35 7c 57 11 c0    	push   DWORD PTR ds:0xc011577c
c0104e9f:	e8 90 f7 ff ff       	call   c0104634 <adt_list_get_next>
c0104ea4:	5a                   	pop    edx
c0104ea5:	59                   	pop    ecx
c0104ea6:	53                   	push   ebx
c0104ea7:	ff 70 04             	push   DWORD PTR [eax+0x4]
c0104eaa:	e8 fe c3 ff ff       	call   c01012ad <strcmp>
c0104eaf:	83 c4 10             	add    esp,0x10
c0104eb2:	85 c0                	test   eax,eax
c0104eb4:	75 cb                	jne    c0104e81 <vfs_check_device_name_not_used+0x17>
c0104eb6:	b8 08 00 00 00       	mov    eax,0x8
c0104ebb:	eb 02                	jmp    c0104ebf <vfs_check_device_name_not_used+0x55>
c0104ebd:	31 c0                	xor    eax,eax
c0104ebf:	8b 5d fc             	mov    ebx,DWORD PTR [ebp-0x4]
c0104ec2:	c9                   	leave  
c0104ec3:	c3                   	ret    

c0104ec4 <cleanup_vnode_stack>:
c0104ec4:	55                   	push   ebp
c0104ec5:	89 e5                	mov    ebp,esp
c0104ec7:	53                   	push   ebx
c0104ec8:	52                   	push   edx
c0104ec9:	89 c3                	mov    ebx,eax
c0104ecb:	83 ec 0c             	sub    esp,0xc
c0104ece:	53                   	push   ebx
c0104ecf:	e8 94 f8 ff ff       	call   c0104768 <adt_stack_size>
c0104ed4:	83 c4 10             	add    esp,0x10
c0104ed7:	85 c0                	test   eax,eax
c0104ed9:	7e 16                	jle    c0104ef1 <cleanup_vnode_stack+0x2d>
c0104edb:	83 ec 0c             	sub    esp,0xc
c0104ede:	53                   	push   ebx
c0104edf:	e8 73 f8 ff ff       	call   c0104757 <adt_stack_pop>
c0104ee4:	89 04 24             	mov    DWORD PTR [esp],eax
c0104ee7:	e8 97 0b 00 00       	call   c0105a83 <vnode_dereference>
c0104eec:	83 c4 10             	add    esp,0x10
c0104eef:	eb da                	jmp    c0104ecb <cleanup_vnode_stack+0x7>
c0104ef1:	83 ec 0c             	sub    esp,0xc
c0104ef4:	53                   	push   ebx
c0104ef5:	e8 2c f8 ff ff       	call   c0104726 <adt_stack_destroy>
c0104efa:	83 c4 10             	add    esp,0x10
c0104efd:	8b 5d fc             	mov    ebx,DWORD PTR [ebp-0x4]
c0104f00:	c9                   	leave  
c0104f01:	c3                   	ret    

c0104f02 <vfs_check_valid_component_name>:
c0104f02:	80 38 00             	cmp    BYTE PTR [eax],0x0
c0104f05:	75 06                	jne    c0104f0d <vfs_check_valid_component_name+0xb>
c0104f07:	b8 07 00 00 00       	mov    eax,0x7
c0104f0c:	c3                   	ret    
c0104f0d:	8a 10                	mov    dl,BYTE PTR [eax]
c0104f0f:	84 d2                	test   dl,dl
c0104f11:	75 03                	jne    c0104f16 <vfs_check_valid_component_name+0x14>
c0104f13:	31 c0                	xor    eax,eax
c0104f15:	c3                   	ret    
c0104f16:	55                   	push   ebp
c0104f17:	89 e5                	mov    ebp,esp
c0104f19:	53                   	push   ebx
c0104f1a:	40                   	inc    eax
c0104f1b:	80 fa 2f             	cmp    dl,0x2f
c0104f1e:	0f 94 c3             	sete   bl
c0104f21:	80 fa 5c             	cmp    dl,0x5c
c0104f24:	0f 94 c1             	sete   cl
c0104f27:	08 cb                	or     bl,cl
c0104f29:	75 0f                	jne    c0104f3a <vfs_check_valid_component_name+0x38>
c0104f2b:	80 fa 3a             	cmp    dl,0x3a
c0104f2e:	74 0a                	je     c0104f3a <vfs_check_valid_component_name+0x38>
c0104f30:	8a 10                	mov    dl,BYTE PTR [eax]
c0104f32:	84 d2                	test   dl,dl
c0104f34:	75 e4                	jne    c0104f1a <vfs_check_valid_component_name+0x18>
c0104f36:	31 c0                	xor    eax,eax
c0104f38:	eb 05                	jmp    c0104f3f <vfs_check_valid_component_name+0x3d>
c0104f3a:	b8 07 00 00 00       	mov    eax,0x7
c0104f3f:	5b                   	pop    ebx
c0104f40:	5d                   	pop    ebp
c0104f41:	c3                   	ret    

c0104f42 <vfs_get_device_from_name.part.1>:
c0104f42:	55                   	push   ebp
c0104f43:	89 e5                	mov    ebp,esp
c0104f45:	56                   	push   esi
c0104f46:	53                   	push   ebx
c0104f47:	89 c6                	mov    esi,eax
c0104f49:	83 ec 0c             	sub    esp,0xc
c0104f4c:	ff 35 7c 57 11 c0    	push   DWORD PTR ds:0xc011577c
c0104f52:	e8 b8 f6 ff ff       	call   c010460f <adt_list_has_next>
c0104f57:	83 c4 10             	add    esp,0x10
c0104f5a:	84 c0                	test   al,al
c0104f5c:	74 26                	je     c0104f84 <vfs_get_device_from_name.part.1+0x42>
c0104f5e:	83 ec 0c             	sub    esp,0xc
c0104f61:	ff 35 7c 57 11 c0    	push   DWORD PTR ds:0xc011577c
c0104f67:	e8 c8 f6 ff ff       	call   c0104634 <adt_list_get_next>
c0104f6c:	89 c3                	mov    ebx,eax
c0104f6e:	58                   	pop    eax
c0104f6f:	5a                   	pop    edx
c0104f70:	56                   	push   esi
c0104f71:	ff 73 04             	push   DWORD PTR [ebx+0x4]
c0104f74:	e8 34 c3 ff ff       	call   c01012ad <strcmp>
c0104f79:	83 c4 10             	add    esp,0x10
c0104f7c:	85 c0                	test   eax,eax
c0104f7e:	75 c9                	jne    c0104f49 <vfs_get_device_from_name.part.1+0x7>
c0104f80:	8b 03                	mov    eax,DWORD PTR [ebx]
c0104f82:	eb 02                	jmp    c0104f86 <vfs_get_device_from_name.part.1+0x44>
c0104f84:	31 c0                	xor    eax,eax
c0104f86:	8d 65 f8             	lea    esp,[ebp-0x8]
c0104f89:	5b                   	pop    ebx
c0104f8a:	5e                   	pop    esi
c0104f8b:	5d                   	pop    ebp
c0104f8c:	c3                   	ret    

c0104f8d <vfs_init>:
c0104f8d:	55                   	push   ebp
c0104f8e:	89 e5                	mov    ebp,esp
c0104f90:	83 ec 10             	sub    esp,0x10
c0104f93:	68 16 9b 10 c0       	push   0xc0109b16
c0104f98:	68 00 1b 11 c0       	push   0xc0111b00
c0104f9d:	e8 aa e3 ff ff       	call   c010334c <spinlock_init>
c0104fa2:	e8 7b f4 ff ff       	call   c0104422 <adt_list_create>
c0104fa7:	a3 7c 57 11 c0       	mov    ds:0xc011577c,eax
c0104fac:	83 c4 10             	add    esp,0x10
c0104faf:	c9                   	leave  
c0104fb0:	c3                   	ret    

c0104fb1 <vfs_get_path_component>:
c0104fb1:	55                   	push   ebp
c0104fb2:	89 e5                	mov    ebp,esp
c0104fb4:	57                   	push   edi
c0104fb5:	56                   	push   esi
c0104fb6:	53                   	push   ebx
c0104fb7:	83 ec 1c             	sub    esp,0x1c
c0104fba:	8b 7d 08             	mov    edi,DWORD PTR [ebp+0x8]
c0104fbd:	8b 55 0c             	mov    edx,DWORD PTR [ebp+0xc]
c0104fc0:	8b 45 10             	mov    eax,DWORD PTR [ebp+0x10]
c0104fc3:	8a 4d 18             	mov    cl,BYTE PTR [ebp+0x18]
c0104fc6:	88 4d e7             	mov    BYTE PTR [ebp-0x19],cl
c0104fc9:	c6 00 00             	mov    BYTE PTR [eax],0x0
c0104fcc:	31 c9                	xor    ecx,ecx
c0104fce:	8b 75 14             	mov    esi,DWORD PTR [ebp+0x14]
c0104fd1:	4e                   	dec    esi
c0104fd2:	8b 1a                	mov    ebx,DWORD PTR [edx]
c0104fd4:	8a 1c 1f             	mov    bl,BYTE PTR [edi+ebx*1]
c0104fd7:	84 db                	test   bl,bl
c0104fd9:	74 24                	je     c0104fff <vfs_get_path_component+0x4e>
c0104fdb:	3a 5d e7             	cmp    bl,BYTE PTR [ebp-0x19]
c0104fde:	74 11                	je     c0104ff1 <vfs_get_path_component+0x40>
c0104fe0:	39 ce                	cmp    esi,ecx
c0104fe2:	7e 27                	jle    c010500b <vfs_get_path_component+0x5a>
c0104fe4:	41                   	inc    ecx
c0104fe5:	88 5c 08 ff          	mov    BYTE PTR [eax+ecx*1-0x1],bl
c0104fe9:	c6 04 08 00          	mov    BYTE PTR [eax+ecx*1],0x0
c0104fed:	ff 02                	inc    DWORD PTR [edx]
c0104fef:	eb e1                	jmp    c0104fd2 <vfs_get_path_component+0x21>
c0104ff1:	8b 0a                	mov    ecx,DWORD PTR [edx]
c0104ff3:	8d 59 01             	lea    ebx,[ecx+0x1]
c0104ff6:	89 1a                	mov    DWORD PTR [edx],ebx
c0104ff8:	80 7c 0f 01 2f       	cmp    BYTE PTR [edi+ecx*1+0x1],0x2f
c0104ffd:	74 f2                	je     c0104ff1 <vfs_get_path_component+0x40>
c0104fff:	83 c4 1c             	add    esp,0x1c
c0105002:	5b                   	pop    ebx
c0105003:	5e                   	pop    esi
c0105004:	5f                   	pop    edi
c0105005:	5d                   	pop    ebp
c0105006:	e9 f7 fe ff ff       	jmp    c0104f02 <vfs_check_valid_component_name>
c010500b:	b8 0d 00 00 00       	mov    eax,0xd
c0105010:	83 c4 1c             	add    esp,0x1c
c0105013:	5b                   	pop    ebx
c0105014:	5e                   	pop    esi
c0105015:	5f                   	pop    edi
c0105016:	5d                   	pop    ebp
c0105017:	c3                   	ret    

c0105018 <vfs_get_vnode_from_path.part.2>:
c0105018:	55                   	push   ebp
c0105019:	89 e5                	mov    ebp,esp
c010501b:	57                   	push   edi
c010501c:	56                   	push   esi
c010501d:	53                   	push   ebx
c010501e:	81 ec 38 02 00 00    	sub    esp,0x238
c0105024:	89 85 d4 fd ff ff    	mov    DWORD PTR [ebp-0x22c],eax
c010502a:	89 95 d0 fd ff ff    	mov    DWORD PTR [ebp-0x230],edx
c0105030:	89 8d cc fd ff ff    	mov    DWORD PTR [ebp-0x234],ecx
c0105036:	c7 85 dc fd ff ff 00 00 00 00 	mov    DWORD PTR [ebp-0x224],0x0
c0105040:	6a 3a                	push   0x3a
c0105042:	68 00 01 00 00       	push   0x100
c0105047:	8d 9d e7 fd ff ff    	lea    ebx,[ebp-0x219]
c010504d:	53                   	push   ebx
c010504e:	8d 85 dc fd ff ff    	lea    eax,[ebp-0x224]
c0105054:	50                   	push   eax
c0105055:	ff b5 d4 fd ff ff    	push   DWORD PTR [ebp-0x22c]
c010505b:	e8 51 ff ff ff       	call   c0104fb1 <vfs_get_path_component>
c0105060:	89 c7                	mov    edi,eax
c0105062:	83 c4 20             	add    esp,0x20
c0105065:	85 c0                	test   eax,eax
c0105067:	0f 85 bb 01 00 00    	jne    c0105228 <vfs_get_vnode_from_path.part.2+0x210>
c010506d:	a1 7c 57 11 c0       	mov    eax,ds:0xc011577c
c0105072:	85 c0                	test   eax,eax
c0105074:	75 0a                	jne    c0105080 <vfs_get_vnode_from_path.part.2+0x68>
c0105076:	bf 03 00 00 00       	mov    edi,0x3
c010507b:	e9 a8 01 00 00       	jmp    c0105228 <vfs_get_vnode_from_path.part.2+0x210>
c0105080:	83 ec 0c             	sub    esp,0xc
c0105083:	50                   	push   eax
c0105084:	e8 75 f5 ff ff       	call   c01045fe <adt_list_reset>
c0105089:	89 d8                	mov    eax,ebx
c010508b:	e8 b2 fe ff ff       	call   c0104f42 <vfs_get_device_from_name.part.1>
c0105090:	89 c3                	mov    ebx,eax
c0105092:	83 c4 10             	add    esp,0x10
c0105095:	85 c0                	test   eax,eax
c0105097:	74 dd                	je     c0105076 <vfs_get_vnode_from_path.part.2+0x5e>
c0105099:	83 ec 0c             	sub    esp,0xc
c010509c:	50                   	push   eax
c010509d:	e8 b6 08 00 00       	call   c0105958 <vnode_reference>
c01050a2:	e8 61 f6 ff ff       	call   c0104708 <adt_stack_create>
c01050a7:	89 c6                	mov    esi,eax
c01050a9:	83 c4 10             	add    esp,0x10
c01050ac:	83 ec 0c             	sub    esp,0xc
c01050af:	ff b5 d4 fd ff ff    	push   DWORD PTR [ebp-0x22c]
c01050b5:	e8 44 c2 ff ff       	call   c01012fe <strlen>
c01050ba:	83 c4 10             	add    esp,0x10
c01050bd:	3b 85 dc fd ff ff    	cmp    eax,DWORD PTR [ebp-0x224]
c01050c3:	0f 8e 1a 01 00 00    	jle    c01051e3 <vfs_get_vnode_from_path.part.2+0x1cb>
c01050c9:	83 ec 0c             	sub    esp,0xc
c01050cc:	53                   	push   ebx
c01050cd:	e8 3b 0a 00 00       	call   c0105b0d <vnode_op_dirent_type>
c01050d2:	83 c4 10             	add    esp,0x10
c01050d5:	3c 02                	cmp    al,0x2
c01050d7:	74 1d                	je     c01050f6 <vfs_get_vnode_from_path.part.2+0xde>
c01050d9:	83 ec 0c             	sub    esp,0xc
c01050dc:	53                   	push   ebx
c01050dd:	e8 a1 09 00 00       	call   c0105a83 <vnode_dereference>
c01050e2:	89 f0                	mov    eax,esi
c01050e4:	e8 db fd ff ff       	call   c0104ec4 <cleanup_vnode_stack>
c01050e9:	83 c4 10             	add    esp,0x10
c01050ec:	ba 0e 00 00 00       	mov    edx,0xe
c01050f1:	e9 e9 00 00 00       	jmp    c01051df <vfs_get_vnode_from_path.part.2+0x1c7>
c01050f6:	83 ec 0c             	sub    esp,0xc
c01050f9:	6a 2f                	push   0x2f
c01050fb:	68 00 01 00 00       	push   0x100
c0105100:	8d 85 e7 fe ff ff    	lea    eax,[ebp-0x119]
c0105106:	50                   	push   eax
c0105107:	8d 85 dc fd ff ff    	lea    eax,[ebp-0x224]
c010510d:	50                   	push   eax
c010510e:	ff b5 d4 fd ff ff    	push   DWORD PTR [ebp-0x22c]
c0105114:	e8 98 fe ff ff       	call   c0104fb1 <vfs_get_path_component>
c0105119:	89 c2                	mov    edx,eax
c010511b:	83 c4 20             	add    esp,0x20
c010511e:	85 c0                	test   eax,eax
c0105120:	0f 85 84 00 00 00    	jne    c01051aa <vfs_get_vnode_from_path.part.2+0x192>
c0105126:	50                   	push   eax
c0105127:	50                   	push   eax
c0105128:	68 20 9b 10 c0       	push   0xc0109b20
c010512d:	8d 85 e7 fe ff ff    	lea    eax,[ebp-0x119]
c0105133:	50                   	push   eax
c0105134:	e8 74 c1 ff ff       	call   c01012ad <strcmp>
c0105139:	83 c4 10             	add    esp,0x10
c010513c:	85 c0                	test   eax,eax
c010513e:	0f 84 68 ff ff ff    	je     c01050ac <vfs_get_vnode_from_path.part.2+0x94>
c0105144:	51                   	push   ecx
c0105145:	51                   	push   ecx
c0105146:	68 1f 9b 10 c0       	push   0xc0109b1f
c010514b:	8d 85 e7 fe ff ff    	lea    eax,[ebp-0x119]
c0105151:	50                   	push   eax
c0105152:	e8 56 c1 ff ff       	call   c01012ad <strcmp>
c0105157:	83 c4 10             	add    esp,0x10
c010515a:	85 c0                	test   eax,eax
c010515c:	75 24                	jne    c0105182 <vfs_get_vnode_from_path.part.2+0x16a>
c010515e:	83 ec 0c             	sub    esp,0xc
c0105161:	56                   	push   esi
c0105162:	e8 01 f6 ff ff       	call   c0104768 <adt_stack_size>
c0105167:	83 c4 10             	add    esp,0x10
c010516a:	85 c0                	test   eax,eax
c010516c:	0f 84 3a ff ff ff    	je     c01050ac <vfs_get_vnode_from_path.part.2+0x94>
c0105172:	83 ec 0c             	sub    esp,0xc
c0105175:	56                   	push   esi
c0105176:	e8 dc f5 ff ff       	call   c0104757 <adt_stack_pop>
c010517b:	89 c3                	mov    ebx,eax
c010517d:	e9 27 ff ff ff       	jmp    c01050a9 <vfs_get_vnode_from_path.part.2+0x91>
c0105182:	c7 85 e0 fd ff ff 00 00 00 00 	mov    DWORD PTR [ebp-0x220],0x0
c010518c:	52                   	push   edx
c010518d:	8d 85 e7 fe ff ff    	lea    eax,[ebp-0x119]
c0105193:	50                   	push   eax
c0105194:	8d 85 e0 fd ff ff    	lea    eax,[ebp-0x220]
c010519a:	50                   	push   eax
c010519b:	53                   	push   ebx
c010519c:	e8 3c 09 00 00       	call   c0105add <vnode_op_follow>
c01051a1:	89 c2                	mov    edx,eax
c01051a3:	83 c4 10             	add    esp,0x10
c01051a6:	85 c0                	test   eax,eax
c01051a8:	74 21                	je     c01051cb <vfs_get_vnode_from_path.part.2+0x1b3>
c01051aa:	89 95 d4 fd ff ff    	mov    DWORD PTR [ebp-0x22c],edx
c01051b0:	83 ec 0c             	sub    esp,0xc
c01051b3:	53                   	push   ebx
c01051b4:	e8 ca 08 00 00       	call   c0105a83 <vnode_dereference>
c01051b9:	89 f0                	mov    eax,esi
c01051bb:	e8 04 fd ff ff       	call   c0104ec4 <cleanup_vnode_stack>
c01051c0:	83 c4 10             	add    esp,0x10
c01051c3:	8b 95 d4 fd ff ff    	mov    edx,DWORD PTR [ebp-0x22c]
c01051c9:	eb 14                	jmp    c01051df <vfs_get_vnode_from_path.part.2+0x1c7>
c01051cb:	50                   	push   eax
c01051cc:	50                   	push   eax
c01051cd:	53                   	push   ebx
c01051ce:	56                   	push   esi
c01051cf:	e8 72 f5 ff ff       	call   c0104746 <adt_stack_push>
c01051d4:	8b 9d e0 fd ff ff    	mov    ebx,DWORD PTR [ebp-0x220]
c01051da:	e9 ca fe ff ff       	jmp    c01050a9 <vfs_get_vnode_from_path.part.2+0x91>
c01051df:	89 d7                	mov    edi,edx
c01051e1:	eb 45                	jmp    c0105228 <vfs_get_vnode_from_path.part.2+0x210>
c01051e3:	80 bd cc fd ff ff 00 	cmp    BYTE PTR [ebp-0x234],0x0
c01051ea:	74 26                	je     c0105212 <vfs_get_vnode_from_path.part.2+0x1fa>
c01051ec:	83 ec 0c             	sub    esp,0xc
c01051ef:	56                   	push   esi
c01051f0:	e8 73 f5 ff ff       	call   c0104768 <adt_stack_size>
c01051f5:	83 c4 10             	add    esp,0x10
c01051f8:	85 c0                	test   eax,eax
c01051fa:	74 20                	je     c010521c <vfs_get_vnode_from_path.part.2+0x204>
c01051fc:	83 ec 0c             	sub    esp,0xc
c01051ff:	56                   	push   esi
c0105200:	e8 52 f5 ff ff       	call   c0104757 <adt_stack_pop>
c0105205:	8b 8d d0 fd ff ff    	mov    ecx,DWORD PTR [ebp-0x230]
c010520b:	89 01                	mov    DWORD PTR [ecx],eax
c010520d:	83 c4 10             	add    esp,0x10
c0105210:	eb 0f                	jmp    c0105221 <vfs_get_vnode_from_path.part.2+0x209>
c0105212:	8b 85 d0 fd ff ff    	mov    eax,DWORD PTR [ebp-0x230]
c0105218:	89 18                	mov    DWORD PTR [eax],ebx
c010521a:	eb 05                	jmp    c0105221 <vfs_get_vnode_from_path.part.2+0x209>
c010521c:	bf 07 00 00 00       	mov    edi,0x7
c0105221:	89 f0                	mov    eax,esi
c0105223:	e8 9c fc ff ff       	call   c0104ec4 <cleanup_vnode_stack>
c0105228:	89 f8                	mov    eax,edi
c010522a:	8d 65 f4             	lea    esp,[ebp-0xc]
c010522d:	5b                   	pop    ebx
c010522e:	5e                   	pop    esi
c010522f:	5f                   	pop    edi
c0105230:	5d                   	pop    ebp
c0105231:	c3                   	ret    

c0105232 <vfs_get_vnode_from_path>:
c0105232:	55                   	push   ebp
c0105233:	89 e5                	mov    ebp,esp
c0105235:	57                   	push   edi
c0105236:	56                   	push   esi
c0105237:	53                   	push   ebx
c0105238:	83 ec 18             	sub    esp,0x18
c010523b:	89 c3                	mov    ebx,eax
c010523d:	89 d7                	mov    edi,edx
c010523f:	89 ce                	mov    esi,ecx
c0105241:	50                   	push   eax
c0105242:	e8 b7 c0 ff ff       	call   c01012fe <strlen>
c0105247:	83 c4 10             	add    esp,0x10
c010524a:	85 c0                	test   eax,eax
c010524c:	74 28                	je     c0105276 <vfs_get_vnode_from_path+0x44>
c010524e:	83 ec 0c             	sub    esp,0xc
c0105251:	53                   	push   ebx
c0105252:	e8 a7 c0 ff ff       	call   c01012fe <strlen>
c0105257:	83 c4 10             	add    esp,0x10
c010525a:	3d d0 07 00 00       	cmp    eax,0x7d0
c010525f:	77 1c                	ja     c010527d <vfs_get_vnode_from_path+0x4b>
c0105261:	89 f0                	mov    eax,esi
c0105263:	0f b6 c8             	movzx  ecx,al
c0105266:	89 fa                	mov    edx,edi
c0105268:	89 d8                	mov    eax,ebx
c010526a:	8d 65 f4             	lea    esp,[ebp-0xc]
c010526d:	5b                   	pop    ebx
c010526e:	5e                   	pop    esi
c010526f:	5f                   	pop    edi
c0105270:	5d                   	pop    ebp
c0105271:	e9 a2 fd ff ff       	jmp    c0105018 <vfs_get_vnode_from_path.part.2>
c0105276:	b8 07 00 00 00       	mov    eax,0x7
c010527b:	eb 05                	jmp    c0105282 <vfs_get_vnode_from_path+0x50>
c010527d:	b8 0d 00 00 00       	mov    eax,0xd
c0105282:	8d 65 f4             	lea    esp,[ebp-0xc]
c0105285:	5b                   	pop    ebx
c0105286:	5e                   	pop    esi
c0105287:	5f                   	pop    edi
c0105288:	5d                   	pop    ebp
c0105289:	c3                   	ret    

c010528a <vfs_get_final_component>:
c010528a:	55                   	push   ebp
c010528b:	89 e5                	mov    ebp,esp
c010528d:	57                   	push   edi
c010528e:	56                   	push   esi
c010528f:	53                   	push   ebx
c0105290:	83 ec 28             	sub    esp,0x28
c0105293:	8b 75 08             	mov    esi,DWORD PTR [ebp+0x8]
c0105296:	c7 45 e4 00 00 00 00 	mov    DWORD PTR [ebp-0x1c],0x0
c010529d:	6a 3a                	push   0x3a
c010529f:	ff 75 10             	push   DWORD PTR [ebp+0x10]
c01052a2:	ff 75 0c             	push   DWORD PTR [ebp+0xc]
c01052a5:	8d 7d e4             	lea    edi,[ebp-0x1c]
c01052a8:	57                   	push   edi
c01052a9:	56                   	push   esi
c01052aa:	e8 02 fd ff ff       	call   c0104fb1 <vfs_get_path_component>
c01052af:	89 c3                	mov    ebx,eax
c01052b1:	83 c4 20             	add    esp,0x20
c01052b4:	85 c0                	test   eax,eax
c01052b6:	75 2c                	jne    c01052e4 <vfs_get_final_component+0x5a>
c01052b8:	83 ec 0c             	sub    esp,0xc
c01052bb:	56                   	push   esi
c01052bc:	e8 3d c0 ff ff       	call   c01012fe <strlen>
c01052c1:	83 c4 10             	add    esp,0x10
c01052c4:	3b 45 e4             	cmp    eax,DWORD PTR [ebp-0x1c]
c01052c7:	7e 1b                	jle    c01052e4 <vfs_get_final_component+0x5a>
c01052c9:	83 ec 0c             	sub    esp,0xc
c01052cc:	6a 2f                	push   0x2f
c01052ce:	ff 75 10             	push   DWORD PTR [ebp+0x10]
c01052d1:	ff 75 0c             	push   DWORD PTR [ebp+0xc]
c01052d4:	57                   	push   edi
c01052d5:	56                   	push   esi
c01052d6:	e8 d6 fc ff ff       	call   c0104fb1 <vfs_get_path_component>
c01052db:	83 c4 20             	add    esp,0x20
c01052de:	85 c0                	test   eax,eax
c01052e0:	74 d6                	je     c01052b8 <vfs_get_final_component+0x2e>
c01052e2:	89 c3                	mov    ebx,eax
c01052e4:	89 d8                	mov    eax,ebx
c01052e6:	8d 65 f4             	lea    esp,[ebp-0xc]
c01052e9:	5b                   	pop    ebx
c01052ea:	5e                   	pop    esi
c01052eb:	5f                   	pop    edi
c01052ec:	5d                   	pop    ebp
c01052ed:	c3                   	ret    

c01052ee <vfs_open.part.3>:
c01052ee:	55                   	push   ebp
c01052ef:	89 e5                	mov    ebp,esp
c01052f1:	57                   	push   edi
c01052f2:	56                   	push   esi
c01052f3:	53                   	push   ebx
c01052f4:	81 ec 30 01 00 00    	sub    esp,0x130
c01052fa:	89 c6                	mov    esi,eax
c01052fc:	89 d3                	mov    ebx,edx
c01052fe:	89 8d d4 fe ff ff    	mov    DWORD PTR [ebp-0x12c],ecx
c0105304:	68 00 01 00 00       	push   0x100
c0105309:	8d 85 e7 fe ff ff    	lea    eax,[ebp-0x119]
c010530f:	50                   	push   eax
c0105310:	56                   	push   esi
c0105311:	e8 74 ff ff ff       	call   c010528a <vfs_get_final_component>
c0105316:	89 c7                	mov    edi,eax
c0105318:	83 c4 10             	add    esp,0x10
c010531b:	85 c0                	test   eax,eax
c010531d:	0f 85 e4 00 00 00    	jne    c0105407 <vfs_open.part.3+0x119>
c0105323:	31 c9                	xor    ecx,ecx
c0105325:	8d 95 e0 fe ff ff    	lea    edx,[ebp-0x120]
c010532b:	89 f0                	mov    eax,esi
c010532d:	e8 00 ff ff ff       	call   c0105232 <vfs_get_vnode_from_path>
c0105332:	89 c7                	mov    edi,eax
c0105334:	83 f8 09             	cmp    eax,0x9
c0105337:	75 1d                	jne    c0105356 <vfs_open.part.3+0x68>
c0105339:	f6 c3 01             	test   bl,0x1
c010533c:	0f 84 c5 00 00 00    	je     c0105407 <vfs_open.part.3+0x119>
c0105342:	b9 01 00 00 00       	mov    ecx,0x1
c0105347:	8d 95 e0 fe ff ff    	lea    edx,[ebp-0x120]
c010534d:	89 f0                	mov    eax,esi
c010534f:	e8 de fe ff ff       	call   c0105232 <vfs_get_vnode_from_path>
c0105354:	89 c7                	mov    edi,eax
c0105356:	85 ff                	test   edi,edi
c0105358:	0f 85 a9 00 00 00    	jne    c0105407 <vfs_open.part.3+0x119>
c010535e:	50                   	push   eax
c010535f:	89 d8                	mov    eax,ebx
c0105361:	83 e0 60             	and    eax,0x60
c0105364:	50                   	push   eax
c0105365:	8d 85 e7 fe ff ff    	lea    eax,[ebp-0x119]
c010536b:	50                   	push   eax
c010536c:	ff b5 e0 fe ff ff    	push   DWORD PTR [ebp-0x120]
c0105372:	e8 09 06 00 00       	call   c0105980 <vnode_op_check_open>
c0105377:	89 c7                	mov    edi,eax
c0105379:	83 c4 10             	add    esp,0x10
c010537c:	85 c0                	test   eax,eax
c010537e:	74 13                	je     c0105393 <vfs_open.part.3+0xa5>
c0105380:	83 ec 0c             	sub    esp,0xc
c0105383:	ff b5 e0 fe ff ff    	push   DWORD PTR [ebp-0x120]
c0105389:	e8 f5 06 00 00       	call   c0105a83 <vnode_dereference>
c010538e:	83 c4 10             	add    esp,0x10
c0105391:	eb 74                	jmp    c0105407 <vfs_open.part.3+0x119>
c0105393:	8b 85 e0 fe ff ff    	mov    eax,DWORD PTR [ebp-0x120]
c0105399:	89 d9                	mov    ecx,ebx
c010539b:	c1 e9 05             	shr    ecx,0x5
c010539e:	83 e1 01             	and    ecx,0x1
c01053a1:	88 48 39             	mov    BYTE PTR [eax+0x39],cl
c01053a4:	89 d9                	mov    ecx,ebx
c01053a6:	c1 e9 06             	shr    ecx,0x6
c01053a9:	83 e1 01             	and    ecx,0x1
c01053ac:	88 48 38             	mov    BYTE PTR [eax+0x38],cl
c01053af:	83 ec 0c             	sub    esp,0xc
c01053b2:	50                   	push   eax
c01053b3:	e8 55 07 00 00       	call   c0105b0d <vnode_op_dirent_type>
c01053b8:	83 c4 10             	add    esp,0x10
c01053bb:	3c 02                	cmp    al,0x2
c01053bd:	8b 85 e0 fe ff ff    	mov    eax,DWORD PTR [ebp-0x120]
c01053c3:	75 19                	jne    c01053de <vfs_open.part.3+0xf0>
c01053c5:	80 78 38 00          	cmp    BYTE PTR [eax+0x38],0x0
c01053c9:	74 13                	je     c01053de <vfs_open.part.3+0xf0>
c01053cb:	83 ec 0c             	sub    esp,0xc
c01053ce:	50                   	push   eax
c01053cf:	e8 af 06 00 00       	call   c0105a83 <vnode_dereference>
c01053d4:	83 c4 10             	add    esp,0x10
c01053d7:	bf 0f 00 00 00       	mov    edi,0xf
c01053dc:	eb 29                	jmp    c0105407 <vfs_open.part.3+0x119>
c01053de:	f6 c3 08             	test   bl,0x8
c01053e1:	74 06                	je     c01053e9 <vfs_open.part.3+0xfb>
c01053e3:	80 78 38 00          	cmp    BYTE PTR [eax+0x38],0x0
c01053e7:	74 19                	je     c0105402 <vfs_open.part.3+0x114>
c01053e9:	8b b5 d4 fe ff ff    	mov    esi,DWORD PTR [ebp-0x12c]
c01053ef:	89 b0 88 00 00 00    	mov    DWORD PTR [eax+0x88],esi
c01053f5:	89 98 8c 00 00 00    	mov    DWORD PTR [eax+0x8c],ebx
c01053fb:	8b 4d 08             	mov    ecx,DWORD PTR [ebp+0x8]
c01053fe:	89 01                	mov    DWORD PTR [ecx],eax
c0105400:	eb 05                	jmp    c0105407 <vfs_open.part.3+0x119>
c0105402:	bf 07 00 00 00       	mov    edi,0x7
c0105407:	89 f8                	mov    eax,edi
c0105409:	8d 65 f4             	lea    esp,[ebp-0xc]
c010540c:	5b                   	pop    ebx
c010540d:	5e                   	pop    esi
c010540e:	5f                   	pop    edi
c010540f:	5d                   	pop    ebp
c0105410:	c3                   	ret    

c0105411 <vfs_mount_filesystem>:
c0105411:	55                   	push   ebp
c0105412:	89 e5                	mov    ebp,esp
c0105414:	57                   	push   edi
c0105415:	56                   	push   esi
c0105416:	53                   	push   ebx
c0105417:	81 ec 28 01 00 00    	sub    esp,0x128
c010541d:	8b 75 08             	mov    esi,DWORD PTR [ebp+0x8]
c0105420:	56                   	push   esi
c0105421:	e8 d8 be ff ff       	call   c01012fe <strlen>
c0105426:	83 c4 10             	add    esp,0x10
c0105429:	bb 0d 00 00 00       	mov    ebx,0xd
c010542e:	3d fb 00 00 00       	cmp    eax,0xfb
c0105433:	0f 87 09 01 00 00    	ja     c0105542 <vfs_mount_filesystem+0x131>
c0105439:	83 ec 0c             	sub    esp,0xc
c010543c:	68 00 1b 11 c0       	push   0xc0111b00
c0105441:	e8 37 df ff ff       	call   c010337d <spinlock_acquire>
c0105446:	5b                   	pop    ebx
c0105447:	5f                   	pop    edi
c0105448:	68 22 9b 10 c0       	push   0xc0109b22
c010544d:	8d 9d e0 fe ff ff    	lea    ebx,[ebp-0x120]
c0105453:	53                   	push   ebx
c0105454:	e8 74 be ff ff       	call   c01012cd <strcpy>
c0105459:	58                   	pop    eax
c010545a:	5a                   	pop    edx
c010545b:	56                   	push   esi
c010545c:	53                   	push   ebx
c010545d:	e8 0e be ff ff       	call   c0101270 <strcat>
c0105462:	89 f0                	mov    eax,esi
c0105464:	e8 01 fa ff ff       	call   c0104e6a <vfs_check_device_name_not_used>
c0105469:	83 c4 10             	add    esp,0x10
c010546c:	85 c0                	test   eax,eax
c010546e:	74 1a                	je     c010548a <vfs_mount_filesystem+0x79>
c0105470:	83 ec 0c             	sub    esp,0xc
c0105473:	68 00 1b 11 c0       	push   0xc0111b00
c0105478:	e8 05 df ff ff       	call   c0103382 <spinlock_release>
c010547d:	83 c4 10             	add    esp,0x10
c0105480:	bb 08 00 00 00       	mov    ebx,0x8
c0105485:	e9 b8 00 00 00       	jmp    c0105542 <vfs_mount_filesystem+0x131>
c010548a:	89 d8                	mov    eax,ebx
c010548c:	e8 d9 f9 ff ff       	call   c0104e6a <vfs_check_device_name_not_used>
c0105491:	85 c0                	test   eax,eax
c0105493:	75 1a                	jne    c01054af <vfs_mount_filesystem+0x9e>
c0105495:	83 ec 0c             	sub    esp,0xc
c0105498:	68 00 1b 11 c0       	push   0xc0111b00
c010549d:	e8 e0 de ff ff       	call   c0103382 <spinlock_release>
c01054a2:	83 c4 10             	add    esp,0x10
c01054a5:	bb 03 00 00 00       	mov    ebx,0x3
c01054aa:	e9 93 00 00 00       	jmp    c0105542 <vfs_mount_filesystem+0x131>
c01054af:	a1 7c 57 11 c0       	mov    eax,ds:0xc011577c
c01054b4:	31 ff                	xor    edi,edi
c01054b6:	85 c0                	test   eax,eax
c01054b8:	74 15                	je     c01054cf <vfs_mount_filesystem+0xbe>
c01054ba:	83 ec 0c             	sub    esp,0xc
c01054bd:	50                   	push   eax
c01054be:	e8 3b f1 ff ff       	call   c01045fe <adt_list_reset>
c01054c3:	89 d8                	mov    eax,ebx
c01054c5:	e8 78 fa ff ff       	call   c0104f42 <vfs_get_device_from_name.part.1>
c01054ca:	89 c7                	mov    edi,eax
c01054cc:	83 c4 10             	add    esp,0x10
c01054cf:	51                   	push   ecx
c01054d0:	51                   	push   ecx
c01054d1:	8d 85 dc fe ff ff    	lea    eax,[ebp-0x124]
c01054d7:	50                   	push   eax
c01054d8:	57                   	push   edi
c01054d9:	ff 55 0c             	call   DWORD PTR [ebp+0xc]
c01054dc:	89 c3                	mov    ebx,eax
c01054de:	83 c4 10             	add    esp,0x10
c01054e1:	85 c0                	test   eax,eax
c01054e3:	74 0a                	je     c01054ef <vfs_mount_filesystem+0xde>
c01054e5:	83 ec 0c             	sub    esp,0xc
c01054e8:	68 00 1b 11 c0       	push   0xc0111b00
c01054ed:	eb 4b                	jmp    c010553a <vfs_mount_filesystem+0x129>
c01054ef:	83 ec 0c             	sub    esp,0xc
c01054f2:	6a 08                	push   0x8
c01054f4:	e8 ca c9 ff ff       	call   c0101ec3 <malloc>
c01054f9:	89 38                	mov    DWORD PTR [eax],edi
c01054fb:	8b 95 dc fe ff ff    	mov    edx,DWORD PTR [ebp-0x124]
c0105501:	89 50 04             	mov    DWORD PTR [eax+0x4],edx
c0105504:	c7 04 24 08 00 00 00 	mov    DWORD PTR [esp],0x8
c010550b:	e8 b3 c9 ff ff       	call   c0101ec3 <malloc>
c0105510:	89 c7                	mov    edi,eax
c0105512:	89 34 24             	mov    DWORD PTR [esp],esi
c0105515:	e8 1f be ff ff       	call   c0101339 <strdup>
c010551a:	89 47 04             	mov    DWORD PTR [edi+0x4],eax
c010551d:	8b 85 dc fe ff ff    	mov    eax,DWORD PTR [ebp-0x124]
c0105523:	89 07                	mov    DWORD PTR [edi],eax
c0105525:	58                   	pop    eax
c0105526:	5a                   	pop    edx
c0105527:	57                   	push   edi
c0105528:	ff 35 7c 57 11 c0    	push   DWORD PTR ds:0xc011577c
c010552e:	e8 5b ef ff ff       	call   c010448e <adt_list_add_back>
c0105533:	c7 04 24 00 1b 11 c0 	mov    DWORD PTR [esp],0xc0111b00
c010553a:	e8 43 de ff ff       	call   c0103382 <spinlock_release>
c010553f:	83 c4 10             	add    esp,0x10
c0105542:	89 d8                	mov    eax,ebx
c0105544:	8d 65 f4             	lea    esp,[ebp-0xc]
c0105547:	5b                   	pop    ebx
c0105548:	5e                   	pop    esi
c0105549:	5f                   	pop    edi
c010554a:	5d                   	pop    ebp
c010554b:	c3                   	ret    

c010554c <vfs_add_device>:
c010554c:	55                   	push   ebp
c010554d:	89 e5                	mov    ebp,esp
c010554f:	57                   	push   edi
c0105550:	56                   	push   esi
c0105551:	53                   	push   ebx
c0105552:	83 ec 0c             	sub    esp,0xc
c0105555:	8b 75 0c             	mov    esi,DWORD PTR [ebp+0xc]
c0105558:	85 f6                	test   esi,esi
c010555a:	0f 84 a8 00 00 00    	je     c0105608 <vfs_add_device+0xbc>
c0105560:	83 7d 08 00          	cmp    DWORD PTR [ebp+0x8],0x0
c0105564:	0f 84 9e 00 00 00    	je     c0105608 <vfs_add_device+0xbc>
c010556a:	83 ec 0c             	sub    esp,0xc
c010556d:	56                   	push   esi
c010556e:	e8 8b bd ff ff       	call   c01012fe <strlen>
c0105573:	83 c4 10             	add    esp,0x10
c0105576:	bb 0d 00 00 00       	mov    ebx,0xd
c010557b:	3d ff 00 00 00       	cmp    eax,0xff
c0105580:	0f 87 87 00 00 00    	ja     c010560d <vfs_add_device+0xc1>
c0105586:	89 f0                	mov    eax,esi
c0105588:	e8 75 f9 ff ff       	call   c0104f02 <vfs_check_valid_component_name>
c010558d:	89 c3                	mov    ebx,eax
c010558f:	85 c0                	test   eax,eax
c0105591:	75 7a                	jne    c010560d <vfs_add_device+0xc1>
c0105593:	83 ec 0c             	sub    esp,0xc
c0105596:	68 00 1b 11 c0       	push   0xc0111b00
c010559b:	e8 dd dd ff ff       	call   c010337d <spinlock_acquire>
c01055a0:	89 f0                	mov    eax,esi
c01055a2:	e8 c3 f8 ff ff       	call   c0104e6a <vfs_check_device_name_not_used>
c01055a7:	89 c3                	mov    ebx,eax
c01055a9:	83 c4 10             	add    esp,0x10
c01055ac:	85 c0                	test   eax,eax
c01055ae:	74 17                	je     c01055c7 <vfs_add_device+0x7b>
c01055b0:	83 ec 0c             	sub    esp,0xc
c01055b3:	68 00 1b 11 c0       	push   0xc0111b00
c01055b8:	e8 c5 dd ff ff       	call   c0103382 <spinlock_release>
c01055bd:	83 c4 10             	add    esp,0x10
c01055c0:	bb 08 00 00 00       	mov    ebx,0x8
c01055c5:	eb 46                	jmp    c010560d <vfs_add_device+0xc1>
c01055c7:	83 ec 0c             	sub    esp,0xc
c01055ca:	6a 08                	push   0x8
c01055cc:	e8 f2 c8 ff ff       	call   c0101ec3 <malloc>
c01055d1:	89 c7                	mov    edi,eax
c01055d3:	89 34 24             	mov    DWORD PTR [esp],esi
c01055d6:	e8 5e bd ff ff       	call   c0101339 <strdup>
c01055db:	89 47 04             	mov    DWORD PTR [edi+0x4],eax
c01055de:	58                   	pop    eax
c01055df:	ff 75 08             	push   DWORD PTR [ebp+0x8]
c01055e2:	e8 ec f6 ff ff       	call   c0104cd3 <dev_create_vnode>
c01055e7:	89 07                	mov    DWORD PTR [edi],eax
c01055e9:	5a                   	pop    edx
c01055ea:	59                   	pop    ecx
c01055eb:	57                   	push   edi
c01055ec:	ff 35 7c 57 11 c0    	push   DWORD PTR ds:0xc011577c
c01055f2:	e8 97 ee ff ff       	call   c010448e <adt_list_add_back>
c01055f7:	c7 04 24 00 1b 11 c0 	mov    DWORD PTR [esp],0xc0111b00
c01055fe:	e8 7f dd ff ff       	call   c0103382 <spinlock_release>
c0105603:	83 c4 10             	add    esp,0x10
c0105606:	eb 05                	jmp    c010560d <vfs_add_device+0xc1>
c0105608:	bb 07 00 00 00       	mov    ebx,0x7
c010560d:	89 d8                	mov    eax,ebx
c010560f:	8d 65 f4             	lea    esp,[ebp-0xc]
c0105612:	5b                   	pop    ebx
c0105613:	5e                   	pop    esi
c0105614:	5f                   	pop    edi
c0105615:	5d                   	pop    ebp
c0105616:	c3                   	ret    

c0105617 <vfs_remove_device>:
c0105617:	55                   	push   ebp
c0105618:	89 e5                	mov    ebp,esp
c010561a:	57                   	push   edi
c010561b:	56                   	push   esi
c010561c:	53                   	push   ebx
c010561d:	83 ec 0c             	sub    esp,0xc
c0105620:	8b 7d 08             	mov    edi,DWORD PTR [ebp+0x8]
c0105623:	bb 07 00 00 00       	mov    ebx,0x7
c0105628:	85 ff                	test   edi,edi
c010562a:	0f 84 ab 00 00 00    	je     c01056db <vfs_remove_device+0xc4>
c0105630:	89 f8                	mov    eax,edi
c0105632:	e8 cb f8 ff ff       	call   c0104f02 <vfs_check_valid_component_name>
c0105637:	85 c0                	test   eax,eax
c0105639:	0f 85 9c 00 00 00    	jne    c01056db <vfs_remove_device+0xc4>
c010563f:	83 ec 0c             	sub    esp,0xc
c0105642:	68 00 1b 11 c0       	push   0xc0111b00
c0105647:	e8 31 dd ff ff       	call   c010337d <spinlock_acquire>
c010564c:	58                   	pop    eax
c010564d:	ff 35 7c 57 11 c0    	push   DWORD PTR ds:0xc011577c
c0105653:	e8 a6 ef ff ff       	call   c01045fe <adt_list_reset>
c0105658:	83 c4 10             	add    esp,0x10
c010565b:	83 ec 0c             	sub    esp,0xc
c010565e:	ff 35 7c 57 11 c0    	push   DWORD PTR ds:0xc011577c
c0105664:	e8 a6 ef ff ff       	call   c010460f <adt_list_has_next>
c0105669:	83 c4 10             	add    esp,0x10
c010566c:	84 c0                	test   al,al
c010566e:	74 56                	je     c01056c6 <vfs_remove_device+0xaf>
c0105670:	83 ec 0c             	sub    esp,0xc
c0105673:	ff 35 7c 57 11 c0    	push   DWORD PTR ds:0xc011577c
c0105679:	e8 b6 ef ff ff       	call   c0104634 <adt_list_get_next>
c010567e:	89 c6                	mov    esi,eax
c0105680:	5b                   	pop    ebx
c0105681:	58                   	pop    eax
c0105682:	57                   	push   edi
c0105683:	ff 76 04             	push   DWORD PTR [esi+0x4]
c0105686:	e8 22 bc ff ff       	call   c01012ad <strcmp>
c010568b:	89 c3                	mov    ebx,eax
c010568d:	83 c4 10             	add    esp,0x10
c0105690:	85 c0                	test   eax,eax
c0105692:	75 c7                	jne    c010565b <vfs_remove_device+0x44>
c0105694:	83 ec 0c             	sub    esp,0xc
c0105697:	ff 36                	push   DWORD PTR [esi]
c0105699:	e8 e5 03 00 00       	call   c0105a83 <vnode_dereference>
c010569e:	58                   	pop    eax
c010569f:	5a                   	pop    edx
c01056a0:	56                   	push   esi
c01056a1:	ff 35 7c 57 11 c0    	push   DWORD PTR ds:0xc011577c
c01056a7:	e8 e3 ef ff ff       	call   c010468f <adt_list_remove_element>
c01056ac:	59                   	pop    ecx
c01056ad:	ff 76 04             	push   DWORD PTR [esi+0x4]
c01056b0:	e8 2a c9 ff ff       	call   c0101fdf <free>
c01056b5:	c7 04 24 00 1b 11 c0 	mov    DWORD PTR [esp],0xc0111b00
c01056bc:	e8 c1 dc ff ff       	call   c0103382 <spinlock_release>
c01056c1:	83 c4 10             	add    esp,0x10
c01056c4:	eb 15                	jmp    c01056db <vfs_remove_device+0xc4>
c01056c6:	83 ec 0c             	sub    esp,0xc
c01056c9:	68 00 1b 11 c0       	push   0xc0111b00
c01056ce:	e8 af dc ff ff       	call   c0103382 <spinlock_release>
c01056d3:	83 c4 10             	add    esp,0x10
c01056d6:	bb 03 00 00 00       	mov    ebx,0x3
c01056db:	89 d8                	mov    eax,ebx
c01056dd:	8d 65 f4             	lea    esp,[ebp-0xc]
c01056e0:	5b                   	pop    ebx
c01056e1:	5e                   	pop    esi
c01056e2:	5f                   	pop    edi
c01056e3:	5d                   	pop    ebp
c01056e4:	c3                   	ret    

c01056e5 <vfs_close>:
c01056e5:	55                   	push   ebp
c01056e6:	89 e5                	mov    ebp,esp
c01056e8:	83 ec 08             	sub    esp,0x8
c01056eb:	8b 55 08             	mov    edx,DWORD PTR [ebp+0x8]
c01056ee:	b8 07 00 00 00       	mov    eax,0x7
c01056f3:	85 d2                	test   edx,edx
c01056f5:	74 0e                	je     c0105705 <vfs_close+0x20>
c01056f7:	83 ec 0c             	sub    esp,0xc
c01056fa:	52                   	push   edx
c01056fb:	e8 83 03 00 00       	call   c0105a83 <vnode_dereference>
c0105700:	83 c4 10             	add    esp,0x10
c0105703:	31 c0                	xor    eax,eax
c0105705:	c9                   	leave  
c0105706:	c3                   	ret    

c0105707 <vfs_open>:
c0105707:	55                   	push   ebp
c0105708:	89 e5                	mov    ebp,esp
c010570a:	57                   	push   edi
c010570b:	56                   	push   esi
c010570c:	53                   	push   ebx
c010570d:	83 ec 1c             	sub    esp,0x1c
c0105710:	8b 5d 08             	mov    ebx,DWORD PTR [ebp+0x8]
c0105713:	8b 7d 0c             	mov    edi,DWORD PTR [ebp+0xc]
c0105716:	8b 4d 10             	mov    ecx,DWORD PTR [ebp+0x10]
c0105719:	89 4d e4             	mov    DWORD PTR [ebp-0x1c],ecx
c010571c:	8b 75 14             	mov    esi,DWORD PTR [ebp+0x14]
c010571f:	85 db                	test   ebx,ebx
c0105721:	74 2a                	je     c010574d <vfs_open+0x46>
c0105723:	85 f6                	test   esi,esi
c0105725:	74 26                	je     c010574d <vfs_open+0x46>
c0105727:	83 ec 0c             	sub    esp,0xc
c010572a:	53                   	push   ebx
c010572b:	e8 ce bb ff ff       	call   c01012fe <strlen>
c0105730:	83 c4 10             	add    esp,0x10
c0105733:	85 c0                	test   eax,eax
c0105735:	74 16                	je     c010574d <vfs_open+0x46>
c0105737:	89 75 08             	mov    DWORD PTR [ebp+0x8],esi
c010573a:	8b 4d e4             	mov    ecx,DWORD PTR [ebp-0x1c]
c010573d:	89 fa                	mov    edx,edi
c010573f:	89 d8                	mov    eax,ebx
c0105741:	8d 65 f4             	lea    esp,[ebp-0xc]
c0105744:	5b                   	pop    ebx
c0105745:	5e                   	pop    esi
c0105746:	5f                   	pop    edi
c0105747:	5d                   	pop    ebp
c0105748:	e9 a1 fb ff ff       	jmp    c01052ee <vfs_open.part.3>
c010574d:	b8 07 00 00 00       	mov    eax,0x7
c0105752:	8d 65 f4             	lea    esp,[ebp-0xc]
c0105755:	5b                   	pop    ebx
c0105756:	5e                   	pop    esi
c0105757:	5f                   	pop    edi
c0105758:	5d                   	pop    ebp
c0105759:	c3                   	ret    

c010575a <vfs_add_virtual_mount_point>:
c010575a:	55                   	push   ebp
c010575b:	89 e5                	mov    ebp,esp
c010575d:	57                   	push   edi
c010575e:	56                   	push   esi
c010575f:	53                   	push   ebx
c0105760:	83 ec 1c             	sub    esp,0x1c
c0105763:	8b 75 08             	mov    esi,DWORD PTR [ebp+0x8]
c0105766:	bb 07 00 00 00       	mov    ebx,0x7
c010576b:	85 f6                	test   esi,esi
c010576d:	0f 84 ce 00 00 00    	je     c0105841 <vfs_add_virtual_mount_point+0xe7>
c0105773:	83 ec 0c             	sub    esp,0xc
c0105776:	56                   	push   esi
c0105777:	e8 82 bb ff ff       	call   c01012fe <strlen>
c010577c:	83 c4 10             	add    esp,0x10
c010577f:	bb 0d 00 00 00       	mov    ebx,0xd
c0105784:	3d ff 00 00 00       	cmp    eax,0xff
c0105789:	0f 87 b2 00 00 00    	ja     c0105841 <vfs_add_virtual_mount_point+0xe7>
c010578f:	89 f0                	mov    eax,esi
c0105791:	e8 6c f7 ff ff       	call   c0104f02 <vfs_check_valid_component_name>
c0105796:	89 c3                	mov    ebx,eax
c0105798:	85 c0                	test   eax,eax
c010579a:	0f 85 a1 00 00 00    	jne    c0105841 <vfs_add_virtual_mount_point+0xe7>
c01057a0:	8d 45 e4             	lea    eax,[ebp-0x1c]
c01057a3:	50                   	push   eax
c01057a4:	6a 00                	push   0x0
c01057a6:	6a 20                	push   0x20
c01057a8:	ff 75 0c             	push   DWORD PTR [ebp+0xc]
c01057ab:	e8 57 ff ff ff       	call   c0105707 <vfs_open>
c01057b0:	89 c3                	mov    ebx,eax
c01057b2:	83 c4 10             	add    esp,0x10
c01057b5:	85 c0                	test   eax,eax
c01057b7:	0f 85 84 00 00 00    	jne    c0105841 <vfs_add_virtual_mount_point+0xe7>
c01057bd:	83 ec 0c             	sub    esp,0xc
c01057c0:	ff 75 e4             	push   DWORD PTR [ebp-0x1c]
c01057c3:	e8 45 03 00 00       	call   c0105b0d <vnode_op_dirent_type>
c01057c8:	83 c4 10             	add    esp,0x10
c01057cb:	bb 0e 00 00 00       	mov    ebx,0xe
c01057d0:	3c 02                	cmp    al,0x2
c01057d2:	75 6d                	jne    c0105841 <vfs_add_virtual_mount_point+0xe7>
c01057d4:	83 ec 0c             	sub    esp,0xc
c01057d7:	68 00 1b 11 c0       	push   0xc0111b00
c01057dc:	e8 9c db ff ff       	call   c010337d <spinlock_acquire>
c01057e1:	89 f0                	mov    eax,esi
c01057e3:	e8 82 f6 ff ff       	call   c0104e6a <vfs_check_device_name_not_used>
c01057e8:	89 c3                	mov    ebx,eax
c01057ea:	83 c4 10             	add    esp,0x10
c01057ed:	85 c0                	test   eax,eax
c01057ef:	74 17                	je     c0105808 <vfs_add_virtual_mount_point+0xae>
c01057f1:	83 ec 0c             	sub    esp,0xc
c01057f4:	68 00 1b 11 c0       	push   0xc0111b00
c01057f9:	e8 84 db ff ff       	call   c0103382 <spinlock_release>
c01057fe:	83 c4 10             	add    esp,0x10
c0105801:	bb 08 00 00 00       	mov    ebx,0x8
c0105806:	eb 39                	jmp    c0105841 <vfs_add_virtual_mount_point+0xe7>
c0105808:	83 ec 0c             	sub    esp,0xc
c010580b:	6a 08                	push   0x8
c010580d:	e8 b1 c6 ff ff       	call   c0101ec3 <malloc>
c0105812:	89 c7                	mov    edi,eax
c0105814:	89 34 24             	mov    DWORD PTR [esp],esi
c0105817:	e8 1d bb ff ff       	call   c0101339 <strdup>
c010581c:	89 47 04             	mov    DWORD PTR [edi+0x4],eax
c010581f:	8b 45 e4             	mov    eax,DWORD PTR [ebp-0x1c]
c0105822:	89 07                	mov    DWORD PTR [edi],eax
c0105824:	58                   	pop    eax
c0105825:	5a                   	pop    edx
c0105826:	57                   	push   edi
c0105827:	ff 35 7c 57 11 c0    	push   DWORD PTR ds:0xc011577c
c010582d:	e8 5c ec ff ff       	call   c010448e <adt_list_add_back>
c0105832:	c7 04 24 00 1b 11 c0 	mov    DWORD PTR [esp],0xc0111b00
c0105839:	e8 44 db ff ff       	call   c0103382 <spinlock_release>
c010583e:	83 c4 10             	add    esp,0x10
c0105841:	89 d8                	mov    eax,ebx
c0105843:	8d 65 f4             	lea    esp,[ebp-0xc]
c0105846:	5b                   	pop    ebx
c0105847:	5e                   	pop    esi
c0105848:	5f                   	pop    edi
c0105849:	5d                   	pop    ebp
c010584a:	c3                   	ret    

c010584b <vfs_write>:
c010584b:	55                   	push   ebp
c010584c:	89 e5                	mov    ebp,esp
c010584e:	8b 55 08             	mov    edx,DWORD PTR [ebp+0x8]
c0105851:	8b 45 0c             	mov    eax,DWORD PTR [ebp+0xc]
c0105854:	85 c0                	test   eax,eax
c0105856:	74 11                	je     c0105869 <vfs_write+0x1e>
c0105858:	83 38 00             	cmp    DWORD PTR [eax],0x0
c010585b:	74 0c                	je     c0105869 <vfs_write+0x1e>
c010585d:	80 7a 38 00          	cmp    BYTE PTR [edx+0x38],0x0
c0105861:	74 0d                	je     c0105870 <vfs_write+0x25>
c0105863:	5d                   	pop    ebp
c0105864:	e9 97 01 00 00       	jmp    c0105a00 <vnode_op_write>
c0105869:	b8 07 00 00 00       	mov    eax,0x7
c010586e:	eb 05                	jmp    c0105875 <vfs_write+0x2a>
c0105870:	b8 14 00 00 00       	mov    eax,0x14
c0105875:	5d                   	pop    ebp
c0105876:	c3                   	ret    

c0105877 <vfs_read>:
c0105877:	55                   	push   ebp
c0105878:	89 e5                	mov    ebp,esp
c010587a:	56                   	push   esi
c010587b:	53                   	push   ebx
c010587c:	8b 5d 08             	mov    ebx,DWORD PTR [ebp+0x8]
c010587f:	8b 75 0c             	mov    esi,DWORD PTR [ebp+0xc]
c0105882:	85 f6                	test   esi,esi
c0105884:	74 2c                	je     c01058b2 <vfs_read+0x3b>
c0105886:	83 3e 00             	cmp    DWORD PTR [esi],0x0
c0105889:	74 27                	je     c01058b2 <vfs_read+0x3b>
c010588b:	80 7b 39 00          	cmp    BYTE PTR [ebx+0x39],0x0
c010588f:	74 28                	je     c01058b9 <vfs_read+0x42>
c0105891:	83 ec 0c             	sub    esp,0xc
c0105894:	53                   	push   ebx
c0105895:	e8 73 02 00 00       	call   c0105b0d <vnode_op_dirent_type>
c010589a:	83 c4 10             	add    esp,0x10
c010589d:	3c 02                	cmp    al,0x2
c010589f:	74 1f                	je     c01058c0 <vfs_read+0x49>
c01058a1:	89 75 0c             	mov    DWORD PTR [ebp+0xc],esi
c01058a4:	89 5d 08             	mov    DWORD PTR [ebp+0x8],ebx
c01058a7:	8d 65 f8             	lea    esp,[ebp-0x8]
c01058aa:	5b                   	pop    ebx
c01058ab:	5e                   	pop    esi
c01058ac:	5d                   	pop    ebp
c01058ad:	e9 fe 00 00 00       	jmp    c01059b0 <vnode_op_read>
c01058b2:	b8 07 00 00 00       	mov    eax,0x7
c01058b7:	eb 0c                	jmp    c01058c5 <vfs_read+0x4e>
c01058b9:	b8 14 00 00 00       	mov    eax,0x14
c01058be:	eb 05                	jmp    c01058c5 <vfs_read+0x4e>
c01058c0:	b8 0f 00 00 00       	mov    eax,0xf
c01058c5:	8d 65 f8             	lea    esp,[ebp-0x8]
c01058c8:	5b                   	pop    ebx
c01058c9:	5e                   	pop    esi
c01058ca:	5d                   	pop    ebp
c01058cb:	c3                   	ret    

c01058cc <vnode_init>:
c01058cc:	55                   	push   ebp
c01058cd:	89 e5                	mov    ebp,esp
c01058cf:	57                   	push   edi
c01058d0:	56                   	push   esi
c01058d1:	83 ec 1c             	sub    esp,0x1c
c01058d4:	68 90 00 00 00       	push   0x90
c01058d9:	e8 e5 c5 ff ff       	call   c0101ec3 <malloc>
c01058de:	8b 55 08             	mov    edx,DWORD PTR [ebp+0x8]
c01058e1:	89 10                	mov    DWORD PTR [eax],edx
c01058e3:	8d 78 04             	lea    edi,[eax+0x4]
c01058e6:	8d 75 0c             	lea    esi,[ebp+0xc]
c01058e9:	b9 0c 00 00 00       	mov    ecx,0xc
c01058ee:	f3 a5                	rep movs DWORD PTR es:[edi],DWORD PTR ds:[esi]
c01058f0:	c7 40 3c 01 00 00 00 	mov    DWORD PTR [eax+0x3c],0x1
c01058f7:	c7 40 34 00 00 00 00 	mov    DWORD PTR [eax+0x34],0x0
c01058fe:	66 c7 40 38 00 00    	mov    WORD PTR [eax+0x38],0x0
c0105904:	5a                   	pop    edx
c0105905:	59                   	pop    ecx
c0105906:	68 27 9b 10 c0       	push   0xc0109b27
c010590b:	8d 50 40             	lea    edx,[eax+0x40]
c010590e:	89 45 f4             	mov    DWORD PTR [ebp-0xc],eax
c0105911:	52                   	push   edx
c0105912:	e8 35 da ff ff       	call   c010334c <spinlock_init>
c0105917:	8b 45 f4             	mov    eax,DWORD PTR [ebp-0xc]
c010591a:	8d 65 f8             	lea    esp,[ebp-0x8]
c010591d:	5e                   	pop    esi
c010591e:	5f                   	pop    edi
c010591f:	5d                   	pop    ebp
c0105920:	c3                   	ret    

c0105921 <vnode_check>:
c0105921:	55                   	push   ebp
c0105922:	89 e5                	mov    ebp,esp
c0105924:	53                   	push   ebx
c0105925:	83 ec 10             	sub    esp,0x10
c0105928:	8b 45 08             	mov    eax,DWORD PTR [ebp+0x8]
c010592b:	8d 58 40             	lea    ebx,[eax+0x40]
c010592e:	53                   	push   ebx
c010592f:	e8 09 da ff ff       	call   c010333d <spinlock_is_held>
c0105934:	83 c4 10             	add    esp,0x10
c0105937:	84 c0                	test   al,al
c0105939:	75 18                	jne    c0105953 <vnode_check+0x32>
c010593b:	83 ec 0c             	sub    esp,0xc
c010593e:	53                   	push   ebx
c010593f:	e8 39 da ff ff       	call   c010337d <spinlock_acquire>
c0105944:	83 c4 10             	add    esp,0x10
c0105947:	89 5d 08             	mov    DWORD PTR [ebp+0x8],ebx
c010594a:	8b 5d fc             	mov    ebx,DWORD PTR [ebp-0x4]
c010594d:	c9                   	leave  
c010594e:	e9 2f da ff ff       	jmp    c0103382 <spinlock_release>
c0105953:	8b 5d fc             	mov    ebx,DWORD PTR [ebp-0x4]
c0105956:	c9                   	leave  
c0105957:	c3                   	ret    

c0105958 <vnode_reference>:
c0105958:	55                   	push   ebp
c0105959:	89 e5                	mov    ebp,esp
c010595b:	56                   	push   esi
c010595c:	53                   	push   ebx
c010595d:	8b 5d 08             	mov    ebx,DWORD PTR [ebp+0x8]
c0105960:	8d 73 40             	lea    esi,[ebx+0x40]
c0105963:	83 ec 0c             	sub    esp,0xc
c0105966:	56                   	push   esi
c0105967:	e8 11 da ff ff       	call   c010337d <spinlock_acquire>
c010596c:	ff 43 3c             	inc    DWORD PTR [ebx+0x3c]
c010596f:	83 c4 10             	add    esp,0x10
c0105972:	89 75 08             	mov    DWORD PTR [ebp+0x8],esi
c0105975:	8d 65 f8             	lea    esp,[ebp-0x8]
c0105978:	5b                   	pop    ebx
c0105979:	5e                   	pop    esi
c010597a:	5d                   	pop    ebp
c010597b:	e9 02 da ff ff       	jmp    c0103382 <spinlock_release>

c0105980 <vnode_op_check_open>:
c0105980:	55                   	push   ebp
c0105981:	89 e5                	mov    ebp,esp
c0105983:	57                   	push   edi
c0105984:	56                   	push   esi
c0105985:	53                   	push   ebx
c0105986:	83 ec 18             	sub    esp,0x18
c0105989:	8b 5d 08             	mov    ebx,DWORD PTR [ebp+0x8]
c010598c:	8b 75 0c             	mov    esi,DWORD PTR [ebp+0xc]
c010598f:	8b 7d 10             	mov    edi,DWORD PTR [ebp+0x10]
c0105992:	53                   	push   ebx
c0105993:	e8 89 ff ff ff       	call   c0105921 <vnode_check>
c0105998:	83 c4 10             	add    esp,0x10
c010599b:	89 7d 10             	mov    DWORD PTR [ebp+0x10],edi
c010599e:	89 75 0c             	mov    DWORD PTR [ebp+0xc],esi
c01059a1:	89 5d 08             	mov    DWORD PTR [ebp+0x8],ebx
c01059a4:	8b 43 04             	mov    eax,DWORD PTR [ebx+0x4]
c01059a7:	8d 65 f4             	lea    esp,[ebp-0xc]
c01059aa:	5b                   	pop    ebx
c01059ab:	5e                   	pop    esi
c01059ac:	5f                   	pop    edi
c01059ad:	5d                   	pop    ebp
c01059ae:	ff e0                	jmp    eax

c01059b0 <vnode_op_read>:
c01059b0:	55                   	push   ebp
c01059b1:	89 e5                	mov    ebp,esp
c01059b3:	56                   	push   esi
c01059b4:	53                   	push   ebx
c01059b5:	8b 5d 08             	mov    ebx,DWORD PTR [ebp+0x8]
c01059b8:	8b 75 0c             	mov    esi,DWORD PTR [ebp+0xc]
c01059bb:	83 ec 0c             	sub    esp,0xc
c01059be:	53                   	push   ebx
c01059bf:	e8 5d ff ff ff       	call   c0105921 <vnode_check>
c01059c4:	83 c4 10             	add    esp,0x10
c01059c7:	89 75 0c             	mov    DWORD PTR [ebp+0xc],esi
c01059ca:	89 5d 08             	mov    DWORD PTR [ebp+0x8],ebx
c01059cd:	8b 43 08             	mov    eax,DWORD PTR [ebx+0x8]
c01059d0:	8d 65 f8             	lea    esp,[ebp-0x8]
c01059d3:	5b                   	pop    ebx
c01059d4:	5e                   	pop    esi
c01059d5:	5d                   	pop    ebp
c01059d6:	ff e0                	jmp    eax

c01059d8 <vnode_op_readdir>:
c01059d8:	55                   	push   ebp
c01059d9:	89 e5                	mov    ebp,esp
c01059db:	56                   	push   esi
c01059dc:	53                   	push   ebx
c01059dd:	8b 5d 08             	mov    ebx,DWORD PTR [ebp+0x8]
c01059e0:	8b 75 0c             	mov    esi,DWORD PTR [ebp+0xc]
c01059e3:	83 ec 0c             	sub    esp,0xc
c01059e6:	53                   	push   ebx
c01059e7:	e8 35 ff ff ff       	call   c0105921 <vnode_check>
c01059ec:	83 c4 10             	add    esp,0x10
c01059ef:	89 75 0c             	mov    DWORD PTR [ebp+0xc],esi
c01059f2:	89 5d 08             	mov    DWORD PTR [ebp+0x8],ebx
c01059f5:	8b 43 0c             	mov    eax,DWORD PTR [ebx+0xc]
c01059f8:	8d 65 f8             	lea    esp,[ebp-0x8]
c01059fb:	5b                   	pop    ebx
c01059fc:	5e                   	pop    esi
c01059fd:	5d                   	pop    ebp
c01059fe:	ff e0                	jmp    eax

c0105a00 <vnode_op_write>:
c0105a00:	55                   	push   ebp
c0105a01:	89 e5                	mov    ebp,esp
c0105a03:	56                   	push   esi
c0105a04:	53                   	push   ebx
c0105a05:	8b 5d 08             	mov    ebx,DWORD PTR [ebp+0x8]
c0105a08:	8b 75 0c             	mov    esi,DWORD PTR [ebp+0xc]
c0105a0b:	83 ec 0c             	sub    esp,0xc
c0105a0e:	53                   	push   ebx
c0105a0f:	e8 0d ff ff ff       	call   c0105921 <vnode_check>
c0105a14:	83 c4 10             	add    esp,0x10
c0105a17:	89 75 0c             	mov    DWORD PTR [ebp+0xc],esi
c0105a1a:	89 5d 08             	mov    DWORD PTR [ebp+0x8],ebx
c0105a1d:	8b 43 10             	mov    eax,DWORD PTR [ebx+0x10]
c0105a20:	8d 65 f8             	lea    esp,[ebp-0x8]
c0105a23:	5b                   	pop    ebx
c0105a24:	5e                   	pop    esi
c0105a25:	5d                   	pop    ebp
c0105a26:	ff e0                	jmp    eax

c0105a28 <vnode_op_ioctl>:
c0105a28:	55                   	push   ebp
c0105a29:	89 e5                	mov    ebp,esp
c0105a2b:	57                   	push   edi
c0105a2c:	56                   	push   esi
c0105a2d:	53                   	push   ebx
c0105a2e:	83 ec 18             	sub    esp,0x18
c0105a31:	8b 5d 08             	mov    ebx,DWORD PTR [ebp+0x8]
c0105a34:	8b 75 0c             	mov    esi,DWORD PTR [ebp+0xc]
c0105a37:	8b 7d 10             	mov    edi,DWORD PTR [ebp+0x10]
c0105a3a:	53                   	push   ebx
c0105a3b:	e8 e1 fe ff ff       	call   c0105921 <vnode_check>
c0105a40:	83 c4 10             	add    esp,0x10
c0105a43:	89 7d 10             	mov    DWORD PTR [ebp+0x10],edi
c0105a46:	89 75 0c             	mov    DWORD PTR [ebp+0xc],esi
c0105a49:	89 5d 08             	mov    DWORD PTR [ebp+0x8],ebx
c0105a4c:	8b 43 14             	mov    eax,DWORD PTR [ebx+0x14]
c0105a4f:	8d 65 f4             	lea    esp,[ebp-0xc]
c0105a52:	5b                   	pop    ebx
c0105a53:	5e                   	pop    esi
c0105a54:	5f                   	pop    edi
c0105a55:	5d                   	pop    ebp
c0105a56:	ff e0                	jmp    eax

c0105a58 <vnode_op_is_seekable>:
c0105a58:	55                   	push   ebp
c0105a59:	89 e5                	mov    ebp,esp
c0105a5b:	53                   	push   ebx
c0105a5c:	83 ec 10             	sub    esp,0x10
c0105a5f:	8b 5d 08             	mov    ebx,DWORD PTR [ebp+0x8]
c0105a62:	53                   	push   ebx
c0105a63:	e8 b9 fe ff ff       	call   c0105921 <vnode_check>
c0105a68:	83 c4 10             	add    esp,0x10
c0105a6b:	89 5d 08             	mov    DWORD PTR [ebp+0x8],ebx
c0105a6e:	8b 43 2c             	mov    eax,DWORD PTR [ebx+0x2c]
c0105a71:	8b 5d fc             	mov    ebx,DWORD PTR [ebp-0x4]
c0105a74:	c9                   	leave  
c0105a75:	ff e0                	jmp    eax

c0105a77 <vnode_op_close>:
c0105a77:	55                   	push   ebp
c0105a78:	89 e5                	mov    ebp,esp
c0105a7a:	8b 45 08             	mov    eax,DWORD PTR [ebp+0x8]
c0105a7d:	8b 40 18             	mov    eax,DWORD PTR [eax+0x18]
c0105a80:	5d                   	pop    ebp
c0105a81:	ff e0                	jmp    eax

c0105a83 <vnode_dereference>:
c0105a83:	55                   	push   ebp
c0105a84:	89 e5                	mov    ebp,esp
c0105a86:	56                   	push   esi
c0105a87:	53                   	push   ebx
c0105a88:	8b 5d 08             	mov    ebx,DWORD PTR [ebp+0x8]
c0105a8b:	83 ec 0c             	sub    esp,0xc
c0105a8e:	53                   	push   ebx
c0105a8f:	e8 8d fe ff ff       	call   c0105921 <vnode_check>
c0105a94:	8d 73 40             	lea    esi,[ebx+0x40]
c0105a97:	89 34 24             	mov    DWORD PTR [esp],esi
c0105a9a:	e8 de d8 ff ff       	call   c010337d <spinlock_acquire>
c0105a9f:	8b 43 3c             	mov    eax,DWORD PTR [ebx+0x3c]
c0105aa2:	48                   	dec    eax
c0105aa3:	89 43 3c             	mov    DWORD PTR [ebx+0x3c],eax
c0105aa6:	83 c4 10             	add    esp,0x10
c0105aa9:	85 c0                	test   eax,eax
c0105aab:	75 22                	jne    c0105acf <vnode_dereference+0x4c>
c0105aad:	83 ec 0c             	sub    esp,0xc
c0105ab0:	53                   	push   ebx
c0105ab1:	e8 c1 ff ff ff       	call   c0105a77 <vnode_op_close>
c0105ab6:	89 34 24             	mov    DWORD PTR [esp],esi
c0105ab9:	e8 c4 d8 ff ff       	call   c0103382 <spinlock_release>
c0105abe:	83 c4 10             	add    esp,0x10
c0105ac1:	89 5d 08             	mov    DWORD PTR [ebp+0x8],ebx
c0105ac4:	8d 65 f8             	lea    esp,[ebp-0x8]
c0105ac7:	5b                   	pop    ebx
c0105ac8:	5e                   	pop    esi
c0105ac9:	5d                   	pop    ebp
c0105aca:	e9 10 c5 ff ff       	jmp    c0101fdf <free>
c0105acf:	89 75 08             	mov    DWORD PTR [ebp+0x8],esi
c0105ad2:	8d 65 f8             	lea    esp,[ebp-0x8]
c0105ad5:	5b                   	pop    ebx
c0105ad6:	5e                   	pop    esi
c0105ad7:	5d                   	pop    ebp
c0105ad8:	e9 a5 d8 ff ff       	jmp    c0103382 <spinlock_release>

c0105add <vnode_op_follow>:
c0105add:	55                   	push   ebp
c0105ade:	89 e5                	mov    ebp,esp
c0105ae0:	57                   	push   edi
c0105ae1:	56                   	push   esi
c0105ae2:	53                   	push   ebx
c0105ae3:	83 ec 18             	sub    esp,0x18
c0105ae6:	8b 5d 08             	mov    ebx,DWORD PTR [ebp+0x8]
c0105ae9:	8b 75 0c             	mov    esi,DWORD PTR [ebp+0xc]
c0105aec:	8b 7d 10             	mov    edi,DWORD PTR [ebp+0x10]
c0105aef:	53                   	push   ebx
c0105af0:	e8 2c fe ff ff       	call   c0105921 <vnode_check>
c0105af5:	83 c4 10             	add    esp,0x10
c0105af8:	89 7d 10             	mov    DWORD PTR [ebp+0x10],edi
c0105afb:	89 75 0c             	mov    DWORD PTR [ebp+0xc],esi
c0105afe:	89 5d 08             	mov    DWORD PTR [ebp+0x8],ebx
c0105b01:	8b 43 24             	mov    eax,DWORD PTR [ebx+0x24]
c0105b04:	8d 65 f4             	lea    esp,[ebp-0xc]
c0105b07:	5b                   	pop    ebx
c0105b08:	5e                   	pop    esi
c0105b09:	5f                   	pop    edi
c0105b0a:	5d                   	pop    ebp
c0105b0b:	ff e0                	jmp    eax

c0105b0d <vnode_op_dirent_type>:
c0105b0d:	55                   	push   ebp
c0105b0e:	89 e5                	mov    ebp,esp
c0105b10:	53                   	push   ebx
c0105b11:	83 ec 10             	sub    esp,0x10
c0105b14:	8b 5d 08             	mov    ebx,DWORD PTR [ebp+0x8]
c0105b17:	53                   	push   ebx
c0105b18:	e8 04 fe ff ff       	call   c0105921 <vnode_check>
c0105b1d:	83 c4 10             	add    esp,0x10
c0105b20:	89 5d 08             	mov    DWORD PTR [ebp+0x8],ebx
c0105b23:	8b 43 30             	mov    eax,DWORD PTR [ebx+0x30]
c0105b26:	8b 5d fc             	mov    ebx,DWORD PTR [ebp-0x4]
c0105b29:	c9                   	leave  
c0105b2a:	ff e0                	jmp    eax

c0105b2c <vnode_op_stat>:
c0105b2c:	55                   	push   ebp
c0105b2d:	89 e5                	mov    ebp,esp
c0105b2f:	56                   	push   esi
c0105b30:	53                   	push   ebx
c0105b31:	8b 5d 08             	mov    ebx,DWORD PTR [ebp+0x8]
c0105b34:	8b 75 0c             	mov    esi,DWORD PTR [ebp+0xc]
c0105b37:	83 ec 0c             	sub    esp,0xc
c0105b3a:	53                   	push   ebx
c0105b3b:	e8 e1 fd ff ff       	call   c0105921 <vnode_check>
c0105b40:	83 c4 10             	add    esp,0x10
c0105b43:	89 75 0c             	mov    DWORD PTR [ebp+0xc],esi
c0105b46:	89 5d 08             	mov    DWORD PTR [ebp+0x8],ebx
c0105b49:	8b 43 28             	mov    eax,DWORD PTR [ebx+0x28]
c0105b4c:	8d 65 f8             	lea    esp,[ebp-0x8]
c0105b4f:	5b                   	pop    ebx
c0105b50:	5e                   	pop    esi
c0105b51:	5d                   	pop    ebp
c0105b52:	ff e0                	jmp    eax

c0105b54 <demofs_read_inode>:
c0105b54:	55                   	push   ebp
c0105b55:	89 e5                	mov    ebp,esp
c0105b57:	56                   	push   esi
c0105b58:	53                   	push   ebx
c0105b59:	83 ec 20             	sub    esp,0x20
c0105b5c:	8b 5d 08             	mov    ebx,DWORD PTR [ebp+0x8]
c0105b5f:	8b 03                	mov    eax,DWORD PTR [ebx]
c0105b61:	8b 00                	mov    eax,DWORD PTR [eax]
c0105b63:	81 78 10 00 02 00 00 	cmp    DWORD PTR [eax+0x10],0x200
c0105b6a:	74 0d                	je     c0105b79 <demofs_read_inode+0x25>
c0105b6c:	83 ec 0c             	sub    esp,0xc
c0105b6f:	68 42 9b 10 c0       	push   0xc0109b42
c0105b74:	e8 fb ee ff ff       	call   c0104a74 <panic>
c0105b79:	8d 75 e4             	lea    esi,[ebp-0x1c]
c0105b7c:	50                   	push   eax
c0105b7d:	50                   	push   eax
c0105b7e:	6a 00                	push   0x0
c0105b80:	6a 00                	push   0x0
c0105b82:	8b 45 0c             	mov    eax,DWORD PTR [ebp+0xc]
c0105b85:	c1 e0 09             	shl    eax,0x9
c0105b88:	50                   	push   eax
c0105b89:	68 00 02 00 00       	push   0x200
c0105b8e:	ff 75 10             	push   DWORD PTR [ebp+0x10]
c0105b91:	56                   	push   esi
c0105b92:	e8 ac f2 ff ff       	call   c0104e43 <uio_construct>
c0105b97:	89 34 24             	mov    DWORD PTR [esp],esi
c0105b9a:	ff 33                	push   DWORD PTR [ebx]
c0105b9c:	e8 d6 fc ff ff       	call   c0105877 <vfs_read>
c0105ba1:	8d 65 f8             	lea    esp,[ebp-0x8]
c0105ba4:	5b                   	pop    ebx
c0105ba5:	5e                   	pop    esi
c0105ba6:	5d                   	pop    ebp
c0105ba7:	c3                   	ret    

c0105ba8 <demofs_read_file>:
c0105ba8:	55                   	push   ebp
c0105ba9:	89 e5                	mov    ebp,esp
c0105bab:	57                   	push   edi
c0105bac:	56                   	push   esi
c0105bad:	53                   	push   ebx
c0105bae:	81 ec 3c 02 00 00    	sub    esp,0x23c
c0105bb4:	8b 45 10             	mov    eax,DWORD PTR [ebp+0x10]
c0105bb7:	8b 5d 14             	mov    ebx,DWORD PTR [ebp+0x14]
c0105bba:	8b 53 08             	mov    edx,DWORD PTR [ebx+0x8]
c0105bbd:	89 c6                	mov    esi,eax
c0105bbf:	29 d6                	sub    esi,edx
c0105bc1:	39 c2                	cmp    edx,eax
c0105bc3:	0f 82 84 00 00 00    	jb     c0105c4d <demofs_read_file+0xa5>
c0105bc9:	31 c0                	xor    eax,eax
c0105bcb:	e9 fb 00 00 00       	jmp    c0105ccb <demofs_read_file+0x123>
c0105bd0:	85 c9                	test   ecx,ecx
c0105bd2:	74 f5                	je     c0105bc9 <demofs_read_file+0x21>
c0105bd4:	8b 43 08             	mov    eax,DWORD PTR [ebx+0x8]
c0105bd7:	89 85 c4 fd ff ff    	mov    DWORD PTR [ebp-0x23c],eax
c0105bdd:	89 c7                	mov    edi,eax
c0105bdf:	c1 ef 09             	shr    edi,0x9
c0105be2:	03 7d 0c             	add    edi,DWORD PTR [ebp+0xc]
c0105be5:	c1 e7 09             	shl    edi,0x9
c0105be8:	a9 ff 01 00 00       	test   eax,0x1ff
c0105bed:	0f 94 c2             	sete   dl
c0105bf0:	81 f9 ff 01 00 00    	cmp    ecx,0x1ff
c0105bf6:	0f 97 c0             	seta   al
c0105bf9:	84 c2                	test   dl,al
c0105bfb:	74 60                	je     c0105c5d <demofs_read_file+0xb5>
c0105bfd:	81 fe ff 01 00 00    	cmp    esi,0x1ff
c0105c03:	76 58                	jbe    c0105c5d <demofs_read_file+0xb5>
c0105c05:	89 ca                	mov    edx,ecx
c0105c07:	81 e2 ff 01 00 00    	and    edx,0x1ff
c0105c0d:	29 d1                	sub    ecx,edx
c0105c0f:	89 95 c0 fd ff ff    	mov    DWORD PTR [ebp-0x240],edx
c0105c15:	89 4b 04             	mov    DWORD PTR [ebx+0x4],ecx
c0105c18:	89 7b 08             	mov    DWORD PTR [ebx+0x8],edi
c0105c1b:	50                   	push   eax
c0105c1c:	50                   	push   eax
c0105c1d:	53                   	push   ebx
c0105c1e:	8b 45 08             	mov    eax,DWORD PTR [ebp+0x8]
c0105c21:	ff 30                	push   DWORD PTR [eax]
c0105c23:	e8 4f fc ff ff       	call   c0105877 <vfs_read>
c0105c28:	83 c4 10             	add    esp,0x10
c0105c2b:	85 c0                	test   eax,eax
c0105c2d:	0f 85 98 00 00 00    	jne    c0105ccb <demofs_read_file+0x123>
c0105c33:	8b 85 c4 fd ff ff    	mov    eax,DWORD PTR [ebp-0x23c]
c0105c39:	29 f8                	sub    eax,edi
c0105c3b:	01 43 08             	add    DWORD PTR [ebx+0x8],eax
c0105c3e:	8b 95 c0 fd ff ff    	mov    edx,DWORD PTR [ebp-0x240]
c0105c44:	89 53 04             	mov    DWORD PTR [ebx+0x4],edx
c0105c47:	81 ee 00 02 00 00    	sub    esi,0x200
c0105c4d:	8b 4b 04             	mov    ecx,DWORD PTR [ebx+0x4]
c0105c50:	85 f6                	test   esi,esi
c0105c52:	0f 85 78 ff ff ff    	jne    c0105bd0 <demofs_read_file+0x28>
c0105c58:	e9 6c ff ff ff       	jmp    c0105bc9 <demofs_read_file+0x21>
c0105c5d:	8d 85 d4 fd ff ff    	lea    eax,[ebp-0x22c]
c0105c63:	51                   	push   ecx
c0105c64:	51                   	push   ecx
c0105c65:	6a 00                	push   0x0
c0105c67:	6a 00                	push   0x0
c0105c69:	57                   	push   edi
c0105c6a:	68 00 02 00 00       	push   0x200
c0105c6f:	8d 95 e8 fd ff ff    	lea    edx,[ebp-0x218]
c0105c75:	52                   	push   edx
c0105c76:	50                   	push   eax
c0105c77:	e8 c7 f1 ff ff       	call   c0104e43 <uio_construct>
c0105c7c:	8d 85 d4 fd ff ff    	lea    eax,[ebp-0x22c]
c0105c82:	89 04 24             	mov    DWORD PTR [esp],eax
c0105c85:	8b 45 08             	mov    eax,DWORD PTR [ebp+0x8]
c0105c88:	ff 30                	push   DWORD PTR [eax]
c0105c8a:	e8 e8 fb ff ff       	call   c0105877 <vfs_read>
c0105c8f:	83 c4 20             	add    esp,0x20
c0105c92:	85 c0                	test   eax,eax
c0105c94:	75 35                	jne    c0105ccb <demofs_read_file+0x123>
c0105c96:	8b 43 08             	mov    eax,DWORD PTR [ebx+0x8]
c0105c99:	25 ff 01 00 00       	and    eax,0x1ff
c0105c9e:	ba 00 02 00 00       	mov    edx,0x200
c0105ca3:	29 c2                	sub    edx,eax
c0105ca5:	8b 7b 04             	mov    edi,DWORD PTR [ebx+0x4]
c0105ca8:	39 d7                	cmp    edi,edx
c0105caa:	76 02                	jbe    c0105cae <demofs_read_file+0x106>
c0105cac:	89 d7                	mov    edi,edx
c0105cae:	39 f7                	cmp    edi,esi
c0105cb0:	76 02                	jbe    c0105cb4 <demofs_read_file+0x10c>
c0105cb2:	89 f7                	mov    edi,esi
c0105cb4:	52                   	push   edx
c0105cb5:	57                   	push   edi
c0105cb6:	53                   	push   ebx
c0105cb7:	8d 84 05 e8 fd ff ff 	lea    eax,[ebp+eax*1-0x218]
c0105cbe:	50                   	push   eax
c0105cbf:	e8 3a f0 ff ff       	call   c0104cfe <uio_move>
c0105cc4:	29 fe                	sub    esi,edi
c0105cc6:	83 c4 10             	add    esp,0x10
c0105cc9:	eb 82                	jmp    c0105c4d <demofs_read_file+0xa5>
c0105ccb:	8d 65 f4             	lea    esp,[ebp-0xc]
c0105cce:	5b                   	pop    ebx
c0105ccf:	5e                   	pop    esi
c0105cd0:	5f                   	pop    edi
c0105cd1:	5d                   	pop    ebp
c0105cd2:	c3                   	ret    

c0105cd3 <demofs_follow>:
c0105cd3:	55                   	push   ebp
c0105cd4:	89 e5                	mov    ebp,esp
c0105cd6:	57                   	push   edi
c0105cd7:	56                   	push   esi
c0105cd8:	53                   	push   ebx
c0105cd9:	81 ec 18 02 00 00    	sub    esp,0x218
c0105cdf:	8b 5d 0c             	mov    ebx,DWORD PTR [ebp+0xc]
c0105ce2:	8b 75 14             	mov    esi,DWORD PTR [ebp+0x14]
c0105ce5:	56                   	push   esi
c0105ce6:	e8 13 b6 ff ff       	call   c01012fe <strlen>
c0105ceb:	89 c2                	mov    edx,eax
c0105ced:	83 c4 10             	add    esp,0x10
c0105cf0:	b8 0d 00 00 00       	mov    eax,0xd
c0105cf5:	83 fa 18             	cmp    edx,0x18
c0105cf8:	0f 87 34 01 00 00    	ja     c0105e32 <demofs_follow+0x15f>
c0105cfe:	b8 0e 00 00 00       	mov    eax,0xe
c0105d03:	85 db                	test   ebx,ebx
c0105d05:	0f 89 27 01 00 00    	jns    c0105e32 <demofs_follow+0x15f>
c0105d0b:	52                   	push   edx
c0105d0c:	8d 85 e8 fd ff ff    	lea    eax,[ebp-0x218]
c0105d12:	50                   	push   eax
c0105d13:	53                   	push   ebx
c0105d14:	ff 75 08             	push   DWORD PTR [ebp+0x8]
c0105d17:	e8 38 fe ff ff       	call   c0105b54 <demofs_read_inode>
c0105d1c:	83 c4 10             	add    esp,0x10
c0105d1f:	85 c0                	test   eax,eax
c0105d21:	0f 85 0b 01 00 00    	jne    c0105e32 <demofs_follow+0x15f>
c0105d27:	8a 85 e8 fd ff ff    	mov    al,BYTE PTR [ebp-0x218]
c0105d2d:	83 c0 02             	add    eax,0x2
c0105d30:	3c 01                	cmp    al,0x1
c0105d32:	76 0a                	jbe    c0105d3e <demofs_follow+0x6b>
c0105d34:	b8 0a 00 00 00       	mov    eax,0xa
c0105d39:	e9 f4 00 00 00       	jmp    c0105e32 <demofs_follow+0x15f>
c0105d3e:	bb 20 00 00 00       	mov    ebx,0x20
c0105d43:	80 bc 1d e8 fd ff ff 00 	cmp    BYTE PTR [ebp+ebx*1-0x218],0x0
c0105d4b:	75 0a                	jne    c0105d57 <demofs_follow+0x84>
c0105d4d:	b8 09 00 00 00       	mov    eax,0x9
c0105d52:	e9 db 00 00 00       	jmp    c0105e32 <demofs_follow+0x15f>
c0105d57:	50                   	push   eax
c0105d58:	6a 18                	push   0x18
c0105d5a:	8d 85 e8 fd ff ff    	lea    eax,[ebp-0x218]
c0105d60:	01 d8                	add    eax,ebx
c0105d62:	50                   	push   eax
c0105d63:	56                   	push   esi
c0105d64:	e8 fe b5 ff ff       	call   c0101367 <strncmp>
c0105d69:	83 c4 10             	add    esp,0x10
c0105d6c:	85 c0                	test   eax,eax
c0105d6e:	75 73                	jne    c0105de3 <demofs_follow+0x110>
c0105d70:	0f b6 8c 1d 04 fe ff ff 	movzx  ecx,BYTE PTR [ebp+ebx*1-0x1fc]
c0105d78:	0f b6 94 1d 05 fe ff ff 	movzx  edx,BYTE PTR [ebp+ebx*1-0x1fb]
c0105d80:	c1 e2 08             	shl    edx,0x8
c0105d83:	0f b6 b4 1d 06 fe ff ff 	movzx  esi,BYTE PTR [ebp+ebx*1-0x1fa]
c0105d8b:	c1 e6 10             	shl    esi,0x10
c0105d8e:	09 f2                	or     edx,esi
c0105d90:	09 ca                	or     edx,ecx
c0105d92:	f6 84 1d 07 fe ff ff 01 	test   BYTE PTR [ebp+ebx*1-0x1f9],0x1
c0105d9a:	74 0a                	je     c0105da6 <demofs_follow+0xd3>
c0105d9c:	81 ca 00 00 00 80    	or     edx,0x80000000
c0105da2:	31 c9                	xor    ecx,ecx
c0105da4:	eb 31                	jmp    c0105dd7 <demofs_follow+0x104>
c0105da6:	0f b6 bc 1d 00 fe ff ff 	movzx  edi,BYTE PTR [ebp+ebx*1-0x200]
c0105dae:	0f b6 8c 1d 01 fe ff ff 	movzx  ecx,BYTE PTR [ebp+ebx*1-0x1ff]
c0105db6:	c1 e1 08             	shl    ecx,0x8
c0105db9:	0f b6 b4 1d 02 fe ff ff 	movzx  esi,BYTE PTR [ebp+ebx*1-0x1fe]
c0105dc1:	c1 e6 10             	shl    esi,0x10
c0105dc4:	09 f1                	or     ecx,esi
c0105dc6:	89 ce                	mov    esi,ecx
c0105dc8:	09 fe                	or     esi,edi
c0105dca:	0f b6 8c 1d 03 fe ff ff 	movzx  ecx,BYTE PTR [ebp+ebx*1-0x1fd]
c0105dd2:	c1 e1 18             	shl    ecx,0x18
c0105dd5:	09 f1                	or     ecx,esi
c0105dd7:	8b 5d 18             	mov    ebx,DWORD PTR [ebp+0x18]
c0105dda:	89 0b                	mov    DWORD PTR [ebx],ecx
c0105ddc:	8b 4d 10             	mov    ecx,DWORD PTR [ebp+0x10]
c0105ddf:	89 11                	mov    DWORD PTR [ecx],edx
c0105de1:	eb 4f                	jmp    c0105e32 <demofs_follow+0x15f>
c0105de3:	83 c3 20             	add    ebx,0x20
c0105de6:	81 fb 00 02 00 00    	cmp    ebx,0x200
c0105dec:	0f 85 51 ff ff ff    	jne    c0105d43 <demofs_follow+0x70>
c0105df2:	8a 85 e8 fd ff ff    	mov    al,BYTE PTR [ebp-0x218]
c0105df8:	3c ff                	cmp    al,0xff
c0105dfa:	0f 84 4d ff ff ff    	je     c0105d4d <demofs_follow+0x7a>
c0105e00:	3c fe                	cmp    al,0xfe
c0105e02:	0f 85 2c ff ff ff    	jne    c0105d34 <demofs_follow+0x61>
c0105e08:	0f b6 85 e9 fd ff ff 	movzx  eax,BYTE PTR [ebp-0x217]
c0105e0f:	0f b6 9d ea fd ff ff 	movzx  ebx,BYTE PTR [ebp-0x216]
c0105e16:	c1 e3 08             	shl    ebx,0x8
c0105e19:	0f b6 95 eb fd ff ff 	movzx  edx,BYTE PTR [ebp-0x215]
c0105e20:	c1 e2 10             	shl    edx,0x10
c0105e23:	09 d3                	or     ebx,edx
c0105e25:	09 c3                	or     ebx,eax
c0105e27:	81 cb 00 00 00 80    	or     ebx,0x80000000
c0105e2d:	e9 d9 fe ff ff       	jmp    c0105d0b <demofs_follow+0x38>
c0105e32:	8d 65 f4             	lea    esp,[ebp-0xc]
c0105e35:	5b                   	pop    ebx
c0105e36:	5e                   	pop    esi
c0105e37:	5f                   	pop    edi
c0105e38:	5d                   	pop    ebp
c0105e39:	c3                   	ret    

c0105e3a <demofs_vnode_ioctl>:
c0105e3a:	b8 01 00 00 00       	mov    eax,0x1
c0105e3f:	c3                   	ret    

c0105e40 <demofs_vnode_isseekable>:
c0105e40:	b0 01                	mov    al,0x1
c0105e42:	c3                   	ret    

c0105e43 <demofs_vnode_write>:
c0105e43:	b8 11 00 00 00       	mov    eax,0x11
c0105e48:	c3                   	ret    

c0105e49 <demofs_vnode_create>:
c0105e49:	b8 11 00 00 00       	mov    eax,0x11
c0105e4e:	c3                   	ret    

c0105e4f <demofs_vnode_truncate>:
c0105e4f:	b8 11 00 00 00       	mov    eax,0x11
c0105e54:	c3                   	ret    

c0105e55 <demofs_vnode_follow_file>:
c0105e55:	b8 0e 00 00 00       	mov    eax,0xe
c0105e5a:	c3                   	ret    

c0105e5b <demofs_vnode_read_dir>:
c0105e5b:	b8 0f 00 00 00       	mov    eax,0xf
c0105e60:	c3                   	ret    

c0105e61 <demofs_vnode_readdir_file>:
c0105e61:	b8 0e 00 00 00       	mov    eax,0xe
c0105e66:	c3                   	ret    

c0105e67 <demofs_vnode_dirent_type_file>:
c0105e67:	b0 01                	mov    al,0x1
c0105e69:	c3                   	ret    

c0105e6a <demofs_vnode_dirent_type_dir>:
c0105e6a:	b0 02                	mov    al,0x2
c0105e6c:	c3                   	ret    

c0105e6d <demofs_vnode_close>:
c0105e6d:	31 c0                	xor    eax,eax
c0105e6f:	c3                   	ret    

c0105e70 <demofs_vnode_readdir_dir>:
c0105e70:	b8 01 00 00 00       	mov    eax,0x1
c0105e75:	c3                   	ret    

c0105e76 <demofs_vnode_stat>:
c0105e76:	55                   	push   ebp
c0105e77:	89 e5                	mov    ebp,esp
c0105e79:	8b 45 0c             	mov    eax,DWORD PTR [ebp+0xc]
c0105e7c:	8b 55 08             	mov    edx,DWORD PTR [ebp+0x8]
c0105e7f:	8b 4a 34             	mov    ecx,DWORD PTR [edx+0x34]
c0105e82:	c7 40 28 00 00 00 00 	mov    DWORD PTR [eax+0x28],0x0
c0105e89:	c7 40 2c 00 00 00 00 	mov    DWORD PTR [eax+0x2c],0x0
c0105e90:	c7 40 44 00 02 00 00 	mov    DWORD PTR [eax+0x44],0x200
c0105e97:	c7 40 40 00 00 00 00 	mov    DWORD PTR [eax+0x40],0x0
c0105e9e:	c7 40 38 00 00 00 00 	mov    DWORD PTR [eax+0x38],0x0
c0105ea5:	c7 40 3c 00 00 00 00 	mov    DWORD PTR [eax+0x3c],0x0
c0105eac:	c7 00 ad de ad de    	mov    DWORD PTR [eax],0xdeaddead
c0105eb2:	c7 40 04 00 00 00 00 	mov    DWORD PTR [eax+0x4],0x0
c0105eb9:	c7 40 18 00 00 00 00 	mov    DWORD PTR [eax+0x18],0x0
c0105ec0:	8b 11                	mov    edx,DWORD PTR [ecx]
c0105ec2:	89 50 08             	mov    DWORD PTR [eax+0x8],edx
c0105ec5:	c1 fa 1f             	sar    edx,0x1f
c0105ec8:	81 e2 00 80 00 00    	and    edx,0x8000
c0105ece:	81 c2 ff 81 02 00    	add    edx,0x281ff
c0105ed4:	89 50 0c             	mov    DWORD PTR [eax+0xc],edx
c0105ed7:	c7 40 30 00 00 00 00 	mov    DWORD PTR [eax+0x30],0x0
c0105ede:	c7 40 34 00 00 00 00 	mov    DWORD PTR [eax+0x34],0x0
c0105ee5:	c7 40 10 01 00 00 00 	mov    DWORD PTR [eax+0x10],0x1
c0105eec:	c7 40 1c 00 00 00 00 	mov    DWORD PTR [eax+0x1c],0x0
c0105ef3:	c7 40 20 00 00 00 00 	mov    DWORD PTR [eax+0x20],0x0
c0105efa:	8b 51 0c             	mov    edx,DWORD PTR [ecx+0xc]
c0105efd:	89 50 24             	mov    DWORD PTR [eax+0x24],edx
c0105f00:	c7 40 14 00 00 00 00 	mov    DWORD PTR [eax+0x14],0x0
c0105f07:	31 c0                	xor    eax,eax
c0105f09:	5d                   	pop    ebp
c0105f0a:	c3                   	ret    

c0105f0b <demofs_vnode_read_file>:
c0105f0b:	55                   	push   ebp
c0105f0c:	89 e5                	mov    ebp,esp
c0105f0e:	83 ec 08             	sub    esp,0x8
c0105f11:	8b 45 08             	mov    eax,DWORD PTR [ebp+0x8]
c0105f14:	8b 40 34             	mov    eax,DWORD PTR [eax+0x34]
c0105f17:	ff 75 0c             	push   DWORD PTR [ebp+0xc]
c0105f1a:	ff 70 0c             	push   DWORD PTR [eax+0xc]
c0105f1d:	ff 30                	push   DWORD PTR [eax]
c0105f1f:	83 c0 04             	add    eax,0x4
c0105f22:	50                   	push   eax
c0105f23:	e8 80 fc ff ff       	call   c0105ba8 <demofs_read_file>
c0105f28:	c9                   	leave  
c0105f29:	c3                   	ret    

c0105f2a <demofs_vnode_check_open>:
c0105f2a:	55                   	push   ebp
c0105f2b:	89 e5                	mov    ebp,esp
c0105f2d:	83 ec 14             	sub    esp,0x14
c0105f30:	ff 75 0c             	push   DWORD PTR [ebp+0xc]
c0105f33:	e8 c6 b3 ff ff       	call   c01012fe <strlen>
c0105f38:	83 c4 10             	add    esp,0x10
c0105f3b:	ba 0d 00 00 00       	mov    edx,0xd
c0105f40:	83 f8 17             	cmp    eax,0x17
c0105f43:	77 0d                	ja     c0105f52 <demofs_vnode_check_open+0x28>
c0105f45:	8b 55 10             	mov    edx,DWORD PTR [ebp+0x10]
c0105f48:	83 e2 50             	and    edx,0x50
c0105f4b:	74 05                	je     c0105f52 <demofs_vnode_check_open+0x28>
c0105f4d:	ba 11 00 00 00       	mov    edx,0x11
c0105f52:	89 d0                	mov    eax,edx
c0105f54:	c9                   	leave  
c0105f55:	c3                   	ret    

c0105f56 <demofs_root_creator>:
c0105f56:	55                   	push   ebp
c0105f57:	89 e5                	mov    ebp,esp
c0105f59:	57                   	push   edi
c0105f5a:	56                   	push   esi
c0105f5b:	83 ec 3c             	sub    esp,0x3c
c0105f5e:	be a0 90 10 c0       	mov    esi,0xc01090a0
c0105f63:	b9 0c 00 00 00       	mov    ecx,0xc
c0105f68:	89 e7                	mov    edi,esp
c0105f6a:	f3 a5                	rep movs DWORD PTR es:[edi],DWORD PTR ds:[esi]
c0105f6c:	6a 00                	push   0x0
c0105f6e:	e8 59 f9 ff ff       	call   c01058cc <vnode_init>
c0105f73:	89 c6                	mov    esi,eax
c0105f75:	83 c4 34             	add    esp,0x34
c0105f78:	6a 10                	push   0x10
c0105f7a:	e8 44 bf ff ff       	call   c0101ec3 <malloc>
c0105f7f:	8b 55 08             	mov    edx,DWORD PTR [ebp+0x8]
c0105f82:	89 50 04             	mov    DWORD PTR [eax+0x4],edx
c0105f85:	c7 40 08 09 00 00 80 	mov    DWORD PTR [eax+0x8],0x80000009
c0105f8c:	c7 00 09 00 00 80    	mov    DWORD PTR [eax],0x80000009
c0105f92:	c7 40 0c 00 00 00 00 	mov    DWORD PTR [eax+0xc],0x0
c0105f99:	89 46 34             	mov    DWORD PTR [esi+0x34],eax
c0105f9c:	8b 45 0c             	mov    eax,DWORD PTR [ebp+0xc]
c0105f9f:	89 30                	mov    DWORD PTR [eax],esi
c0105fa1:	31 c0                	xor    eax,eax
c0105fa3:	8d 65 f8             	lea    esp,[ebp-0x8]
c0105fa6:	5e                   	pop    esi
c0105fa7:	5f                   	pop    edi
c0105fa8:	5d                   	pop    ebp
c0105fa9:	c3                   	ret    

c0105faa <demofs_create_file_vnode>:
c0105faa:	55                   	push   ebp
c0105fab:	89 e5                	mov    ebp,esp
c0105fad:	57                   	push   edi
c0105fae:	56                   	push   esi
c0105faf:	83 ec 3c             	sub    esp,0x3c
c0105fb2:	be e0 90 10 c0       	mov    esi,0xc01090e0
c0105fb7:	b9 0c 00 00 00       	mov    ecx,0xc
c0105fbc:	89 e7                	mov    edi,esp
c0105fbe:	f3 a5                	rep movs DWORD PTR es:[edi],DWORD PTR ds:[esi]
c0105fc0:	6a 00                	push   0x0
c0105fc2:	e8 05 f9 ff ff       	call   c01058cc <vnode_init>
c0105fc7:	8d 65 f8             	lea    esp,[ebp-0x8]
c0105fca:	5e                   	pop    esi
c0105fcb:	5f                   	pop    edi
c0105fcc:	5d                   	pop    ebp
c0105fcd:	c3                   	ret    

c0105fce <demofs_create_dir_vnode>:
c0105fce:	55                   	push   ebp
c0105fcf:	89 e5                	mov    ebp,esp
c0105fd1:	57                   	push   edi
c0105fd2:	56                   	push   esi
c0105fd3:	83 ec 3c             	sub    esp,0x3c
c0105fd6:	be a0 90 10 c0       	mov    esi,0xc01090a0
c0105fdb:	b9 0c 00 00 00       	mov    ecx,0xc
c0105fe0:	89 e7                	mov    edi,esp
c0105fe2:	f3 a5                	rep movs DWORD PTR es:[edi],DWORD PTR ds:[esi]
c0105fe4:	6a 00                	push   0x0
c0105fe6:	e8 e1 f8 ff ff       	call   c01058cc <vnode_init>
c0105feb:	8d 65 f8             	lea    esp,[ebp-0x8]
c0105fee:	5e                   	pop    esi
c0105fef:	5f                   	pop    edi
c0105ff0:	5d                   	pop    ebp
c0105ff1:	c3                   	ret    

c0105ff2 <demofs_vnode_follow_dir>:
c0105ff2:	55                   	push   ebp
c0105ff3:	89 e5                	mov    ebp,esp
c0105ff5:	57                   	push   edi
c0105ff6:	56                   	push   esi
c0105ff7:	53                   	push   ebx
c0105ff8:	83 ec 28             	sub    esp,0x28
c0105ffb:	8b 45 08             	mov    eax,DWORD PTR [ebp+0x8]
c0105ffe:	8b 78 34             	mov    edi,DWORD PTR [eax+0x34]
c0106001:	8d 45 e4             	lea    eax,[ebp-0x1c]
c0106004:	50                   	push   eax
c0106005:	ff 75 10             	push   DWORD PTR [ebp+0x10]
c0106008:	8d 45 e0             	lea    eax,[ebp-0x20]
c010600b:	50                   	push   eax
c010600c:	ff 37                	push   DWORD PTR [edi]
c010600e:	8d 47 04             	lea    eax,[edi+0x4]
c0106011:	50                   	push   eax
c0106012:	e8 bc fc ff ff       	call   c0105cd3 <demofs_follow>
c0106017:	89 c3                	mov    ebx,eax
c0106019:	83 c4 20             	add    esp,0x20
c010601c:	85 c0                	test   eax,eax
c010601e:	75 40                	jne    c0106060 <demofs_vnode_follow_dir+0x6e>
c0106020:	83 7d e0 00          	cmp    DWORD PTR [ebp-0x20],0x0
c0106024:	79 07                	jns    c010602d <demofs_vnode_follow_dir+0x3b>
c0106026:	e8 a3 ff ff ff       	call   c0105fce <demofs_create_dir_vnode>
c010602b:	eb 05                	jmp    c0106032 <demofs_vnode_follow_dir+0x40>
c010602d:	e8 78 ff ff ff       	call   c0105faa <demofs_create_file_vnode>
c0106032:	89 c6                	mov    esi,eax
c0106034:	83 ec 0c             	sub    esp,0xc
c0106037:	6a 10                	push   0x10
c0106039:	e8 85 be ff ff       	call   c0101ec3 <malloc>
c010603e:	8b 55 e0             	mov    edx,DWORD PTR [ebp-0x20]
c0106041:	89 10                	mov    DWORD PTR [eax],edx
c0106043:	8b 57 04             	mov    edx,DWORD PTR [edi+0x4]
c0106046:	8b 4f 08             	mov    ecx,DWORD PTR [edi+0x8]
c0106049:	89 50 04             	mov    DWORD PTR [eax+0x4],edx
c010604c:	89 48 08             	mov    DWORD PTR [eax+0x8],ecx
c010604f:	8b 55 e4             	mov    edx,DWORD PTR [ebp-0x1c]
c0106052:	89 50 0c             	mov    DWORD PTR [eax+0xc],edx
c0106055:	89 46 34             	mov    DWORD PTR [esi+0x34],eax
c0106058:	8b 45 0c             	mov    eax,DWORD PTR [ebp+0xc]
c010605b:	89 30                	mov    DWORD PTR [eax],esi
c010605d:	83 c4 10             	add    esp,0x10
c0106060:	89 d8                	mov    eax,ebx
c0106062:	8d 65 f4             	lea    esp,[ebp-0xc]
c0106065:	5b                   	pop    ebx
c0106066:	5e                   	pop    esi
c0106067:	5f                   	pop    edi
c0106068:	5d                   	pop    ebp
c0106069:	c3                   	ret    

c010606a <x86_beeper_start>:
c010606a:	55                   	push   ebp
c010606b:	89 e5                	mov    ebp,esp
c010606d:	53                   	push   ebx
c010606e:	8b 5d 08             	mov    ebx,DWORD PTR [ebp+0x8]
c0106071:	85 db                	test   ebx,ebx
c0106073:	7e 21                	jle    c0106096 <x86_beeper_start+0x2c>
c0106075:	b8 dc 34 12 00       	mov    eax,0x1234dc
c010607a:	99                   	cdq    
c010607b:	f7 fb                	idiv   ebx
c010607d:	89 c1                	mov    ecx,eax
c010607f:	b0 b6                	mov    al,0xb6
c0106081:	e6 43                	out    0x43,al
c0106083:	88 c8                	mov    al,cl
c0106085:	e6 42                	out    0x42,al
c0106087:	89 c8                	mov    eax,ecx
c0106089:	66 c1 e8 08          	shr    ax,0x8
c010608d:	e6 42                	out    0x42,al
c010608f:	e4 61                	in     al,0x61
c0106091:	83 c8 03             	or     eax,0x3
c0106094:	e6 61                	out    0x61,al
c0106096:	5b                   	pop    ebx
c0106097:	5d                   	pop    ebp
c0106098:	c3                   	ret    

c0106099 <x86_beeper_stop>:
c0106099:	e4 61                	in     al,0x61
c010609b:	83 e0 fc             	and    eax,0xfffffffc
c010609e:	e6 61                	out    0x61,al
c01060a0:	c3                   	ret    

c01060a1 <x86_beeper_register>:
c01060a1:	55                   	push   ebp
c01060a2:	89 e5                	mov    ebp,esp
c01060a4:	83 ec 14             	sub    esp,0x14
c01060a7:	c7 05 80 57 11 c0 6a 60 10 c0 	mov    DWORD PTR ds:0xc0115780,0xc010606a
c01060b1:	c7 05 84 57 11 c0 99 60 10 c0 	mov    DWORD PTR ds:0xc0115784,0xc0106099
c01060bb:	68 80 57 11 c0       	push   0xc0115780
c01060c0:	e8 b8 b3 ff ff       	call   c010147d <beeper_register_driver>
c01060c5:	83 c4 10             	add    esp,0x10
c01060c8:	c9                   	leave  
c01060c9:	c3                   	ret    

c01060ca <arch_initialise_devices_no_fs>:
c01060ca:	e9 17 0b 00 00       	jmp    c0106be6 <ide_initialise>

c01060cf <arch_initialise_devices_with_fs>:
c01060cf:	55                   	push   ebp
c01060d0:	89 e5                	mov    ebp,esp
c01060d2:	83 ec 08             	sub    esp,0x8
c01060d5:	e8 c7 ff ff ff       	call   c01060a1 <x86_beeper_register>
c01060da:	52                   	push   edx
c01060db:	52                   	push   edx
c01060dc:	6a 01                	push   0x1
c01060de:	68 6b 9b 10 c0       	push   0xc0109b6b
c01060e3:	e8 4a d0 ff ff       	call   c0103132 <load_driver>
c01060e8:	59                   	pop    ecx
c01060e9:	58                   	pop    eax
c01060ea:	6a 00                	push   0x0
c01060ec:	68 7c 9b 10 c0       	push   0xc0109b7c
c01060f1:	e8 3c d0 ff ff       	call   c0103132 <load_driver>
c01060f6:	83 c4 10             	add    esp,0x10
c01060f9:	c9                   	leave  
c01060fa:	c3                   	ret    

c01060fb <arch_cpu_initialise_bootstrap>:
c01060fb:	55                   	push   ebp
c01060fc:	89 e5                	mov    ebp,esp
c01060fe:	83 ec 08             	sub    esp,0x8
c0106101:	e8 6b 19 00 00       	call   c0107a71 <x86_per_cpu_virt_initialise>
c0106106:	83 ec 0c             	sub    esp,0xc
c0106109:	68 90 08 00 00       	push   0x890
c010610e:	e8 b0 bd ff ff       	call   c0101ec3 <malloc>
c0106113:	8b 15 e8 1a 11 c0    	mov    edx,DWORD PTR ds:0xc0111ae8
c0106119:	89 42 08             	mov    DWORD PTR [edx+0x8],eax
c010611c:	c7 02 00 00 00 00    	mov    DWORD PTR [edx],0x0
c0106122:	e8 6a 14 00 00       	call   c0107591 <x86_gdt_initialise>
c0106127:	e8 50 15 00 00       	call   c010767c <x86_idt_initialise>
c010612c:	e8 28 17 00 00       	call   c0107859 <x86_tss_initialise>
c0106131:	e8 5d 16 00 00       	call   c0107793 <x86_interrupt_initialise>
c0106136:	e8 1f 0c 00 00       	call   c0106d5a <pic_initialise>
c010613b:	c7 04 24 f4 01 00 00 	mov    DWORD PTR [esp],0x1f4
c0106142:	e8 77 0c 00 00       	call   c0106dbe <pit_initialise>
c0106147:	83 c4 10             	add    esp,0x10
c010614a:	c9                   	leave  
c010614b:	c3                   	ret    

c010614c <arch_all_cpus_are_done>:
c010614c:	c7 05 88 57 11 c0 01 00 00 00 	mov    DWORD PTR ds:0xc0115788,0x1
c0106156:	e9 88 21 00 00       	jmp    c01082e3 <arch_enable_interrupts>

c010615b <arch_reboot>:
c010615b:	55                   	push   ebp
c010615c:	89 e5                	mov    ebp,esp
c010615e:	83 ec 08             	sub    esp,0x8
c0106161:	e4 64                	in     al,0x64
c0106163:	a8 02                	test   al,0x2
c0106165:	75 fa                	jne    c0106161 <arch_reboot+0x6>
c0106167:	b0 fe                	mov    al,0xfe
c0106169:	e6 64                	out    0x64,al
c010616b:	e8 77 21 00 00       	call   c01082e7 <arch_stall_processor>
c0106170:	eb f9                	jmp    c010616b <arch_reboot+0x10>

c0106172 <floppy_irq_handler>:
c0106172:	c6 05 a8 57 11 c0 01 	mov    BYTE PTR ds:0xc01157a8,0x1
c0106179:	31 c0                	xor    eax,eax
c010617b:	c3                   	ret    

c010617c <floppy_timer>:
c010617c:	55                   	push   ebp
c010617d:	89 e5                	mov    ebp,esp
c010617f:	83 ec 08             	sub    esp,0x8
c0106182:	50                   	push   eax
c0106183:	50                   	push   eax
c0106184:	6a 00                	push   0x0
c0106186:	68 80 f0 fa 02       	push   0x2faf080
c010618b:	e8 8b db ff ff       	call   c0103d1b <thread_nano_sleep>
c0106190:	a1 b0 57 11 c0       	mov    eax,ds:0xc01157b0
c0106195:	83 c4 10             	add    esp,0x10
c0106198:	83 f8 02             	cmp    eax,0x2
c010619b:	75 e5                	jne    c0106182 <floppy_timer+0x6>
c010619d:	a1 ac 57 11 c0       	mov    eax,ds:0xc01157ac
c01061a2:	83 e8 32             	sub    eax,0x32
c01061a5:	a3 ac 57 11 c0       	mov    ds:0xc01157ac,eax
c01061aa:	a1 ac 57 11 c0       	mov    eax,ds:0xc01157ac
c01061af:	85 c0                	test   eax,eax
c01061b1:	7f cf                	jg     c0106182 <floppy_timer+0x6>
c01061b3:	b0 0c                	mov    al,0xc
c01061b5:	ba f2 03 00 00       	mov    edx,0x3f2
c01061ba:	ee                   	out    dx,al
c01061bb:	c7 05 b0 57 11 c0 00 00 00 00 	mov    DWORD PTR ds:0xc01157b0,0x0
c01061c5:	eb bb                	jmp    c0106182 <floppy_timer+0x6>

c01061c7 <floppy_irq_wait>:
c01061c7:	a0 a8 57 11 c0       	mov    al,ds:0xc01157a8
c01061cc:	84 c0                	test   al,al
c01061ce:	74 08                	je     c01061d8 <floppy_irq_wait+0x11>
c01061d0:	c6 05 a8 57 11 c0 00 	mov    BYTE PTR ds:0xc01157a8,0x0
c01061d7:	c3                   	ret    
c01061d8:	55                   	push   ebp
c01061d9:	89 e5                	mov    ebp,esp
c01061db:	83 ec 08             	sub    esp,0x8
c01061de:	52                   	push   edx
c01061df:	52                   	push   edx
c01061e0:	6a 00                	push   0x0
c01061e2:	68 80 96 98 00       	push   0x989680
c01061e7:	e8 2f db ff ff       	call   c0103d1b <thread_nano_sleep>
c01061ec:	83 c4 10             	add    esp,0x10
c01061ef:	a0 a8 57 11 c0       	mov    al,ds:0xc01157a8
c01061f4:	84 c0                	test   al,al
c01061f6:	74 e6                	je     c01061de <floppy_irq_wait+0x17>
c01061f8:	c6 05 a8 57 11 c0 00 	mov    BYTE PTR ds:0xc01157a8,0x0
c01061ff:	c9                   	leave  
c0106200:	c3                   	ret    

c0106201 <floppy_motor.constprop.8>:
c0106201:	84 c0                	test   al,al
c0106203:	74 32                	je     c0106237 <floppy_motor.constprop.8+0x36>
c0106205:	a1 b0 57 11 c0       	mov    eax,ds:0xc01157b0
c010620a:	85 c0                	test   eax,eax
c010620c:	75 3e                	jne    c010624c <floppy_motor.constprop.8+0x4b>
c010620e:	55                   	push   ebp
c010620f:	89 e5                	mov    ebp,esp
c0106211:	83 ec 10             	sub    esp,0x10
c0106214:	b0 1c                	mov    al,0x1c
c0106216:	ba f2 03 00 00       	mov    edx,0x3f2
c010621b:	ee                   	out    dx,al
c010621c:	6a 00                	push   0x0
c010621e:	68 80 d1 f0 08       	push   0x8f0d180
c0106223:	e8 f3 da ff ff       	call   c0103d1b <thread_nano_sleep>
c0106228:	83 c4 10             	add    esp,0x10
c010622b:	c7 05 b0 57 11 c0 01 00 00 00 	mov    DWORD PTR ds:0xc01157b0,0x1
c0106235:	c9                   	leave  
c0106236:	c3                   	ret    
c0106237:	c7 05 b0 57 11 c0 02 00 00 00 	mov    DWORD PTR ds:0xc01157b0,0x2
c0106241:	c7 05 ac 57 11 c0 e8 03 00 00 	mov    DWORD PTR ds:0xc01157ac,0x3e8
c010624b:	c3                   	ret    
c010624c:	c7 05 b0 57 11 c0 01 00 00 00 	mov    DWORD PTR ds:0xc01157b0,0x1
c0106256:	c3                   	ret    

c0106257 <floppy_read_data.constprop.11>:
c0106257:	55                   	push   ebp
c0106258:	89 e5                	mov    ebp,esp
c010625a:	53                   	push   ebx
c010625b:	52                   	push   edx
c010625c:	bb 3c 00 00 00       	mov    ebx,0x3c
c0106261:	50                   	push   eax
c0106262:	50                   	push   eax
c0106263:	6a 00                	push   0x0
c0106265:	68 80 96 98 00       	push   0x989680
c010626a:	e8 ac da ff ff       	call   c0103d1b <thread_nano_sleep>
c010626f:	ba f4 03 00 00       	mov    edx,0x3f4
c0106274:	ec                   	in     al,dx
c0106275:	83 c4 10             	add    esp,0x10
c0106278:	84 c0                	test   al,al
c010627a:	79 08                	jns    c0106284 <floppy_read_data.constprop.11+0x2d>
c010627c:	ba f5 03 00 00       	mov    edx,0x3f5
c0106281:	ec                   	in     al,dx
c0106282:	eb 15                	jmp    c0106299 <floppy_read_data.constprop.11+0x42>
c0106284:	4b                   	dec    ebx
c0106285:	75 da                	jne    c0106261 <floppy_read_data.constprop.11+0xa>
c0106287:	83 ec 0c             	sub    esp,0xc
c010628a:	68 89 9b 10 c0       	push   0xc0109b89
c010628f:	e8 26 e6 ff ff       	call   c01048ba <kprintf>
c0106294:	83 c4 10             	add    esp,0x10
c0106297:	31 c0                	xor    eax,eax
c0106299:	8b 5d fc             	mov    ebx,DWORD PTR [ebp-0x4]
c010629c:	c9                   	leave  
c010629d:	c3                   	ret    

c010629e <floppy_write_cmd.constprop.12>:
c010629e:	55                   	push   ebp
c010629f:	89 e5                	mov    ebp,esp
c01062a1:	56                   	push   esi
c01062a2:	53                   	push   ebx
c01062a3:	89 c6                	mov    esi,eax
c01062a5:	bb 3c 00 00 00       	mov    ebx,0x3c
c01062aa:	50                   	push   eax
c01062ab:	50                   	push   eax
c01062ac:	6a 00                	push   0x0
c01062ae:	68 80 96 98 00       	push   0x989680
c01062b3:	e8 63 da ff ff       	call   c0103d1b <thread_nano_sleep>
c01062b8:	ba f4 03 00 00       	mov    edx,0x3f4
c01062bd:	ec                   	in     al,dx
c01062be:	83 c4 10             	add    esp,0x10
c01062c1:	84 c0                	test   al,al
c01062c3:	79 0a                	jns    c01062cf <floppy_write_cmd.constprop.12+0x31>
c01062c5:	ba f5 03 00 00       	mov    edx,0x3f5
c01062ca:	89 f0                	mov    eax,esi
c01062cc:	ee                   	out    dx,al
c01062cd:	eb 13                	jmp    c01062e2 <floppy_write_cmd.constprop.12+0x44>
c01062cf:	4b                   	dec    ebx
c01062d0:	75 d8                	jne    c01062aa <floppy_write_cmd.constprop.12+0xc>
c01062d2:	83 ec 0c             	sub    esp,0xc
c01062d5:	68 a4 9b 10 c0       	push   0xc0109ba4
c01062da:	e8 db e5 ff ff       	call   c01048ba <kprintf>
c01062df:	83 c4 10             	add    esp,0x10
c01062e2:	8d 65 f8             	lea    esp,[ebp-0x8]
c01062e5:	5b                   	pop    ebx
c01062e6:	5e                   	pop    esi
c01062e7:	5d                   	pop    ebp
c01062e8:	c3                   	ret    

c01062e9 <floppy_check_interrupt.constprop.10>:
c01062e9:	55                   	push   ebp
c01062ea:	89 e5                	mov    ebp,esp
c01062ec:	56                   	push   esi
c01062ed:	53                   	push   ebx
c01062ee:	89 c6                	mov    esi,eax
c01062f0:	89 d3                	mov    ebx,edx
c01062f2:	b8 08 00 00 00       	mov    eax,0x8
c01062f7:	e8 a2 ff ff ff       	call   c010629e <floppy_write_cmd.constprop.12>
c01062fc:	e8 56 ff ff ff       	call   c0106257 <floppy_read_data.constprop.11>
c0106301:	0f b6 c0             	movzx  eax,al
c0106304:	89 06                	mov    DWORD PTR [esi],eax
c0106306:	e8 4c ff ff ff       	call   c0106257 <floppy_read_data.constprop.11>
c010630b:	0f b6 c0             	movzx  eax,al
c010630e:	89 03                	mov    DWORD PTR [ebx],eax
c0106310:	5b                   	pop    ebx
c0106311:	5e                   	pop    esi
c0106312:	5d                   	pop    ebp
c0106313:	c3                   	ret    

c0106314 <floppy_calibrate.constprop.7>:
c0106314:	55                   	push   ebp
c0106315:	89 e5                	mov    ebp,esp
c0106317:	56                   	push   esi
c0106318:	53                   	push   ebx
c0106319:	83 ec 10             	sub    esp,0x10
c010631c:	c7 45 f0 ff ff ff ff 	mov    DWORD PTR [ebp-0x10],0xffffffff
c0106323:	c7 45 f4 ff ff ff ff 	mov    DWORD PTR [ebp-0xc],0xffffffff
c010632a:	b8 01 00 00 00       	mov    eax,0x1
c010632f:	e8 cd fe ff ff       	call   c0106201 <floppy_motor.constprop.8>
c0106334:	be 0a 00 00 00       	mov    esi,0xa
c0106339:	b8 07 00 00 00       	mov    eax,0x7
c010633e:	e8 5b ff ff ff       	call   c010629e <floppy_write_cmd.constprop.12>
c0106343:	31 c0                	xor    eax,eax
c0106345:	e8 54 ff ff ff       	call   c010629e <floppy_write_cmd.constprop.12>
c010634a:	e8 78 fe ff ff       	call   c01061c7 <floppy_irq_wait>
c010634f:	8d 55 f4             	lea    edx,[ebp-0xc]
c0106352:	8d 45 f0             	lea    eax,[ebp-0x10]
c0106355:	e8 8f ff ff ff       	call   c01062e9 <floppy_check_interrupt.constprop.10>
c010635a:	8b 5d f0             	mov    ebx,DWORD PTR [ebp-0x10]
c010635d:	81 e3 c0 00 00 00    	and    ebx,0xc0
c0106363:	0b 5d f4             	or     ebx,DWORD PTR [ebp-0xc]
c0106366:	75 09                	jne    c0106371 <floppy_calibrate.constprop.7+0x5d>
c0106368:	31 c0                	xor    eax,eax
c010636a:	e8 92 fe ff ff       	call   c0106201 <floppy_motor.constprop.8>
c010636f:	eb 1f                	jmp    c0106390 <floppy_calibrate.constprop.7+0x7c>
c0106371:	4e                   	dec    esi
c0106372:	75 c5                	jne    c0106339 <floppy_calibrate.constprop.7+0x25>
c0106374:	83 ec 0c             	sub    esp,0xc
c0106377:	68 bf 9b 10 c0       	push   0xc0109bbf
c010637c:	e8 39 e5 ff ff       	call   c01048ba <kprintf>
c0106381:	31 c0                	xor    eax,eax
c0106383:	e8 79 fe ff ff       	call   c0106201 <floppy_motor.constprop.8>
c0106388:	83 c4 10             	add    esp,0x10
c010638b:	bb 0a 00 00 00       	mov    ebx,0xa
c0106390:	89 d8                	mov    eax,ebx
c0106392:	8d 65 f8             	lea    esp,[ebp-0x8]
c0106395:	5b                   	pop    ebx
c0106396:	5e                   	pop    esi
c0106397:	5d                   	pop    ebp
c0106398:	c3                   	ret    

c0106399 <floppy_reset.constprop.5>:
c0106399:	55                   	push   ebp
c010639a:	89 e5                	mov    ebp,esp
c010639c:	53                   	push   ebx
c010639d:	83 ec 14             	sub    esp,0x14
c01063a0:	ba f2 03 00 00       	mov    edx,0x3f2
c01063a5:	31 c0                	xor    eax,eax
c01063a7:	ee                   	out    dx,al
c01063a8:	b0 0c                	mov    al,0xc
c01063aa:	ee                   	out    dx,al
c01063ab:	e8 17 fe ff ff       	call   c01061c7 <floppy_irq_wait>
c01063b0:	bb 04 00 00 00       	mov    ebx,0x4
c01063b5:	8d 55 f4             	lea    edx,[ebp-0xc]
c01063b8:	8d 45 f0             	lea    eax,[ebp-0x10]
c01063bb:	e8 29 ff ff ff       	call   c01062e9 <floppy_check_interrupt.constprop.10>
c01063c0:	4b                   	dec    ebx
c01063c1:	75 f2                	jne    c01063b5 <floppy_reset.constprop.5+0x1c>
c01063c3:	31 c0                	xor    eax,eax
c01063c5:	ba f7 03 00 00       	mov    edx,0x3f7
c01063ca:	ee                   	out    dx,al
c01063cb:	b8 01 00 00 00       	mov    eax,0x1
c01063d0:	e8 2c fe ff ff       	call   c0106201 <floppy_motor.constprop.8>
c01063d5:	b8 03 00 00 00       	mov    eax,0x3
c01063da:	e8 bf fe ff ff       	call   c010629e <floppy_write_cmd.constprop.12>
c01063df:	b8 df 00 00 00       	mov    eax,0xdf
c01063e4:	e8 b5 fe ff ff       	call   c010629e <floppy_write_cmd.constprop.12>
c01063e9:	b8 02 00 00 00       	mov    eax,0x2
c01063ee:	e8 ab fe ff ff       	call   c010629e <floppy_write_cmd.constprop.12>
c01063f3:	50                   	push   eax
c01063f4:	50                   	push   eax
c01063f5:	6a 00                	push   0x0
c01063f7:	68 00 a3 e1 11       	push   0x11e1a300
c01063fc:	e8 1a d9 ff ff       	call   c0103d1b <thread_nano_sleep>
c0106401:	b8 13 00 00 00       	mov    eax,0x13
c0106406:	e8 93 fe ff ff       	call   c010629e <floppy_write_cmd.constprop.12>
c010640b:	31 c0                	xor    eax,eax
c010640d:	e8 8c fe ff ff       	call   c010629e <floppy_write_cmd.constprop.12>
c0106412:	b8 08 00 00 00       	mov    eax,0x8
c0106417:	e8 82 fe ff ff       	call   c010629e <floppy_write_cmd.constprop.12>
c010641c:	31 c0                	xor    eax,eax
c010641e:	e8 7b fe ff ff       	call   c010629e <floppy_write_cmd.constprop.12>
c0106423:	5a                   	pop    edx
c0106424:	59                   	pop    ecx
c0106425:	6a 00                	push   0x0
c0106427:	68 00 a3 e1 11       	push   0x11e1a300
c010642c:	e8 ea d8 ff ff       	call   c0103d1b <thread_nano_sleep>
c0106431:	31 c0                	xor    eax,eax
c0106433:	e8 c9 fd ff ff       	call   c0106201 <floppy_motor.constprop.8>
c0106438:	e8 d7 fe ff ff       	call   c0106314 <floppy_calibrate.constprop.7>
c010643d:	8b 5d fc             	mov    ebx,DWORD PTR [ebp-0x4]
c0106440:	c9                   	leave  
c0106441:	c3                   	ret    

c0106442 <floppy_seek.constprop.4>:
c0106442:	55                   	push   ebp
c0106443:	89 e5                	mov    ebp,esp
c0106445:	57                   	push   edi
c0106446:	56                   	push   esi
c0106447:	53                   	push   ebx
c0106448:	83 ec 2c             	sub    esp,0x2c
c010644b:	89 c7                	mov    edi,eax
c010644d:	89 d6                	mov    esi,edx
c010644f:	b8 01 00 00 00       	mov    eax,0x1
c0106454:	e8 a8 fd ff ff       	call   c0106201 <floppy_motor.constprop.8>
c0106459:	8d 04 b5 00 00 00 00 	lea    eax,[esi*4+0x0]
c0106460:	89 45 d4             	mov    DWORD PTR [ebp-0x2c],eax
c0106463:	be 0a 00 00 00       	mov    esi,0xa
c0106468:	b8 0f 00 00 00       	mov    eax,0xf
c010646d:	e8 2c fe ff ff       	call   c010629e <floppy_write_cmd.constprop.12>
c0106472:	8b 45 d4             	mov    eax,DWORD PTR [ebp-0x2c]
c0106475:	e8 24 fe ff ff       	call   c010629e <floppy_write_cmd.constprop.12>
c010647a:	89 f8                	mov    eax,edi
c010647c:	e8 1d fe ff ff       	call   c010629e <floppy_write_cmd.constprop.12>
c0106481:	e8 41 fd ff ff       	call   c01061c7 <floppy_irq_wait>
c0106486:	8d 55 e4             	lea    edx,[ebp-0x1c]
c0106489:	8d 45 e0             	lea    eax,[ebp-0x20]
c010648c:	e8 58 fe ff ff       	call   c01062e9 <floppy_check_interrupt.constprop.10>
c0106491:	8b 5d e0             	mov    ebx,DWORD PTR [ebp-0x20]
c0106494:	81 e3 c0 00 00 00    	and    ebx,0xc0
c010649a:	75 0e                	jne    c01064aa <floppy_seek.constprop.4+0x68>
c010649c:	3b 7d e4             	cmp    edi,DWORD PTR [ebp-0x1c]
c010649f:	75 09                	jne    c01064aa <floppy_seek.constprop.4+0x68>
c01064a1:	31 c0                	xor    eax,eax
c01064a3:	e8 59 fd ff ff       	call   c0106201 <floppy_motor.constprop.8>
c01064a8:	eb 1f                	jmp    c01064c9 <floppy_seek.constprop.4+0x87>
c01064aa:	4e                   	dec    esi
c01064ab:	75 bb                	jne    c0106468 <floppy_seek.constprop.4+0x26>
c01064ad:	83 ec 0c             	sub    esp,0xc
c01064b0:	68 da 9b 10 c0       	push   0xc0109bda
c01064b5:	e8 00 e4 ff ff       	call   c01048ba <kprintf>
c01064ba:	31 c0                	xor    eax,eax
c01064bc:	e8 40 fd ff ff       	call   c0106201 <floppy_motor.constprop.8>
c01064c1:	83 c4 10             	add    esp,0x10
c01064c4:	bb 0a 00 00 00       	mov    ebx,0xa
c01064c9:	89 d8                	mov    eax,ebx
c01064cb:	8d 65 f4             	lea    esp,[ebp-0xc]
c01064ce:	5b                   	pop    ebx
c01064cf:	5e                   	pop    esi
c01064d0:	5f                   	pop    edi
c01064d1:	5d                   	pop    ebp
c01064d2:	c3                   	ret    

c01064d3 <floppy_do_cylinder.constprop.2>:
c01064d3:	55                   	push   ebp
c01064d4:	89 e5                	mov    ebp,esp
c01064d6:	57                   	push   edi
c01064d7:	56                   	push   esi
c01064d8:	53                   	push   ebx
c01064d9:	83 ec 1c             	sub    esp,0x1c
c01064dc:	89 c6                	mov    esi,eax
c01064de:	31 d2                	xor    edx,edx
c01064e0:	e8 5d ff ff ff       	call   c0106442 <floppy_seek.constprop.4>
c01064e5:	85 c0                	test   eax,eax
c01064e7:	0f 85 6b 01 00 00    	jne    c0106658 <floppy_do_cylinder.constprop.2+0x185>
c01064ed:	ba 01 00 00 00       	mov    edx,0x1
c01064f2:	89 f0                	mov    eax,esi
c01064f4:	e8 49 ff ff ff       	call   c0106442 <floppy_seek.constprop.4>
c01064f9:	89 c7                	mov    edi,eax
c01064fb:	85 c0                	test   eax,eax
c01064fd:	0f 85 55 01 00 00    	jne    c0106658 <floppy_do_cylinder.constprop.2+0x185>
c0106503:	31 db                	xor    ebx,ebx
c0106505:	b8 01 00 00 00       	mov    eax,0x1
c010650a:	e8 f2 fc ff ff       	call   c0106201 <floppy_motor.constprop.8>
c010650f:	b9 05 00 00 00       	mov    ecx,0x5
c0106514:	89 d8                	mov    eax,ebx
c0106516:	99                   	cdq    
c0106517:	f7 f9                	idiv   ecx
c0106519:	83 fa 04             	cmp    edx,0x4
c010651c:	0f 84 bf 00 00 00    	je     c01065e1 <floppy_do_cylinder.constprop.2+0x10e>
c0106522:	b0 06                	mov    al,0x6
c0106524:	e6 0a                	out    0xa,al
c0106526:	b2 ff                	mov    dl,0xff
c0106528:	88 d0                	mov    al,dl
c010652a:	e6 0c                	out    0xc,al
c010652c:	31 c0                	xor    eax,eax
c010652e:	e6 04                	out    0x4,al
c0106530:	e6 04                	out    0x4,al
c0106532:	b0 01                	mov    al,0x1
c0106534:	e6 81                	out    0x81,al
c0106536:	88 d0                	mov    al,dl
c0106538:	e6 0c                	out    0xc,al
c010653a:	e6 05                	out    0x5,al
c010653c:	b0 47                	mov    al,0x47
c010653e:	e6 05                	out    0x5,al
c0106540:	b0 46                	mov    al,0x46
c0106542:	e6 0b                	out    0xb,al
c0106544:	b0 02                	mov    al,0x2
c0106546:	e6 0a                	out    0xa,al
c0106548:	50                   	push   eax
c0106549:	50                   	push   eax
c010654a:	6a 00                	push   0x0
c010654c:	68 80 96 98 00       	push   0x989680
c0106551:	e8 c5 d7 ff ff       	call   c0103d1b <thread_nano_sleep>
c0106556:	b8 c6 00 00 00       	mov    eax,0xc6
c010655b:	e8 3e fd ff ff       	call   c010629e <floppy_write_cmd.constprop.12>
c0106560:	31 c0                	xor    eax,eax
c0106562:	e8 37 fd ff ff       	call   c010629e <floppy_write_cmd.constprop.12>
c0106567:	89 f0                	mov    eax,esi
c0106569:	e8 30 fd ff ff       	call   c010629e <floppy_write_cmd.constprop.12>
c010656e:	31 c0                	xor    eax,eax
c0106570:	e8 29 fd ff ff       	call   c010629e <floppy_write_cmd.constprop.12>
c0106575:	b8 01 00 00 00       	mov    eax,0x1
c010657a:	e8 1f fd ff ff       	call   c010629e <floppy_write_cmd.constprop.12>
c010657f:	b8 02 00 00 00       	mov    eax,0x2
c0106584:	e8 15 fd ff ff       	call   c010629e <floppy_write_cmd.constprop.12>
c0106589:	b8 12 00 00 00       	mov    eax,0x12
c010658e:	e8 0b fd ff ff       	call   c010629e <floppy_write_cmd.constprop.12>
c0106593:	b8 1b 00 00 00       	mov    eax,0x1b
c0106598:	e8 01 fd ff ff       	call   c010629e <floppy_write_cmd.constprop.12>
c010659d:	b8 ff 00 00 00       	mov    eax,0xff
c01065a2:	e8 f7 fc ff ff       	call   c010629e <floppy_write_cmd.constprop.12>
c01065a7:	e8 1b fc ff ff       	call   c01061c7 <floppy_irq_wait>
c01065ac:	e8 a6 fc ff ff       	call   c0106257 <floppy_read_data.constprop.11>
c01065b1:	88 45 e7             	mov    BYTE PTR [ebp-0x19],al
c01065b4:	e8 9e fc ff ff       	call   c0106257 <floppy_read_data.constprop.11>
c01065b9:	88 45 e6             	mov    BYTE PTR [ebp-0x1a],al
c01065bc:	e8 96 fc ff ff       	call   c0106257 <floppy_read_data.constprop.11>
c01065c1:	e8 91 fc ff ff       	call   c0106257 <floppy_read_data.constprop.11>
c01065c6:	e8 8c fc ff ff       	call   c0106257 <floppy_read_data.constprop.11>
c01065cb:	e8 87 fc ff ff       	call   c0106257 <floppy_read_data.constprop.11>
c01065d0:	e8 82 fc ff ff       	call   c0106257 <floppy_read_data.constprop.11>
c01065d5:	83 c4 10             	add    esp,0x10
c01065d8:	8a 55 e6             	mov    dl,BYTE PTR [ebp-0x1a]
c01065db:	84 d2                	test   dl,dl
c01065dd:	79 3e                	jns    c010661d <floppy_do_cylinder.constprop.2+0x14a>
c01065df:	eb 56                	jmp    c0106637 <floppy_do_cylinder.constprop.2+0x164>
c01065e1:	b9 0a 00 00 00       	mov    ecx,0xa
c01065e6:	89 d8                	mov    eax,ebx
c01065e8:	99                   	cdq    
c01065e9:	f7 f9                	idiv   ecx
c01065eb:	83 fa 08             	cmp    edx,0x8
c01065ee:	75 05                	jne    c01065f5 <floppy_do_cylinder.constprop.2+0x122>
c01065f0:	e8 a4 fd ff ff       	call   c0106399 <floppy_reset.constprop.5>
c01065f5:	e8 1a fd ff ff       	call   c0106314 <floppy_calibrate.constprop.7>
c01065fa:	31 d2                	xor    edx,edx
c01065fc:	89 f0                	mov    eax,esi
c01065fe:	e8 3f fe ff ff       	call   c0106442 <floppy_seek.constprop.4>
c0106603:	85 c0                	test   eax,eax
c0106605:	75 51                	jne    c0106658 <floppy_do_cylinder.constprop.2+0x185>
c0106607:	ba 01 00 00 00       	mov    edx,0x1
c010660c:	89 f0                	mov    eax,esi
c010660e:	e8 2f fe ff ff       	call   c0106442 <floppy_seek.constprop.4>
c0106613:	85 c0                	test   eax,eax
c0106615:	0f 84 07 ff ff ff    	je     c0106522 <floppy_do_cylinder.constprop.2+0x4f>
c010661b:	eb 3b                	jmp    c0106658 <floppy_do_cylinder.constprop.2+0x185>
c010661d:	8a 4d e7             	mov    cl,BYTE PTR [ebp-0x19]
c0106620:	83 e1 c8             	and    ecx,0xffffffc8
c0106623:	83 e2 30             	and    edx,0x30
c0106626:	08 d1                	or     cl,dl
c0106628:	75 0d                	jne    c0106637 <floppy_do_cylinder.constprop.2+0x164>
c010662a:	3c 02                	cmp    al,0x2
c010662c:	75 09                	jne    c0106637 <floppy_do_cylinder.constprop.2+0x164>
c010662e:	31 c0                	xor    eax,eax
c0106630:	e8 cc fb ff ff       	call   c0106201 <floppy_motor.constprop.8>
c0106635:	eb 26                	jmp    c010665d <floppy_do_cylinder.constprop.2+0x18a>
c0106637:	43                   	inc    ebx
c0106638:	83 fb 14             	cmp    ebx,0x14
c010663b:	0f 85 c4 fe ff ff    	jne    c0106505 <floppy_do_cylinder.constprop.2+0x32>
c0106641:	83 ec 0c             	sub    esp,0xc
c0106644:	68 f0 9b 10 c0       	push   0xc0109bf0
c0106649:	e8 6c e2 ff ff       	call   c01048ba <kprintf>
c010664e:	31 c0                	xor    eax,eax
c0106650:	e8 ac fb ff ff       	call   c0106201 <floppy_motor.constprop.8>
c0106655:	83 c4 10             	add    esp,0x10
c0106658:	bf 0a 00 00 00       	mov    edi,0xa
c010665d:	89 f8                	mov    eax,edi
c010665f:	8d 65 f4             	lea    esp,[ebp-0xc]
c0106662:	5b                   	pop    ebx
c0106663:	5e                   	pop    esi
c0106664:	5f                   	pop    edi
c0106665:	5d                   	pop    ebp
c0106666:	c3                   	ret    

c0106667 <floppy_io>:
c0106667:	55                   	push   ebp
c0106668:	89 e5                	mov    ebp,esp
c010666a:	57                   	push   edi
c010666b:	56                   	push   esi
c010666c:	53                   	push   ebx
c010666d:	83 ec 1c             	sub    esp,0x1c
c0106670:	8b 5d 0c             	mov    ebx,DWORD PTR [ebp+0xc]
c0106673:	b8 01 00 00 00       	mov    eax,0x1
c0106678:	83 7b 0c 01          	cmp    DWORD PTR [ebx+0xc],0x1
c010667c:	0f 84 45 01 00 00    	je     c01067c7 <floppy_io+0x160>
c0106682:	8b 45 08             	mov    eax,DWORD PTR [ebp+0x8]
c0106685:	8b 48 10             	mov    ecx,DWORD PTR [eax+0x10]
c0106688:	8b 43 08             	mov    eax,DWORD PTR [ebx+0x8]
c010668b:	31 d2                	xor    edx,edx
c010668d:	f7 f1                	div    ecx
c010668f:	89 c6                	mov    esi,eax
c0106691:	b8 07 00 00 00       	mov    eax,0x7
c0106696:	85 d2                	test   edx,edx
c0106698:	0f 85 29 01 00 00    	jne    c01067c7 <floppy_io+0x160>
c010669e:	8b 43 04             	mov    eax,DWORD PTR [ebx+0x4]
c01066a1:	31 d2                	xor    edx,edx
c01066a3:	f7 f1                	div    ecx
c01066a5:	89 45 e0             	mov    DWORD PTR [ebp-0x20],eax
c01066a8:	b8 07 00 00 00       	mov    eax,0x7
c01066ad:	85 d2                	test   edx,edx
c01066af:	0f 85 12 01 00 00    	jne    c01067c7 <floppy_io+0x160>
c01066b5:	8b 45 e0             	mov    eax,DWORD PTR [ebp-0x20]
c01066b8:	48                   	dec    eax
c01066b9:	3d fe 00 00 00       	cmp    eax,0xfe
c01066be:	0f 87 fa 00 00 00    	ja     c01067be <floppy_io+0x157>
c01066c4:	81 fe ff ff ff 0f    	cmp    esi,0xfffffff
c01066ca:	0f 87 ee 00 00 00    	ja     c01067be <floppy_io+0x157>
c01066d0:	89 75 e4             	mov    DWORD PTR [ebp-0x1c],esi
c01066d3:	b8 07 00 00 00       	mov    eax,0x7
c01066d8:	8b 7d 08             	mov    edi,DWORD PTR [ebp+0x8]
c01066db:	3b 77 0c             	cmp    esi,DWORD PTR [edi+0xc]
c01066de:	0f 83 e3 00 00 00    	jae    c01067c7 <floppy_io+0x160>
c01066e4:	b9 24 00 00 00       	mov    ecx,0x24
c01066e9:	8b 45 e4             	mov    eax,DWORD PTR [ebp-0x1c]
c01066ec:	99                   	cdq    
c01066ed:	f7 f9                	idiv   ecx
c01066ef:	89 c7                	mov    edi,eax
c01066f1:	b9 12 00 00 00       	mov    ecx,0x12
c01066f6:	89 d0                	mov    eax,edx
c01066f8:	99                   	cdq    
c01066f9:	f7 f9                	idiv   ecx
c01066fb:	89 45 dc             	mov    DWORD PTR [ebp-0x24],eax
c01066fe:	8b 45 e4             	mov    eax,DWORD PTR [ebp-0x1c]
c0106701:	99                   	cdq    
c0106702:	f7 f9                	idiv   ecx
c0106704:	89 55 d8             	mov    DWORD PTR [ebp-0x28],edx
c0106707:	85 ff                	test   edi,edi
c0106709:	75 63                	jne    c010676e <floppy_io+0x107>
c010670b:	80 3d 8c 57 11 c0 00 	cmp    BYTE PTR ds:0xc011578c,0x0
c0106712:	75 3a                	jne    c010674e <floppy_io+0xe7>
c0106714:	c6 05 8c 57 11 c0 01 	mov    BYTE PTR ds:0xc011578c,0x1
c010671b:	31 c0                	xor    eax,eax
c010671d:	e8 b1 fd ff ff       	call   c01064d3 <floppy_do_cylinder.constprop.2>
c0106722:	85 c0                	test   eax,eax
c0106724:	0f 85 9d 00 00 00    	jne    c01067c7 <floppy_io+0x160>
c010672a:	51                   	push   ecx
c010672b:	68 00 48 00 00       	push   0x4800
c0106730:	ff 35 48 1b 11 c0    	push   DWORD PTR ds:0xc0111b48
c0106736:	ff 35 4c 1b 11 c0    	push   DWORD PTR ds:0xc0111b4c
c010673c:	e8 d5 aa ff ff       	call   c0101216 <memcpy>
c0106741:	c7 05 2c d0 10 c0 00 00 00 00 	mov    DWORD PTR ds:0xc010d02c,0x0
c010674b:	83 c4 10             	add    esp,0x10
c010674e:	52                   	push   edx
c010674f:	8b 45 08             	mov    eax,DWORD PTR [ebp+0x8]
c0106752:	ff 70 10             	push   DWORD PTR [eax+0x10]
c0106755:	53                   	push   ebx
c0106756:	6b 45 dc 12          	imul   eax,DWORD PTR [ebp-0x24],0x12
c010675a:	03 45 d8             	add    eax,DWORD PTR [ebp-0x28]
c010675d:	c1 e0 09             	shl    eax,0x9
c0106760:	03 05 4c 1b 11 c0    	add    eax,DWORD PTR ds:0xc0111b4c
c0106766:	50                   	push   eax
c0106767:	e8 92 e5 ff ff       	call   c0104cfe <uio_move>
c010676c:	eb 2c                	jmp    c010679a <floppy_io+0x133>
c010676e:	39 3d 2c d0 10 c0    	cmp    DWORD PTR ds:0xc010d02c,edi
c0106774:	75 3b                	jne    c01067b1 <floppy_io+0x14a>
c0106776:	50                   	push   eax
c0106777:	8b 45 08             	mov    eax,DWORD PTR [ebp+0x8]
c010677a:	ff 70 10             	push   DWORD PTR [eax+0x10]
c010677d:	53                   	push   ebx
c010677e:	6b 45 dc 12          	imul   eax,DWORD PTR [ebp-0x24],0x12
c0106782:	03 45 d8             	add    eax,DWORD PTR [ebp-0x28]
c0106785:	c1 e0 09             	shl    eax,0x9
c0106788:	03 05 48 1b 11 c0    	add    eax,DWORD PTR ds:0xc0111b48
c010678e:	50                   	push   eax
c010678f:	e8 6a e5 ff ff       	call   c0104cfe <uio_move>
c0106794:	89 3d 2c d0 10 c0    	mov    DWORD PTR ds:0xc010d02c,edi
c010679a:	83 c4 10             	add    esp,0x10
c010679d:	8b 45 e0             	mov    eax,DWORD PTR [ebp-0x20]
c01067a0:	01 f0                	add    eax,esi
c01067a2:	2b 45 e4             	sub    eax,DWORD PTR [ebp-0x1c]
c01067a5:	85 c0                	test   eax,eax
c01067a7:	7e 1c                	jle    c01067c5 <floppy_io+0x15e>
c01067a9:	ff 45 e4             	inc    DWORD PTR [ebp-0x1c]
c01067ac:	e9 33 ff ff ff       	jmp    c01066e4 <floppy_io+0x7d>
c01067b1:	89 f8                	mov    eax,edi
c01067b3:	e8 1b fd ff ff       	call   c01064d3 <floppy_do_cylinder.constprop.2>
c01067b8:	85 c0                	test   eax,eax
c01067ba:	74 ba                	je     c0106776 <floppy_io+0x10f>
c01067bc:	eb 09                	jmp    c01067c7 <floppy_io+0x160>
c01067be:	b8 07 00 00 00       	mov    eax,0x7
c01067c3:	eb 02                	jmp    c01067c7 <floppy_io+0x160>
c01067c5:	31 c0                	xor    eax,eax
c01067c7:	8d 65 f4             	lea    esp,[ebp-0xc]
c01067ca:	5b                   	pop    ebx
c01067cb:	5e                   	pop    esi
c01067cc:	5f                   	pop    edi
c01067cd:	5d                   	pop    ebp
c01067ce:	c3                   	ret    

c01067cf <floppy_initialise>:
c01067cf:	55                   	push   ebp
c01067d0:	89 e5                	mov    ebp,esp
c01067d2:	53                   	push   ebx
c01067d3:	83 ec 10             	sub    esp,0x10
c01067d6:	68 00 48 00 00       	push   0x4800
c01067db:	e8 e3 b6 ff ff       	call   c0101ec3 <malloc>
c01067e0:	a3 4c 1b 11 c0       	mov    ds:0xc0111b4c,eax
c01067e5:	c7 05 a4 57 11 c0 00 00 00 00 	mov    DWORD PTR ds:0xc01157a4,0x0
c01067ef:	c7 05 a0 57 11 c0 00 02 00 00 	mov    DWORD PTR ds:0xc01157a0,0x200
c01067f9:	c7 05 9c 57 11 c0 40 0b 00 00 	mov    DWORD PTR ds:0xc011579c,0xb40
c0106803:	c7 05 98 57 11 c0 67 66 10 c0 	mov    DWORD PTR ds:0xc0115798,0xc0106667
c010680d:	c7 05 90 57 11 c0 2e 19 10 c0 	mov    DWORD PTR ds:0xc0115790,0xc010192e
c0106817:	c7 05 94 57 11 c0 31 19 10 c0 	mov    DWORD PTR ds:0xc0115794,0xc0101931
c0106821:	5a                   	pop    edx
c0106822:	59                   	pop    ecx
c0106823:	68 bb 95 10 c0       	push   0xc01095bb
c0106828:	68 90 57 11 c0       	push   0xc0115790
c010682d:	e8 1a ed ff ff       	call   c010554c <vfs_add_device>
c0106832:	5b                   	pop    ebx
c0106833:	58                   	pop    eax
c0106834:	68 72 61 10 c0       	push   0xc0106172
c0106839:	6a 26                	push   0x26
c010683b:	e8 23 0f 00 00       	call   c0107763 <x86_register_interrupt_handler>
c0106840:	c7 04 24 00 48 00 00 	mov    DWORD PTR [esp],0x4800
c0106847:	e8 da be ff ff       	call   c0102726 <virt_allocate_unbacked_krnl_region>
c010684c:	a3 48 1b 11 c0       	mov    ds:0xc0111b48,eax
c0106851:	83 c4 10             	add    esp,0x10
c0106854:	31 db                	xor    ebx,ebx
c0106856:	6a 21                	push   0x21
c0106858:	a1 48 1b 11 c0       	mov    eax,ds:0xc0111b48
c010685d:	01 d8                	add    eax,ebx
c010685f:	50                   	push   eax
c0106860:	8d 83 00 00 01 00    	lea    eax,[ebx+0x10000]
c0106866:	50                   	push   eax
c0106867:	a1 e8 1a 11 c0       	mov    eax,ds:0xc0111ae8
c010686c:	ff 70 04             	push   DWORD PTR [eax+0x4]
c010686f:	e8 94 bc ff ff       	call   c0102508 <vas_map>
c0106874:	81 c3 00 10 00 00    	add    ebx,0x1000
c010687a:	83 c4 10             	add    esp,0x10
c010687d:	81 fb 00 50 00 00    	cmp    ebx,0x5000
c0106883:	75 d1                	jne    c0106856 <floppy_initialise+0x87>
c0106885:	50                   	push   eax
c0106886:	a1 e8 1a 11 c0       	mov    eax,ds:0xc0111ae8
c010688b:	ff 70 04             	push   DWORD PTR [eax+0x4]
c010688e:	6a 00                	push   0x0
c0106890:	68 7c 61 10 c0       	push   0xc010617c
c0106895:	e8 0c d1 ff ff       	call   c01039a6 <thread_create>
c010689a:	83 c4 10             	add    esp,0x10
c010689d:	8b 5d fc             	mov    ebx,DWORD PTR [ebp-0x4]
c01068a0:	c9                   	leave  
c01068a1:	e9 f3 fa ff ff       	jmp    c0106399 <floppy_reset.constprop.5>

c01068a6 <ide_check_errors>:
c01068a6:	55                   	push   ebp
c01068a7:	89 e5                	mov    ebp,esp
c01068a9:	83 ec 08             	sub    esp,0x8
c01068ac:	ba f0 01 00 00       	mov    edx,0x1f0
c01068b1:	83 7d 08 01          	cmp    DWORD PTR [ebp+0x8],0x1
c01068b5:	7e 05                	jle    c01068bc <ide_check_errors+0x16>
c01068b7:	ba 70 01 00 00       	mov    edx,0x170
c01068bc:	83 c2 07             	add    edx,0x7
c01068bf:	ec                   	in     al,dx
c01068c0:	88 c2                	mov    dl,al
c01068c2:	a8 01                	test   al,0x1
c01068c4:	74 0a                	je     c01068d0 <ide_check_errors+0x2a>
c01068c6:	83 ec 0c             	sub    esp,0xc
c01068c9:	68 06 9c 10 c0       	push   0xc0109c06
c01068ce:	eb 1d                	jmp    c01068ed <ide_check_errors+0x47>
c01068d0:	a8 20                	test   al,0x20
c01068d2:	74 0a                	je     c01068de <ide_check_errors+0x38>
c01068d4:	83 ec 0c             	sub    esp,0xc
c01068d7:	68 11 9c 10 c0       	push   0xc0109c11
c01068dc:	eb 0f                	jmp    c01068ed <ide_check_errors+0x47>
c01068de:	31 c0                	xor    eax,eax
c01068e0:	80 e2 08             	and    dl,0x8
c01068e3:	75 15                	jne    c01068fa <ide_check_errors+0x54>
c01068e5:	83 ec 0c             	sub    esp,0xc
c01068e8:	68 1c 9c 10 c0       	push   0xc0109c1c
c01068ed:	e8 c8 df ff ff       	call   c01048ba <kprintf>
c01068f2:	83 c4 10             	add    esp,0x10
c01068f5:	b8 0a 00 00 00       	mov    eax,0xa
c01068fa:	c9                   	leave  
c01068fb:	c3                   	ret    

c01068fc <ide_poll>:
c01068fc:	55                   	push   ebp
c01068fd:	89 e5                	mov    ebp,esp
c01068ff:	56                   	push   esi
c0106900:	53                   	push   ebx
c0106901:	83 7d 08 01          	cmp    DWORD PTR [ebp+0x8],0x1
c0106905:	7f 0c                	jg     c0106913 <ide_poll+0x17>
c0106907:	be f0 01 00 00       	mov    esi,0x1f0
c010690c:	ba f6 03 00 00       	mov    edx,0x3f6
c0106911:	eb 0a                	jmp    c010691d <ide_poll+0x21>
c0106913:	be 70 01 00 00       	mov    esi,0x170
c0106918:	ba 76 03 00 00       	mov    edx,0x376
c010691d:	ec                   	in     al,dx
c010691e:	ec                   	in     al,dx
c010691f:	ec                   	in     al,dx
c0106920:	ec                   	in     al,dx
c0106921:	31 db                	xor    ebx,ebx
c0106923:	8d 56 07             	lea    edx,[esi+0x7]
c0106926:	ec                   	in     al,dx
c0106927:	84 c0                	test   al,al
c0106929:	79 29                	jns    c0106954 <ide_poll+0x58>
c010692b:	81 fb 82 86 01 00    	cmp    ebx,0x18682
c0106931:	7e 11                	jle    c0106944 <ide_poll+0x48>
c0106933:	50                   	push   eax
c0106934:	50                   	push   eax
c0106935:	6a 00                	push   0x0
c0106937:	68 80 96 98 00       	push   0x989680
c010693c:	e8 da d3 ff ff       	call   c0103d1b <thread_nano_sleep>
c0106941:	83 c4 10             	add    esp,0x10
c0106944:	43                   	inc    ebx
c0106945:	81 fb a2 86 01 00    	cmp    ebx,0x186a2
c010694b:	75 d6                	jne    c0106923 <ide_poll+0x27>
c010694d:	b8 0a 00 00 00       	mov    eax,0xa
c0106952:	eb 02                	jmp    c0106956 <ide_poll+0x5a>
c0106954:	31 c0                	xor    eax,eax
c0106956:	8d 65 f8             	lea    esp,[ebp-0x8]
c0106959:	5b                   	pop    ebx
c010695a:	5e                   	pop    esi
c010695b:	5d                   	pop    ebp
c010695c:	c3                   	ret    

c010695d <ide_io>:
c010695d:	55                   	push   ebp
c010695e:	89 e5                	mov    ebp,esp
c0106960:	57                   	push   edi
c0106961:	56                   	push   esi
c0106962:	53                   	push   ebx
c0106963:	83 ec 3c             	sub    esp,0x3c
c0106966:	8b 75 0c             	mov    esi,DWORD PTR [ebp+0xc]
c0106969:	8b 45 08             	mov    eax,DWORD PTR [ebp+0x8]
c010696c:	8b 58 10             	mov    ebx,DWORD PTR [eax+0x10]
c010696f:	8b 46 08             	mov    eax,DWORD PTR [esi+0x8]
c0106972:	31 d2                	xor    edx,edx
c0106974:	f7 f3                	div    ebx
c0106976:	89 d7                	mov    edi,edx
c0106978:	89 c1                	mov    ecx,eax
c010697a:	8b 46 04             	mov    eax,DWORD PTR [esi+0x4]
c010697d:	31 d2                	xor    edx,edx
c010697f:	f7 f3                	div    ebx
c0106981:	89 45 d8             	mov    DWORD PTR [ebp-0x28],eax
c0106984:	bb 07 00 00 00       	mov    ebx,0x7
c0106989:	85 ff                	test   edi,edi
c010698b:	0f 85 4b 02 00 00    	jne    c0106bdc <ide_io+0x27f>
c0106991:	81 f9 ff ff ff 0f    	cmp    ecx,0xfffffff
c0106997:	0f 97 c0             	seta   al
c010699a:	85 d2                	test   edx,edx
c010699c:	0f 95 c2             	setne  dl
c010699f:	08 d0                	or     al,dl
c01069a1:	0f 85 30 02 00 00    	jne    c0106bd7 <ide_io+0x27a>
c01069a7:	83 7d d8 00          	cmp    DWORD PTR [ebp-0x28],0x0
c01069ab:	0f 8e 26 02 00 00    	jle    c0106bd7 <ide_io+0x27a>
c01069b1:	89 4d d4             	mov    DWORD PTR [ebp-0x2c],ecx
c01069b4:	31 db                	xor    ebx,ebx
c01069b6:	8b 45 d8             	mov    eax,DWORD PTR [ebp-0x28]
c01069b9:	99                   	cdq    
c01069ba:	01 c8                	add    eax,ecx
c01069bc:	11 da                	adc    edx,ebx
c01069be:	8b 7d 08             	mov    edi,DWORD PTR [ebp+0x8]
c01069c1:	8b 4f 0c             	mov    ecx,DWORD PTR [edi+0xc]
c01069c4:	31 db                	xor    ebx,ebx
c01069c6:	39 c8                	cmp    eax,ecx
c01069c8:	89 d0                	mov    eax,edx
c01069ca:	19 d8                	sbb    eax,ebx
c01069cc:	bb 07 00 00 00       	mov    ebx,0x7
c01069d1:	0f 83 05 02 00 00    	jae    c0106bdc <ide_io+0x27f>
c01069d7:	8b 47 14             	mov    eax,DWORD PTR [edi+0x14]
c01069da:	8b 08                	mov    ecx,DWORD PTR [eax]
c01069dc:	89 4d e4             	mov    DWORD PTR [ebp-0x1c],ecx
c01069df:	8b 40 04             	mov    eax,DWORD PTR [eax+0x4]
c01069e2:	89 45 e0             	mov    DWORD PTR [ebp-0x20],eax
c01069e5:	83 ec 0c             	sub    esp,0xc
c01069e8:	ff 35 b4 57 11 c0    	push   DWORD PTR ds:0xc01157b4
c01069ee:	e8 e3 c9 ff ff       	call   c01033d6 <semaphore_acquire>
c01069f3:	83 c4 10             	add    esp,0x10
c01069f6:	83 7d e4 01          	cmp    DWORD PTR [ebp-0x1c],0x1
c01069fa:	7e 0d                	jle    c0106a09 <ide_io+0xac>
c01069fc:	bf 70 01 00 00       	mov    edi,0x170
c0106a01:	66 c7 45 d2 76 03    	mov    WORD PTR [ebp-0x2e],0x376
c0106a07:	eb 0b                	jmp    c0106a14 <ide_io+0xb7>
c0106a09:	bf f0 01 00 00       	mov    edi,0x1f0
c0106a0e:	66 c7 45 d2 f6 03    	mov    WORD PTR [ebp-0x2e],0x3f6
c0106a14:	8b 45 e4             	mov    eax,DWORD PTR [ebp-0x1c]
c0106a17:	c1 e0 04             	shl    eax,0x4
c0106a1a:	83 e0 10             	and    eax,0x10
c0106a1d:	88 45 d1             	mov    BYTE PTR [ebp-0x2f],al
c0106a20:	8b 45 d8             	mov    eax,DWORD PTR [ebp-0x28]
c0106a23:	89 45 dc             	mov    DWORD PTR [ebp-0x24],eax
c0106a26:	3d ff 00 00 00       	cmp    eax,0xff
c0106a2b:	7e 07                	jle    c0106a34 <ide_io+0xd7>
c0106a2d:	c7 45 dc ff 00 00 00 	mov    DWORD PTR [ebp-0x24],0xff
c0106a34:	83 7e 0c 01          	cmp    DWORD PTR [esi+0xc],0x1
c0106a38:	75 13                	jne    c0106a4d <ide_io+0xf0>
c0106a3a:	50                   	push   eax
c0106a3b:	8b 45 08             	mov    eax,DWORD PTR [ebp+0x8]
c0106a3e:	ff 70 10             	push   DWORD PTR [eax+0x10]
c0106a41:	56                   	push   esi
c0106a42:	ff 75 e0             	push   DWORD PTR [ebp-0x20]
c0106a45:	e8 b4 e2 ff ff       	call   c0104cfe <uio_move>
c0106a4a:	83 c4 10             	add    esp,0x10
c0106a4d:	8b 45 d4             	mov    eax,DWORD PTR [ebp-0x2c]
c0106a50:	c1 f8 18             	sar    eax,0x18
c0106a53:	83 e0 0f             	and    eax,0xf
c0106a56:	0a 45 d1             	or     al,BYTE PTR [ebp-0x2f]
c0106a59:	83 c8 e0             	or     eax,0xffffffe0
c0106a5c:	8d 57 06             	lea    edx,[edi+0x6]
c0106a5f:	ee                   	out    dx,al
c0106a60:	b0 02                	mov    al,0x2
c0106a62:	66 8b 55 d2          	mov    dx,WORD PTR [ebp-0x2e]
c0106a66:	ee                   	out    dx,al
c0106a67:	8d 57 01             	lea    edx,[edi+0x1]
c0106a6a:	31 c0                	xor    eax,eax
c0106a6c:	ee                   	out    dx,al
c0106a6d:	8d 57 02             	lea    edx,[edi+0x2]
c0106a70:	8a 45 dc             	mov    al,BYTE PTR [ebp-0x24]
c0106a73:	ee                   	out    dx,al
c0106a74:	8d 57 03             	lea    edx,[edi+0x3]
c0106a77:	8a 45 d4             	mov    al,BYTE PTR [ebp-0x2c]
c0106a7a:	ee                   	out    dx,al
c0106a7b:	8b 45 d4             	mov    eax,DWORD PTR [ebp-0x2c]
c0106a7e:	c1 f8 08             	sar    eax,0x8
c0106a81:	8d 57 04             	lea    edx,[edi+0x4]
c0106a84:	ee                   	out    dx,al
c0106a85:	8b 45 d4             	mov    eax,DWORD PTR [ebp-0x2c]
c0106a88:	c1 f8 10             	sar    eax,0x10
c0106a8b:	8d 57 05             	lea    edx,[edi+0x5]
c0106a8e:	ee                   	out    dx,al
c0106a8f:	31 c0                	xor    eax,eax
c0106a91:	83 7e 0c 01          	cmp    DWORD PTR [esi+0xc],0x1
c0106a95:	0f 94 c0             	sete   al
c0106a98:	48                   	dec    eax
c0106a99:	83 e0 f0             	and    eax,0xfffffff0
c0106a9c:	83 c0 30             	add    eax,0x30
c0106a9f:	8d 5f 07             	lea    ebx,[edi+0x7]
c0106aa2:	66 89 5d c0          	mov    WORD PTR [ebp-0x40],bx
c0106aa6:	89 da                	mov    edx,ebx
c0106aa8:	ee                   	out    dx,al
c0106aa9:	83 ec 0c             	sub    esp,0xc
c0106aac:	ff 75 e4             	push   DWORD PTR [ebp-0x1c]
c0106aaf:	e8 48 fe ff ff       	call   c01068fc <ide_poll>
c0106ab4:	83 c4 10             	add    esp,0x10
c0106ab7:	31 db                	xor    ebx,ebx
c0106ab9:	83 7e 0c 01          	cmp    DWORD PTR [esi+0xc],0x1
c0106abd:	75 5f                	jne    c0106b1e <ide_io+0x1c1>
c0106abf:	8b 45 08             	mov    eax,DWORD PTR [ebp+0x8]
c0106ac2:	8b 40 10             	mov    eax,DWORD PTR [eax+0x10]
c0106ac5:	89 45 c8             	mov    DWORD PTR [ebp-0x38],eax
c0106ac8:	8b 4d e0             	mov    ecx,DWORD PTR [ebp-0x20]
c0106acb:	83 e0 fe             	and    eax,0xfffffffe
c0106ace:	01 c8                	add    eax,ecx
c0106ad0:	89 45 bc             	mov    DWORD PTR [ebp-0x44],eax
c0106ad3:	39 4d bc             	cmp    DWORD PTR [ebp-0x44],ecx
c0106ad6:	74 0c                	je     c0106ae4 <ide_io+0x187>
c0106ad8:	66 8b 01             	mov    ax,WORD PTR [ecx]
c0106adb:	89 fa                	mov    edx,edi
c0106add:	66 ef                	out    dx,ax
c0106adf:	83 c1 02             	add    ecx,0x2
c0106ae2:	eb ef                	jmp    c0106ad3 <ide_io+0x176>
c0106ae4:	43                   	inc    ebx
c0106ae5:	39 5d dc             	cmp    DWORD PTR [ebp-0x24],ebx
c0106ae8:	74 1b                	je     c0106b05 <ide_io+0x1a8>
c0106aea:	51                   	push   ecx
c0106aeb:	ff 75 c8             	push   DWORD PTR [ebp-0x38]
c0106aee:	56                   	push   esi
c0106aef:	ff 75 e0             	push   DWORD PTR [ebp-0x20]
c0106af2:	e8 07 e2 ff ff       	call   c0104cfe <uio_move>
c0106af7:	58                   	pop    eax
c0106af8:	ff 75 e4             	push   DWORD PTR [ebp-0x1c]
c0106afb:	e8 fc fd ff ff       	call   c01068fc <ide_poll>
c0106b00:	83 c4 10             	add    esp,0x10
c0106b03:	eb ba                	jmp    c0106abf <ide_io+0x162>
c0106b05:	b0 e7                	mov    al,0xe7
c0106b07:	8b 55 c0             	mov    edx,DWORD PTR [ebp-0x40]
c0106b0a:	ee                   	out    dx,al
c0106b0b:	83 ec 0c             	sub    esp,0xc
c0106b0e:	ff 75 e4             	push   DWORD PTR [ebp-0x1c]
c0106b11:	e8 e6 fd ff ff       	call   c01068fc <ide_poll>
c0106b16:	83 c4 10             	add    esp,0x10
c0106b19:	e9 91 00 00 00       	jmp    c0106baf <ide_io+0x252>
c0106b1e:	83 ec 0c             	sub    esp,0xc
c0106b21:	ff 75 e4             	push   DWORD PTR [ebp-0x1c]
c0106b24:	e8 7d fd ff ff       	call   c01068a6 <ide_check_errors>
c0106b29:	89 c3                	mov    ebx,eax
c0106b2b:	83 c4 10             	add    esp,0x10
c0106b2e:	85 c0                	test   eax,eax
c0106b30:	74 38                	je     c0106b6a <ide_io+0x20d>
c0106b32:	83 ec 0c             	sub    esp,0xc
c0106b35:	ff 35 b4 57 11 c0    	push   DWORD PTR ds:0xc01157b4
c0106b3b:	e8 57 c9 ff ff       	call   c0103497 <semaphore_release>
c0106b40:	83 c4 10             	add    esp,0x10
c0106b43:	e9 94 00 00 00       	jmp    c0106bdc <ide_io+0x27f>
c0106b48:	52                   	push   edx
c0106b49:	50                   	push   eax
c0106b4a:	56                   	push   esi
c0106b4b:	ff 75 e0             	push   DWORD PTR [ebp-0x20]
c0106b4e:	e8 ab e1 ff ff       	call   c0104cfe <uio_move>
c0106b53:	43                   	inc    ebx
c0106b54:	83 c4 10             	add    esp,0x10
c0106b57:	39 5d dc             	cmp    DWORD PTR [ebp-0x24],ebx
c0106b5a:	74 53                	je     c0106baf <ide_io+0x252>
c0106b5c:	83 ec 0c             	sub    esp,0xc
c0106b5f:	ff 75 e4             	push   DWORD PTR [ebp-0x1c]
c0106b62:	e8 95 fd ff ff       	call   c01068fc <ide_poll>
c0106b67:	83 c4 10             	add    esp,0x10
c0106b6a:	c7 45 c8 00 00 00 00 	mov    DWORD PTR [ebp-0x38],0x0
c0106b71:	c7 45 cc 00 00 00 00 	mov    DWORD PTR [ebp-0x34],0x0
c0106b78:	8b 45 08             	mov    eax,DWORD PTR [ebp+0x8]
c0106b7b:	8b 40 10             	mov    eax,DWORD PTR [eax+0x10]
c0106b7e:	89 c2                	mov    edx,eax
c0106b80:	d1 ea                	shr    edx,1
c0106b82:	89 55 c0             	mov    DWORD PTR [ebp-0x40],edx
c0106b85:	c7 45 c4 00 00 00 00 	mov    DWORD PTR [ebp-0x3c],0x0
c0106b8c:	39 55 c8             	cmp    DWORD PTR [ebp-0x38],edx
c0106b8f:	8b 4d cc             	mov    ecx,DWORD PTR [ebp-0x34]
c0106b92:	1b 4d c4             	sbb    ecx,DWORD PTR [ebp-0x3c]
c0106b95:	73 b1                	jae    c0106b48 <ide_io+0x1eb>
c0106b97:	89 fa                	mov    edx,edi
c0106b99:	66 ed                	in     ax,dx
c0106b9b:	8b 55 c8             	mov    edx,DWORD PTR [ebp-0x38]
c0106b9e:	8b 4d e0             	mov    ecx,DWORD PTR [ebp-0x20]
c0106ba1:	66 89 04 51          	mov    WORD PTR [ecx+edx*2],ax
c0106ba5:	83 45 c8 01          	add    DWORD PTR [ebp-0x38],0x1
c0106ba9:	83 55 cc 00          	adc    DWORD PTR [ebp-0x34],0x0
c0106bad:	eb c9                	jmp    c0106b78 <ide_io+0x21b>
c0106baf:	8b 5d dc             	mov    ebx,DWORD PTR [ebp-0x24]
c0106bb2:	29 5d d8             	sub    DWORD PTR [ebp-0x28],ebx
c0106bb5:	01 5d d4             	add    DWORD PTR [ebp-0x2c],ebx
c0106bb8:	83 7d d8 00          	cmp    DWORD PTR [ebp-0x28],0x0
c0106bbc:	0f 8f 5e fe ff ff    	jg     c0106a20 <ide_io+0xc3>
c0106bc2:	83 ec 0c             	sub    esp,0xc
c0106bc5:	ff 35 b4 57 11 c0    	push   DWORD PTR ds:0xc01157b4
c0106bcb:	e8 c7 c8 ff ff       	call   c0103497 <semaphore_release>
c0106bd0:	83 c4 10             	add    esp,0x10
c0106bd3:	31 db                	xor    ebx,ebx
c0106bd5:	eb 05                	jmp    c0106bdc <ide_io+0x27f>
c0106bd7:	bb 07 00 00 00       	mov    ebx,0x7
c0106bdc:	89 d8                	mov    eax,ebx
c0106bde:	8d 65 f4             	lea    esp,[ebp-0xc]
c0106be1:	5b                   	pop    ebx
c0106be2:	5e                   	pop    esi
c0106be3:	5f                   	pop    edi
c0106be4:	5d                   	pop    ebp
c0106be5:	c3                   	ret    

c0106be6 <ide_initialise>:
c0106be6:	55                   	push   ebp
c0106be7:	89 e5                	mov    ebp,esp
c0106be9:	57                   	push   edi
c0106bea:	56                   	push   esi
c0106beb:	53                   	push   ebx
c0106bec:	83 ec 1c             	sub    esp,0x1c
c0106bef:	83 3d b4 57 11 c0 00 	cmp    DWORD PTR ds:0xc01157b4,0x0
c0106bf6:	75 12                	jne    c0106c0a <ide_initialise+0x24>
c0106bf8:	83 ec 0c             	sub    esp,0xc
c0106bfb:	6a 01                	push   0x1
c0106bfd:	e8 a6 c7 ff ff       	call   c01033a8 <semaphore_create>
c0106c02:	a3 b4 57 11 c0       	mov    ds:0xc01157b4,eax
c0106c07:	83 c4 10             	add    esp,0x10
c0106c0a:	83 ec 0c             	sub    esp,0xc
c0106c0d:	6a 08                	push   0x8
c0106c0f:	e8 af b2 ff ff       	call   c0101ec3 <malloc>
c0106c14:	89 c3                	mov    ebx,eax
c0106c16:	c7 00 00 00 00 00    	mov    DWORD PTR [eax],0x0
c0106c1c:	c7 04 24 00 10 00 00 	mov    DWORD PTR [esp],0x1000
c0106c23:	e8 9b b2 ff ff       	call   c0101ec3 <malloc>
c0106c28:	89 43 04             	mov    DWORD PTR [ebx+0x4],eax
c0106c2b:	89 1d cc 57 11 c0    	mov    DWORD PTR ds:0xc01157cc,ebx
c0106c31:	c7 05 c8 57 11 c0 00 02 00 00 	mov    DWORD PTR ds:0xc01157c8,0x200
c0106c3b:	8b 1b                	mov    ebx,DWORD PTR [ebx]
c0106c3d:	5e                   	pop    esi
c0106c3e:	ff 35 b4 57 11 c0    	push   DWORD PTR ds:0xc01157b4
c0106c44:	e8 8d c7 ff ff       	call   c01033d6 <semaphore_acquire>
c0106c49:	83 c4 10             	add    esp,0x10
c0106c4c:	be 70 01 00 00       	mov    esi,0x170
c0106c51:	83 fb 01             	cmp    ebx,0x1
c0106c54:	7f 05                	jg     c0106c5b <ide_initialise+0x75>
c0106c56:	be f0 01 00 00       	mov    esi,0x1f0
c0106c5b:	8d 7e 06             	lea    edi,[esi+0x6]
c0106c5e:	89 d8                	mov    eax,ebx
c0106c60:	c1 e0 04             	shl    eax,0x4
c0106c63:	83 e0 10             	and    eax,0x10
c0106c66:	83 c8 e0             	or     eax,0xffffffe0
c0106c69:	89 fa                	mov    edx,edi
c0106c6b:	ee                   	out    dx,al
c0106c6c:	8d 56 07             	lea    edx,[esi+0x7]
c0106c6f:	b0 f8                	mov    al,0xf8
c0106c71:	ee                   	out    dx,al
c0106c72:	83 ec 0c             	sub    esp,0xc
c0106c75:	53                   	push   ebx
c0106c76:	e8 81 fc ff ff       	call   c01068fc <ide_poll>
c0106c7b:	8d 56 03             	lea    edx,[esi+0x3]
c0106c7e:	ec                   	in     al,dx
c0106c7f:	88 45 e7             	mov    BYTE PTR [ebp-0x19],al
c0106c82:	8d 56 04             	lea    edx,[esi+0x4]
c0106c85:	ec                   	in     al,dx
c0106c86:	0f b6 c8             	movzx  ecx,al
c0106c89:	8d 56 05             	lea    edx,[esi+0x5]
c0106c8c:	ec                   	in     al,dx
c0106c8d:	c1 e1 08             	shl    ecx,0x8
c0106c90:	0f b6 c0             	movzx  eax,al
c0106c93:	c1 e0 10             	shl    eax,0x10
c0106c96:	09 c1                	or     ecx,eax
c0106c98:	0f b6 5d e7          	movzx  ebx,BYTE PTR [ebp-0x19]
c0106c9c:	09 d9                	or     ecx,ebx
c0106c9e:	89 fa                	mov    edx,edi
c0106ca0:	ec                   	in     al,dx
c0106ca1:	88 c3                	mov    bl,al
c0106ca3:	c1 e3 18             	shl    ebx,0x18
c0106ca6:	81 e3 00 00 00 0f    	and    ebx,0xf000000
c0106cac:	09 cb                	or     ebx,ecx
c0106cae:	58                   	pop    eax
c0106caf:	ff 35 b4 57 11 c0    	push   DWORD PTR ds:0xc01157b4
c0106cb5:	e8 dd c7 ff ff       	call   c0103497 <semaphore_release>
c0106cba:	89 1d c4 57 11 c0    	mov    DWORD PTR ds:0xc01157c4,ebx
c0106cc0:	c7 05 c0 57 11 c0 5d 69 10 c0 	mov    DWORD PTR ds:0xc01157c0,0xc010695d
c0106cca:	c7 05 b8 57 11 c0 2e 19 10 c0 	mov    DWORD PTR ds:0xc01157b8,0xc010192e
c0106cd4:	c7 05 bc 57 11 c0 31 19 10 c0 	mov    DWORD PTR ds:0xc01157bc,0xc0101931
c0106cde:	5a                   	pop    edx
c0106cdf:	59                   	pop    ecx
c0106ce0:	68 bb 95 10 c0       	push   0xc01095bb
c0106ce5:	68 b8 57 11 c0       	push   0xc01157b8
c0106cea:	e8 5d e8 ff ff       	call   c010554c <vfs_add_device>
c0106cef:	83 c4 10             	add    esp,0x10
c0106cf2:	8d 65 f4             	lea    esp,[ebp-0xc]
c0106cf5:	5b                   	pop    ebx
c0106cf6:	5e                   	pop    esi
c0106cf7:	5f                   	pop    edi
c0106cf8:	5d                   	pop    ebp
c0106cf9:	c3                   	ret    

c0106cfa <pic_is_spurious>:
c0106cfa:	55                   	push   ebp
c0106cfb:	89 e5                	mov    ebp,esp
c0106cfd:	8b 45 08             	mov    eax,DWORD PTR [ebp+0x8]
c0106d00:	83 f8 27             	cmp    eax,0x27
c0106d03:	75 20                	jne    c0106d25 <pic_is_spurious+0x2b>
c0106d05:	b0 0b                	mov    al,0xb
c0106d07:	e6 20                	out    0x20,al
c0106d09:	e6 a0                	out    0xa0,al
c0106d0b:	e4 a0                	in     al,0xa0
c0106d0d:	88 c2                	mov    dl,al
c0106d0f:	e4 20                	in     al,0x20
c0106d11:	c1 e2 08             	shl    edx,0x8
c0106d14:	0f b6 c0             	movzx  eax,al
c0106d17:	09 c2                	or     edx,eax
c0106d19:	66 c1 ea 07          	shr    dx,0x7
c0106d1d:	83 f2 01             	xor    edx,0x1
c0106d20:	83 e2 01             	and    edx,0x1
c0106d23:	eb 1e                	jmp    c0106d43 <pic_is_spurious+0x49>
c0106d25:	31 d2                	xor    edx,edx
c0106d27:	83 f8 2f             	cmp    eax,0x2f
c0106d2a:	75 17                	jne    c0106d43 <pic_is_spurious+0x49>
c0106d2c:	b0 0b                	mov    al,0xb
c0106d2e:	e6 20                	out    0x20,al
c0106d30:	e6 a0                	out    0xa0,al
c0106d32:	e4 a0                	in     al,0xa0
c0106d34:	88 c1                	mov    cl,al
c0106d36:	e4 20                	in     al,0x20
c0106d38:	80 e1 80             	and    cl,0x80
c0106d3b:	75 06                	jne    c0106d43 <pic_is_spurious+0x49>
c0106d3d:	b0 20                	mov    al,0x20
c0106d3f:	e6 20                	out    0x20,al
c0106d41:	b2 01                	mov    dl,0x1
c0106d43:	88 d0                	mov    al,dl
c0106d45:	5d                   	pop    ebp
c0106d46:	c3                   	ret    

c0106d47 <pic_eoi>:
c0106d47:	55                   	push   ebp
c0106d48:	89 e5                	mov    ebp,esp
c0106d4a:	83 7d 08 27          	cmp    DWORD PTR [ebp+0x8],0x27
c0106d4e:	7e 04                	jle    c0106d54 <pic_eoi+0xd>
c0106d50:	b0 20                	mov    al,0x20
c0106d52:	e6 a0                	out    0xa0,al
c0106d54:	b0 20                	mov    al,0x20
c0106d56:	e6 20                	out    0x20,al
c0106d58:	5d                   	pop    ebp
c0106d59:	c3                   	ret    

c0106d5a <pic_initialise>:
c0106d5a:	e4 21                	in     al,0x21
c0106d5c:	88 c1                	mov    cl,al
c0106d5e:	e4 a1                	in     al,0xa1
c0106d60:	88 c2                	mov    dl,al
c0106d62:	b0 11                	mov    al,0x11
c0106d64:	e6 20                	out    0x20,al
c0106d66:	e6 a0                	out    0xa0,al
c0106d68:	b0 20                	mov    al,0x20
c0106d6a:	e6 21                	out    0x21,al
c0106d6c:	b0 28                	mov    al,0x28
c0106d6e:	e6 a1                	out    0xa1,al
c0106d70:	b0 04                	mov    al,0x4
c0106d72:	e6 21                	out    0x21,al
c0106d74:	b0 02                	mov    al,0x2
c0106d76:	e6 a1                	out    0xa1,al
c0106d78:	b0 01                	mov    al,0x1
c0106d7a:	e6 21                	out    0x21,al
c0106d7c:	e6 a1                	out    0xa1,al
c0106d7e:	88 c8                	mov    al,cl
c0106d80:	e6 21                	out    0x21,al
c0106d82:	88 d0                	mov    al,dl
c0106d84:	e6 a1                	out    0xa1,al
c0106d86:	31 c0                	xor    eax,eax
c0106d88:	e6 21                	out    0x21,al
c0106d8a:	e6 a1                	out    0xa1,al
c0106d8c:	c3                   	ret    

c0106d8d <pit_handler>:
c0106d8d:	55                   	push   ebp
c0106d8e:	89 e5                	mov    ebp,esp
c0106d90:	83 ec 18             	sub    esp,0x18
c0106d93:	ff 35 d4 57 11 c0    	push   DWORD PTR ds:0xc01157d4
c0106d99:	ff 35 d0 57 11 c0    	push   DWORD PTR ds:0xc01157d0
c0106d9f:	6a 00                	push   0x0
c0106da1:	68 00 ca 9a 3b       	push   0x3b9aca00
c0106da6:	e8 55 17 00 00       	call   c0108500 <__udivdi3>
c0106dab:	83 c4 18             	add    esp,0x18
c0106dae:	52                   	push   edx
c0106daf:	50                   	push   eax
c0106db0:	e8 7a d1 ff ff       	call   c0103f2f <thread_received_timer_interrupt_bsp>
c0106db5:	e8 ae d1 ff ff       	call   c0103f68 <thread_received_timer_interrupt>
c0106dba:	31 c0                	xor    eax,eax
c0106dbc:	c9                   	leave  
c0106dbd:	c3                   	ret    

c0106dbe <pit_initialise>:
c0106dbe:	55                   	push   ebp
c0106dbf:	89 e5                	mov    ebp,esp
c0106dc1:	53                   	push   ebx
c0106dc2:	83 ec 0c             	sub    esp,0xc
c0106dc5:	8b 5d 08             	mov    ebx,DWORD PTR [ebp+0x8]
c0106dc8:	89 1d d0 57 11 c0    	mov    DWORD PTR ds:0xc01157d0,ebx
c0106dce:	89 d8                	mov    eax,ebx
c0106dd0:	c1 f8 1f             	sar    eax,0x1f
c0106dd3:	a3 d4 57 11 c0       	mov    ds:0xc01157d4,eax
c0106dd8:	b8 dc 34 12 00       	mov    eax,0x1234dc
c0106ddd:	99                   	cdq    
c0106dde:	f7 fb                	idiv   ebx
c0106de0:	89 c1                	mov    ecx,eax
c0106de2:	b0 36                	mov    al,0x36
c0106de4:	e6 43                	out    0x43,al
c0106de6:	88 c8                	mov    al,cl
c0106de8:	e6 40                	out    0x40,al
c0106dea:	89 c8                	mov    eax,ecx
c0106dec:	c1 f8 08             	sar    eax,0x8
c0106def:	e6 40                	out    0x40,al
c0106df1:	68 8d 6d 10 c0       	push   0xc0106d8d
c0106df6:	6a 20                	push   0x20
c0106df8:	e8 66 09 00 00       	call   c0107763 <x86_register_interrupt_handler>
c0106dfd:	83 c4 10             	add    esp,0x10
c0106e00:	8b 5d fc             	mov    ebx,DWORD PTR [ebp-0x4]
c0106e03:	c9                   	leave  
c0106e04:	c3                   	ret    

c0106e05 <elf_load_program_headers>:
c0106e05:	55                   	push   ebp
c0106e06:	89 e5                	mov    ebp,esp
c0106e08:	57                   	push   edi
c0106e09:	56                   	push   esi
c0106e0a:	53                   	push   ebx
c0106e0b:	83 ec 3c             	sub    esp,0x3c
c0106e0e:	89 45 d8             	mov    DWORD PTR [ebp-0x28],eax
c0106e11:	89 55 c4             	mov    DWORD PTR [ebp-0x3c],edx
c0106e14:	88 4d c3             	mov    BYTE PTR [ebp-0x3d],cl
c0106e17:	80 f9 01             	cmp    cl,0x1
c0106e1a:	19 c0                	sbb    eax,eax
c0106e1c:	89 45 e4             	mov    DWORD PTR [ebp-0x1c],eax
c0106e1f:	81 65 e4 00 00 00 40 	and    DWORD PTR [ebp-0x1c],0x40000000
c0106e26:	81 6d e4 00 00 00 30 	sub    DWORD PTR [ebp-0x1c],0x30000000
c0106e2d:	8b 45 d8             	mov    eax,DWORD PTR [ebp-0x28]
c0106e30:	8b 70 1c             	mov    esi,DWORD PTR [eax+0x1c]
c0106e33:	01 c6                	add    esi,eax
c0106e35:	8b 45 e4             	mov    eax,DWORD PTR [ebp-0x1c]
c0106e38:	89 45 d4             	mov    DWORD PTR [ebp-0x2c],eax
c0106e3b:	c7 45 d0 00 00 00 00 	mov    DWORD PTR [ebp-0x30],0x0
c0106e42:	8b 45 d8             	mov    eax,DWORD PTR [ebp-0x28]
c0106e45:	0f b7 40 2c          	movzx  eax,WORD PTR [eax+0x2c]
c0106e49:	3b 45 d0             	cmp    eax,DWORD PTR [ebp-0x30]
c0106e4c:	0f 8e b9 00 00 00    	jle    c0106f0b <elf_load_program_headers+0x106>
c0106e52:	83 3e 01             	cmp    DWORD PTR [esi],0x1
c0106e55:	0f 85 a5 00 00 00    	jne    c0106f00 <elf_load_program_headers+0xfb>
c0106e5b:	8b 46 08             	mov    eax,DWORD PTR [esi+0x8]
c0106e5e:	89 45 e0             	mov    DWORD PTR [ebp-0x20],eax
c0106e61:	8b 46 10             	mov    eax,DWORD PTR [esi+0x10]
c0106e64:	89 45 dc             	mov    DWORD PTR [ebp-0x24],eax
c0106e67:	8b 7e 14             	mov    edi,DWORD PTR [esi+0x14]
c0106e6a:	8b 45 d8             	mov    eax,DWORD PTR [ebp-0x28]
c0106e6d:	03 46 04             	add    eax,DWORD PTR [esi+0x4]
c0106e70:	89 45 cc             	mov    DWORD PTR [ebp-0x34],eax
c0106e73:	80 7d c3 00          	cmp    BYTE PTR [ebp-0x3d],0x0
c0106e77:	75 5a                	jne    c0106ed3 <elf_load_program_headers+0xce>
c0106e79:	83 ec 0c             	sub    esp,0xc
c0106e7c:	57                   	push   edi
c0106e7d:	e8 94 b8 ff ff       	call   c0102716 <virt_bytes_to_pages>
c0106e82:	89 45 c8             	mov    DWORD PTR [ebp-0x38],eax
c0106e85:	83 c4 10             	add    esp,0x10
c0106e88:	31 db                	xor    ebx,ebx
c0106e8a:	3b 5d c8             	cmp    ebx,DWORD PTR [ebp-0x38]
c0106e8d:	74 1d                	je     c0106eac <elf_load_program_headers+0xa7>
c0106e8f:	89 df                	mov    edi,ebx
c0106e91:	c1 e7 0c             	shl    edi,0xc
c0106e94:	03 7d e0             	add    edi,DWORD PTR [ebp-0x20]
c0106e97:	e8 8a b5 ff ff       	call   c0102426 <vas_get_current_vas>
c0106e9c:	51                   	push   ecx
c0106e9d:	6a 45                	push   0x45
c0106e9f:	57                   	push   edi
c0106ea0:	50                   	push   eax
c0106ea1:	e8 aa b6 ff ff       	call   c0102550 <vas_reflag>
c0106ea6:	43                   	inc    ebx
c0106ea7:	83 c4 10             	add    esp,0x10
c0106eaa:	eb de                	jmp    c0106e8a <elf_load_program_headers+0x85>
c0106eac:	e8 7e b5 ff ff       	call   c010242f <vas_flush_tlb>
c0106eb1:	52                   	push   edx
c0106eb2:	ff 75 dc             	push   DWORD PTR [ebp-0x24]
c0106eb5:	ff 75 cc             	push   DWORD PTR [ebp-0x34]
c0106eb8:	ff 75 e0             	push   DWORD PTR [ebp-0x20]
c0106ebb:	e8 56 a3 ff ff       	call   c0101216 <memcpy>
c0106ec0:	c1 e3 0c             	shl    ebx,0xc
c0106ec3:	03 5d e0             	add    ebx,DWORD PTR [ebp-0x20]
c0106ec6:	83 c4 10             	add    esp,0x10
c0106ec9:	39 5d d4             	cmp    DWORD PTR [ebp-0x2c],ebx
c0106ecc:	73 32                	jae    c0106f00 <elf_load_program_headers+0xfb>
c0106ece:	89 5d d4             	mov    DWORD PTR [ebp-0x2c],ebx
c0106ed1:	eb 2d                	jmp    c0106f00 <elf_load_program_headers+0xfb>
c0106ed3:	8b 5d c4             	mov    ebx,DWORD PTR [ebp-0x3c]
c0106ed6:	2b 5d e4             	sub    ebx,DWORD PTR [ebp-0x1c]
c0106ed9:	03 5d e0             	add    ebx,DWORD PTR [ebp-0x20]
c0106edc:	50                   	push   eax
c0106edd:	ff 75 dc             	push   DWORD PTR [ebp-0x24]
c0106ee0:	ff 75 cc             	push   DWORD PTR [ebp-0x34]
c0106ee3:	53                   	push   ebx
c0106ee4:	e8 2d a3 ff ff       	call   c0101216 <memcpy>
c0106ee9:	83 c4 0c             	add    esp,0xc
c0106eec:	2b 7d dc             	sub    edi,DWORD PTR [ebp-0x24]
c0106eef:	57                   	push   edi
c0106ef0:	6a 00                	push   0x0
c0106ef2:	8b 45 dc             	mov    eax,DWORD PTR [ebp-0x24]
c0106ef5:	01 d8                	add    eax,ebx
c0106ef7:	50                   	push   eax
c0106ef8:	e8 5e a3 ff ff       	call   c010125b <memset>
c0106efd:	83 c4 10             	add    esp,0x10
c0106f00:	ff 45 d0             	inc    DWORD PTR [ebp-0x30]
c0106f03:	83 c6 20             	add    esi,0x20
c0106f06:	e9 37 ff ff ff       	jmp    c0106e42 <elf_load_program_headers+0x3d>
c0106f0b:	8b 45 d4             	mov    eax,DWORD PTR [ebp-0x2c]
c0106f0e:	8d 65 f4             	lea    esp,[ebp-0xc]
c0106f11:	5b                   	pop    ebx
c0106f12:	5e                   	pop    esi
c0106f13:	5f                   	pop    edi
c0106f14:	5d                   	pop    ebp
c0106f15:	c3                   	ret    

c0106f16 <elf_perform_relocations>:
c0106f16:	55                   	push   ebp
c0106f17:	89 e5                	mov    ebp,esp
c0106f19:	57                   	push   edi
c0106f1a:	56                   	push   esi
c0106f1b:	53                   	push   ebx
c0106f1c:	83 ec 3c             	sub    esp,0x3c
c0106f1f:	89 c7                	mov    edi,eax
c0106f21:	89 55 cc             	mov    DWORD PTR [ebp-0x34],edx
c0106f24:	03 40 20             	add    eax,DWORD PTR [eax+0x20]
c0106f27:	89 45 e4             	mov    DWORD PTR [ebp-0x1c],eax
c0106f2a:	c7 45 d8 00 00 00 00 	mov    DWORD PTR [ebp-0x28],0x0
c0106f31:	0f b7 47 30          	movzx  eax,WORD PTR [edi+0x30]
c0106f35:	3b 45 d8             	cmp    eax,DWORD PTR [ebp-0x28]
c0106f38:	0f 8e 8d 01 00 00    	jle    c01070cb <elf_perform_relocations+0x1b5>
c0106f3e:	8b 45 e4             	mov    eax,DWORD PTR [ebp-0x1c]
c0106f41:	8b 40 04             	mov    eax,DWORD PTR [eax+0x4]
c0106f44:	83 f8 09             	cmp    eax,0x9
c0106f47:	0f 85 60 01 00 00    	jne    c01070ad <elf_perform_relocations+0x197>
c0106f4d:	8b 45 e4             	mov    eax,DWORD PTR [ebp-0x1c]
c0106f50:	8b 58 10             	mov    ebx,DWORD PTR [eax+0x10]
c0106f53:	8b 40 14             	mov    eax,DWORD PTR [eax+0x14]
c0106f56:	89 45 dc             	mov    DWORD PTR [ebp-0x24],eax
c0106f59:	8b 45 e4             	mov    eax,DWORD PTR [ebp-0x1c]
c0106f5c:	8b 70 24             	mov    esi,DWORD PTR [eax+0x24]
c0106f5f:	8b 08                	mov    ecx,DWORD PTR [eax]
c0106f61:	0f b7 47 32          	movzx  eax,WORD PTR [edi+0x32]
c0106f65:	31 d2                	xor    edx,edx
c0106f67:	66 85 c0             	test   ax,ax
c0106f6a:	74 11                	je     c0106f7d <elf_perform_relocations+0x67>
c0106f6c:	6b c0 28             	imul   eax,eax,0x28
c0106f6f:	01 f8                	add    eax,edi
c0106f71:	03 47 20             	add    eax,DWORD PTR [edi+0x20]
c0106f74:	89 fa                	mov    edx,edi
c0106f76:	03 50 10             	add    edx,DWORD PTR [eax+0x10]
c0106f79:	74 02                	je     c0106f7d <elf_perform_relocations+0x67>
c0106f7b:	01 ca                	add    edx,ecx
c0106f7d:	51                   	push   ecx
c0106f7e:	51                   	push   ecx
c0106f7f:	68 27 9c 10 c0       	push   0xc0109c27
c0106f84:	52                   	push   edx
c0106f85:	e8 23 a3 ff ff       	call   c01012ad <strcmp>
c0106f8a:	83 c4 10             	add    esp,0x10
c0106f8d:	85 c0                	test   eax,eax
c0106f8f:	0f 85 2a 01 00 00    	jne    c01070bf <elf_perform_relocations+0x1a9>
c0106f95:	8d 04 1f             	lea    eax,[edi+ebx*1]
c0106f98:	89 45 e0             	mov    DWORD PTR [ebp-0x20],eax
c0106f9b:	8b 45 dc             	mov    eax,DWORD PTR [ebp-0x24]
c0106f9e:	31 d2                	xor    edx,edx
c0106fa0:	f7 f6                	div    esi
c0106fa2:	89 45 c8             	mov    DWORD PTR [ebp-0x38],eax
c0106fa5:	c7 45 d4 00 00 00 00 	mov    DWORD PTR [ebp-0x2c],0x0
c0106fac:	8b 75 c8             	mov    esi,DWORD PTR [ebp-0x38]
c0106faf:	39 75 d4             	cmp    DWORD PTR [ebp-0x2c],esi
c0106fb2:	0f 8d 07 01 00 00    	jge    c01070bf <elf_perform_relocations+0x1a9>
c0106fb8:	8b 45 cc             	mov    eax,DWORD PTR [ebp-0x34]
c0106fbb:	05 00 00 00 30       	add    eax,0x30000000
c0106fc0:	89 45 dc             	mov    DWORD PTR [ebp-0x24],eax
c0106fc3:	8b 45 e0             	mov    eax,DWORD PTR [ebp-0x20]
c0106fc6:	8b 75 dc             	mov    esi,DWORD PTR [ebp-0x24]
c0106fc9:	03 30                	add    esi,DWORD PTR [eax]
c0106fcb:	8b 40 04             	mov    eax,DWORD PTR [eax+0x4]
c0106fce:	89 45 d0             	mov    DWORD PTR [ebp-0x30],eax
c0106fd1:	89 c1                	mov    ecx,eax
c0106fd3:	c1 e9 08             	shr    ecx,0x8
c0106fd6:	75 07                	jne    c0106fdf <elf_perform_relocations+0xc9>
c0106fd8:	31 c0                	xor    eax,eax
c0106fda:	e9 99 00 00 00       	jmp    c0107078 <elf_perform_relocations+0x162>
c0106fdf:	8b 45 e4             	mov    eax,DWORD PTR [ebp-0x1c]
c0106fe2:	8b 58 18             	mov    ebx,DWORD PTR [eax+0x18]
c0106fe5:	85 db                	test   ebx,ebx
c0106fe7:	75 07                	jne    c0106ff0 <elf_perform_relocations+0xda>
c0106fe9:	31 c0                	xor    eax,eax
c0106feb:	e9 dd 00 00 00       	jmp    c01070cd <elf_perform_relocations+0x1b7>
c0106ff0:	8b 47 20             	mov    eax,DWORD PTR [edi+0x20]
c0106ff3:	01 f8                	add    eax,edi
c0106ff5:	89 45 d0             	mov    DWORD PTR [ebp-0x30],eax
c0106ff8:	6b db 28             	imul   ebx,ebx,0x28
c0106ffb:	01 c3                	add    ebx,eax
c0106ffd:	8b 43 14             	mov    eax,DWORD PTR [ebx+0x14]
c0107000:	31 d2                	xor    edx,edx
c0107002:	f7 73 24             	div    DWORD PTR [ebx+0x24]
c0107005:	39 c1                	cmp    ecx,eax
c0107007:	73 e0                	jae    c0106fe9 <elf_perform_relocations+0xd3>
c0107009:	c1 e1 04             	shl    ecx,0x4
c010700c:	03 4b 10             	add    ecx,DWORD PTR [ebx+0x10]
c010700f:	01 f9                	add    ecx,edi
c0107011:	66 8b 51 0e          	mov    dx,WORD PTR [ecx+0xe]
c0107015:	66 85 d2             	test   dx,dx
c0107018:	75 4e                	jne    c0107068 <elf_perform_relocations+0x152>
c010701a:	6b 53 18 28          	imul   edx,DWORD PTR [ebx+0x18],0x28
c010701e:	8b 01                	mov    eax,DWORD PTR [ecx]
c0107020:	01 f8                	add    eax,edi
c0107022:	89 4d c4             	mov    DWORD PTR [ebp-0x3c],ecx
c0107025:	8b 5d d0             	mov    ebx,DWORD PTR [ebp-0x30]
c0107028:	03 44 13 10          	add    eax,DWORD PTR [ebx+edx*1+0x10]
c010702c:	83 ec 0c             	sub    esp,0xc
c010702f:	50                   	push   eax
c0107030:	89 45 d0             	mov    DWORD PTR [ebp-0x30],eax
c0107033:	e8 d5 04 00 00       	call   c010750d <ksymbol_get_address_from_name>
c0107038:	83 c4 10             	add    esp,0x10
c010703b:	85 c0                	test   eax,eax
c010703d:	75 39                	jne    c0107078 <elf_perform_relocations+0x162>
c010703f:	8b 4d c4             	mov    ecx,DWORD PTR [ebp-0x3c]
c0107042:	8a 59 0c             	mov    bl,BYTE PTR [ecx+0xc]
c0107045:	c0 eb 04             	shr    bl,0x4
c0107048:	83 e3 02             	and    ebx,0x2
c010704b:	50                   	push   eax
c010704c:	50                   	push   eax
c010704d:	8b 55 d0             	mov    edx,DWORD PTR [ebp-0x30]
c0107050:	52                   	push   edx
c0107051:	68 30 9c 10 c0       	push   0xc0109c30
c0107056:	e8 5f d8 ff ff       	call   c01048ba <kprintf>
c010705b:	83 c4 10             	add    esp,0x10
c010705e:	84 db                	test   bl,bl
c0107060:	0f 85 72 ff ff ff    	jne    c0106fd8 <elf_perform_relocations+0xc2>
c0107066:	eb 81                	jmp    c0106fe9 <elf_perform_relocations+0xd3>
c0107068:	8b 49 04             	mov    ecx,DWORD PTR [ecx+0x4]
c010706b:	8b 45 dc             	mov    eax,DWORD PTR [ebp-0x24]
c010706e:	01 c8                	add    eax,ecx
c0107070:	66 83 fa f1          	cmp    dx,0xfff1
c0107074:	75 02                	jne    c0107078 <elf_perform_relocations+0x162>
c0107076:	89 c8                	mov    eax,ecx
c0107078:	8b 5d e0             	mov    ebx,DWORD PTR [ebp-0x20]
c010707b:	0f b6 53 04          	movzx  edx,BYTE PTR [ebx+0x4]
c010707f:	83 fa 01             	cmp    edx,0x1
c0107082:	74 1b                	je     c010709f <elf_perform_relocations+0x189>
c0107084:	83 fa 02             	cmp    edx,0x2
c0107087:	75 0a                	jne    c0107093 <elf_perform_relocations+0x17d>
c0107089:	8b 16                	mov    edx,DWORD PTR [esi]
c010708b:	29 f2                	sub    edx,esi
c010708d:	01 d0                	add    eax,edx
c010708f:	89 06                	mov    DWORD PTR [esi],eax
c0107091:	eb 0e                	jmp    c01070a1 <elf_perform_relocations+0x18b>
c0107093:	83 fa 08             	cmp    edx,0x8
c0107096:	0f 85 4d ff ff ff    	jne    c0106fe9 <elf_perform_relocations+0xd3>
c010709c:	8b 45 dc             	mov    eax,DWORD PTR [ebp-0x24]
c010709f:	01 06                	add    DWORD PTR [esi],eax
c01070a1:	ff 45 d4             	inc    DWORD PTR [ebp-0x2c]
c01070a4:	83 45 e0 08          	add    DWORD PTR [ebp-0x20],0x8
c01070a8:	e9 ff fe ff ff       	jmp    c0106fac <elf_perform_relocations+0x96>
c01070ad:	83 f8 04             	cmp    eax,0x4
c01070b0:	75 0d                	jne    c01070bf <elf_perform_relocations+0x1a9>
c01070b2:	83 ec 0c             	sub    esp,0xc
c01070b5:	68 44 9c 10 c0       	push   0xc0109c44
c01070ba:	e8 b5 d9 ff ff       	call   c0104a74 <panic>
c01070bf:	ff 45 d8             	inc    DWORD PTR [ebp-0x28]
c01070c2:	83 45 e4 28          	add    DWORD PTR [ebp-0x1c],0x28
c01070c6:	e9 66 fe ff ff       	jmp    c0106f31 <elf_perform_relocations+0x1b>
c01070cb:	b0 01                	mov    al,0x1
c01070cd:	8d 65 f4             	lea    esp,[ebp-0xc]
c01070d0:	5b                   	pop    ebx
c01070d1:	5e                   	pop    esi
c01070d2:	5f                   	pop    edi
c01070d3:	5d                   	pop    ebp
c01070d4:	c3                   	ret    

c01070d5 <is_elf_valid>:
c01070d5:	55                   	push   ebp
c01070d6:	89 e5                	mov    ebp,esp
c01070d8:	8b 55 08             	mov    edx,DWORD PTR [ebp+0x8]
c01070db:	31 c0                	xor    eax,eax
c01070dd:	80 3a 7f             	cmp    BYTE PTR [edx],0x7f
c01070e0:	75 13                	jne    c01070f5 <is_elf_valid+0x20>
c01070e2:	80 7a 01 45          	cmp    BYTE PTR [edx+0x1],0x45
c01070e6:	75 0d                	jne    c01070f5 <is_elf_valid+0x20>
c01070e8:	80 7a 02 4c          	cmp    BYTE PTR [edx+0x2],0x4c
c01070ec:	75 07                	jne    c01070f5 <is_elf_valid+0x20>
c01070ee:	80 7a 03 46          	cmp    BYTE PTR [edx+0x3],0x46
c01070f2:	0f 94 c0             	sete   al
c01070f5:	5d                   	pop    ebp
c01070f6:	c3                   	ret    

c01070f7 <arch_load_driver>:
c01070f7:	55                   	push   ebp
c01070f8:	89 e5                	mov    ebp,esp
c01070fa:	56                   	push   esi
c01070fb:	53                   	push   ebx
c01070fc:	8b 5d 08             	mov    ebx,DWORD PTR [ebp+0x8]
c01070ff:	8b 75 10             	mov    esi,DWORD PTR [ebp+0x10]
c0107102:	83 ec 0c             	sub    esp,0xc
c0107105:	53                   	push   ebx
c0107106:	e8 ca ff ff ff       	call   c01070d5 <is_elf_valid>
c010710b:	83 c4 10             	add    esp,0x10
c010710e:	84 c0                	test   al,al
c0107110:	75 04                	jne    c0107116 <arch_load_driver+0x1f>
c0107112:	31 c0                	xor    eax,eax
c0107114:	eb 33                	jmp    c0107149 <arch_load_driver+0x52>
c0107116:	66 83 7b 30 00       	cmp    WORD PTR [ebx+0x30],0x0
c010711b:	74 f5                	je     c0107112 <arch_load_driver+0x1b>
c010711d:	66 83 7b 2c 00       	cmp    WORD PTR [ebx+0x2c],0x0
c0107122:	74 ee                	je     c0107112 <arch_load_driver+0x1b>
c0107124:	b9 01 00 00 00       	mov    ecx,0x1
c0107129:	89 f2                	mov    edx,esi
c010712b:	89 d8                	mov    eax,ebx
c010712d:	e8 d3 fc ff ff       	call   c0106e05 <elf_load_program_headers>
c0107132:	89 f2                	mov    edx,esi
c0107134:	89 d8                	mov    eax,ebx
c0107136:	e8 db fd ff ff       	call   c0106f16 <elf_perform_relocations>
c010713b:	84 c0                	test   al,al
c010713d:	74 d3                	je     c0107112 <arch_load_driver+0x1b>
c010713f:	8b 43 18             	mov    eax,DWORD PTR [ebx+0x18]
c0107142:	8d 84 06 00 00 00 30 	lea    eax,[esi+eax*1+0x30000000]
c0107149:	8d 65 f8             	lea    esp,[ebp-0x8]
c010714c:	5b                   	pop    ebx
c010714d:	5e                   	pop    esi
c010714e:	5d                   	pop    ebp
c010714f:	c3                   	ret    

c0107150 <arch_start_driver>:
c0107150:	55                   	push   ebp
c0107151:	89 e5                	mov    ebp,esp
c0107153:	83 ec 08             	sub    esp,0x8
c0107156:	8b 55 08             	mov    edx,DWORD PTR [ebp+0x8]
c0107159:	b8 07 00 00 00       	mov    eax,0x7
c010715e:	85 d2                	test   edx,edx
c0107160:	74 0d                	je     c010716f <arch_start_driver+0x1f>
c0107162:	83 ec 0c             	sub    esp,0xc
c0107165:	ff 75 0c             	push   DWORD PTR [ebp+0xc]
c0107168:	ff d2                	call   edx
c010716a:	83 c4 10             	add    esp,0x10
c010716d:	31 c0                	xor    eax,eax
c010716f:	c9                   	leave  
c0107170:	c3                   	ret    

c0107171 <arch_exec>:
c0107171:	55                   	push   ebp
c0107172:	89 e5                	mov    ebp,esp
c0107174:	53                   	push   ebx
c0107175:	83 ec 10             	sub    esp,0x10
c0107178:	8b 5d 08             	mov    ebx,DWORD PTR [ebp+0x8]
c010717b:	53                   	push   ebx
c010717c:	e8 54 ff ff ff       	call   c01070d5 <is_elf_valid>
c0107181:	83 c4 10             	add    esp,0x10
c0107184:	84 c0                	test   al,al
c0107186:	75 07                	jne    c010718f <arch_exec+0x1e>
c0107188:	b8 07 00 00 00       	mov    eax,0x7
c010718d:	eb 25                	jmp    c01071b4 <arch_exec+0x43>
c010718f:	66 83 7b 2c 00       	cmp    WORD PTR [ebx+0x2c],0x0
c0107194:	74 f2                	je     c0107188 <arch_exec+0x17>
c0107196:	31 c9                	xor    ecx,ecx
c0107198:	31 d2                	xor    edx,edx
c010719a:	89 d8                	mov    eax,ebx
c010719c:	e8 64 fc ff ff       	call   c0106e05 <elf_load_program_headers>
c01071a1:	8b 4b 18             	mov    ecx,DWORD PTR [ebx+0x18]
c01071a4:	8b 55 10             	mov    edx,DWORD PTR [ebp+0x10]
c01071a7:	89 0a                	mov    DWORD PTR [edx],ecx
c01071a9:	85 c0                	test   eax,eax
c01071ab:	74 db                	je     c0107188 <arch_exec+0x17>
c01071ad:	8b 55 14             	mov    edx,DWORD PTR [ebp+0x14]
c01071b0:	89 02                	mov    DWORD PTR [edx],eax
c01071b2:	31 c0                	xor    eax,eax
c01071b4:	8b 5d fc             	mov    ebx,DWORD PTR [ebp-0x4]
c01071b7:	c9                   	leave  
c01071b8:	c3                   	ret    

c01071b9 <ksymbol_add_symbol>:
c01071b9:	55                   	push   ebp
c01071ba:	89 e5                	mov    ebp,esp
c01071bc:	83 ec 08             	sub    esp,0x8
c01071bf:	83 3d d8 57 11 c0 00 	cmp    DWORD PTR ds:0xc01157d8,0x0
c01071c6:	75 05                	jne    c01071cd <ksymbol_add_symbol+0x14>
c01071c8:	e8 17 00 00 00       	call   c01071e4 <ksymbol_init>
c01071cd:	50                   	push   eax
c01071ce:	ff 75 0c             	push   DWORD PTR [ebp+0xc]
c01071d1:	ff 75 08             	push   DWORD PTR [ebp+0x8]
c01071d4:	ff 35 d8 57 11 c0    	push   DWORD PTR ds:0xc01157d8
c01071da:	e8 14 d1 ff ff       	call   c01042f3 <adt_hashmap_add>
c01071df:	83 c4 10             	add    esp,0x10
c01071e2:	c9                   	leave  
c01071e3:	c3                   	ret    

c01071e4 <ksymbol_init>:
c01071e4:	55                   	push   ebp
c01071e5:	89 e5                	mov    ebp,esp
c01071e7:	57                   	push   edi
c01071e8:	56                   	push   esi
c01071e9:	53                   	push   ebx
c01071ea:	81 ec 90 00 00 00    	sub    esp,0x90
c01071f0:	68 07 44 10 c0       	push   0xc0104407
c01071f5:	68 ea 43 10 c0       	push   0xc01043ea
c01071fa:	68 00 02 00 00       	push   0x200
c01071ff:	e8 17 d0 ff ff       	call   c010421b <adt_hashmap_create>
c0107204:	a3 d8 57 11 c0       	mov    ds:0xc01157d8,eax
c0107209:	8d 45 b0             	lea    eax,[ebp-0x50]
c010720c:	50                   	push   eax
c010720d:	6a 00                	push   0x0
c010720f:	6a 20                	push   0x20
c0107211:	68 67 9c 10 c0       	push   0xc0109c67
c0107216:	e8 ec e4 ff ff       	call   c0105707 <vfs_open>
c010721b:	83 c4 20             	add    esp,0x20
c010721e:	85 c0                	test   eax,eax
c0107220:	0f 85 da 02 00 00    	jne    c0107500 <ksymbol_init+0x31c>
c0107226:	83 ec 0c             	sub    esp,0xc
c0107229:	6a 34                	push   0x34
c010722b:	e8 93 ac ff ff       	call   c0101ec3 <malloc>
c0107230:	89 c3                	mov    ebx,eax
c0107232:	8d 75 b4             	lea    esi,[ebp-0x4c]
c0107235:	58                   	pop    eax
c0107236:	5a                   	pop    edx
c0107237:	6a 00                	push   0x0
c0107239:	6a 00                	push   0x0
c010723b:	6a 00                	push   0x0
c010723d:	6a 34                	push   0x34
c010723f:	53                   	push   ebx
c0107240:	56                   	push   esi
c0107241:	e8 fd db ff ff       	call   c0104e43 <uio_construct>
c0107246:	89 34 24             	mov    DWORD PTR [esp],esi
c0107249:	ff 75 b0             	push   DWORD PTR [ebp-0x50]
c010724c:	e8 26 e6 ff ff       	call   c0105877 <vfs_read>
c0107251:	83 c4 20             	add    esp,0x20
c0107254:	85 c0                	test   eax,eax
c0107256:	0f 85 a4 02 00 00    	jne    c0107500 <ksymbol_init+0x31c>
c010725c:	83 ec 0c             	sub    esp,0xc
c010725f:	53                   	push   ebx
c0107260:	e8 70 fe ff ff       	call   c01070d5 <is_elf_valid>
c0107265:	83 c4 10             	add    esp,0x10
c0107268:	84 c0                	test   al,al
c010726a:	0f 84 90 02 00 00    	je     c0107500 <ksymbol_init+0x31c>
c0107270:	83 7b 20 00          	cmp    DWORD PTR [ebx+0x20],0x0
c0107274:	0f 84 86 02 00 00    	je     c0107500 <ksymbol_init+0x31c>
c010727a:	83 ec 0c             	sub    esp,0xc
c010727d:	0f b7 43 30          	movzx  eax,WORD PTR [ebx+0x30]
c0107281:	0f b7 53 2e          	movzx  edx,WORD PTR [ebx+0x2e]
c0107285:	0f af c2             	imul   eax,edx
c0107288:	50                   	push   eax
c0107289:	e8 35 ac ff ff       	call   c0101ec3 <malloc>
c010728e:	89 85 7c ff ff ff    	mov    DWORD PTR [ebp-0x84],eax
c0107294:	89 45 b4             	mov    DWORD PTR [ebp-0x4c],eax
c0107297:	8b 43 20             	mov    eax,DWORD PTR [ebx+0x20]
c010729a:	89 45 bc             	mov    DWORD PTR [ebp-0x44],eax
c010729d:	0f b7 43 30          	movzx  eax,WORD PTR [ebx+0x30]
c01072a1:	0f b7 53 2e          	movzx  edx,WORD PTR [ebx+0x2e]
c01072a5:	0f af c2             	imul   eax,edx
c01072a8:	89 45 b8             	mov    DWORD PTR [ebp-0x48],eax
c01072ab:	59                   	pop    ecx
c01072ac:	5f                   	pop    edi
c01072ad:	56                   	push   esi
c01072ae:	ff 75 b0             	push   DWORD PTR [ebp-0x50]
c01072b1:	e8 c1 e5 ff ff       	call   c0105877 <vfs_read>
c01072b6:	89 85 78 ff ff ff    	mov    DWORD PTR [ebp-0x88],eax
c01072bc:	83 c4 10             	add    esp,0x10
c01072bf:	85 c0                	test   eax,eax
c01072c1:	0f 85 39 02 00 00    	jne    c0107500 <ksymbol_init+0x31c>
c01072c7:	8b bd 7c ff ff ff    	mov    edi,DWORD PTR [ebp-0x84]
c01072cd:	c7 45 80 00 00 00 00 	mov    DWORD PTR [ebp-0x80],0x0
c01072d4:	c7 85 70 ff ff ff 00 00 00 00 	mov    DWORD PTR [ebp-0x90],0x0
c01072de:	c7 45 84 00 00 00 00 	mov    DWORD PTR [ebp-0x7c],0x0
c01072e5:	c7 85 74 ff ff ff 00 00 00 00 	mov    DWORD PTR [ebp-0x8c],0x0
c01072ef:	0f b7 43 30          	movzx  eax,WORD PTR [ebx+0x30]
c01072f3:	3b 85 78 ff ff ff    	cmp    eax,DWORD PTR [ebp-0x88]
c01072f9:	0f 8e b8 00 00 00    	jle    c01073b7 <ksymbol_init+0x1d3>
c01072ff:	8b 47 10             	mov    eax,DWORD PTR [edi+0x10]
c0107302:	89 85 6c ff ff ff    	mov    DWORD PTR [ebp-0x94],eax
c0107308:	0f b7 43 32          	movzx  eax,WORD PTR [ebx+0x32]
c010730c:	6b c0 28             	imul   eax,eax,0x28
c010730f:	8b 0f                	mov    ecx,DWORD PTR [edi]
c0107311:	8b 95 7c ff ff ff    	mov    edx,DWORD PTR [ebp-0x84]
c0107317:	03 4c 02 10          	add    ecx,DWORD PTR [edx+eax*1+0x10]
c010731b:	89 8d 68 ff ff ff    	mov    DWORD PTR [ebp-0x98],ecx
c0107321:	50                   	push   eax
c0107322:	6a 20                	push   0x20
c0107324:	6a 00                	push   0x0
c0107326:	8d 75 c8             	lea    esi,[ebp-0x38]
c0107329:	56                   	push   esi
c010732a:	e8 2c 9f ff ff       	call   c010125b <memset>
c010732f:	89 75 b4             	mov    DWORD PTR [ebp-0x4c],esi
c0107332:	8b 8d 68 ff ff ff    	mov    ecx,DWORD PTR [ebp-0x98]
c0107338:	89 4d bc             	mov    DWORD PTR [ebp-0x44],ecx
c010733b:	c7 45 b8 1f 00 00 00 	mov    DWORD PTR [ebp-0x48],0x1f
c0107342:	58                   	pop    eax
c0107343:	5a                   	pop    edx
c0107344:	8d 45 b4             	lea    eax,[ebp-0x4c]
c0107347:	50                   	push   eax
c0107348:	ff 75 b0             	push   DWORD PTR [ebp-0x50]
c010734b:	e8 27 e5 ff ff       	call   c0105877 <vfs_read>
c0107350:	83 c4 10             	add    esp,0x10
c0107353:	85 c0                	test   eax,eax
c0107355:	0f 85 a5 01 00 00    	jne    c0107500 <ksymbol_init+0x31c>
c010735b:	50                   	push   eax
c010735c:	50                   	push   eax
c010735d:	68 77 9c 10 c0       	push   0xc0109c77
c0107362:	56                   	push   esi
c0107363:	e8 45 9f ff ff       	call   c01012ad <strcmp>
c0107368:	83 c4 10             	add    esp,0x10
c010736b:	85 c0                	test   eax,eax
c010736d:	75 14                	jne    c0107383 <ksymbol_init+0x19f>
c010736f:	8b 47 14             	mov    eax,DWORD PTR [edi+0x14]
c0107372:	89 45 84             	mov    DWORD PTR [ebp-0x7c],eax
c0107375:	8b 85 6c ff ff ff    	mov    eax,DWORD PTR [ebp-0x94]
c010737b:	89 85 74 ff ff ff    	mov    DWORD PTR [ebp-0x8c],eax
c0107381:	eb 26                	jmp    c01073a9 <ksymbol_init+0x1c5>
c0107383:	50                   	push   eax
c0107384:	50                   	push   eax
c0107385:	68 7f 9c 10 c0       	push   0xc0109c7f
c010738a:	56                   	push   esi
c010738b:	e8 1d 9f ff ff       	call   c01012ad <strcmp>
c0107390:	83 c4 10             	add    esp,0x10
c0107393:	85 c0                	test   eax,eax
c0107395:	75 12                	jne    c01073a9 <ksymbol_init+0x1c5>
c0107397:	8b 47 14             	mov    eax,DWORD PTR [edi+0x14]
c010739a:	89 45 80             	mov    DWORD PTR [ebp-0x80],eax
c010739d:	8b 85 6c ff ff ff    	mov    eax,DWORD PTR [ebp-0x94]
c01073a3:	89 85 70 ff ff ff    	mov    DWORD PTR [ebp-0x90],eax
c01073a9:	ff 85 78 ff ff ff    	inc    DWORD PTR [ebp-0x88]
c01073af:	83 c7 28             	add    edi,0x28
c01073b2:	e9 38 ff ff ff       	jmp    c01072ef <ksymbol_init+0x10b>
c01073b7:	83 bd 70 ff ff ff 00 	cmp    DWORD PTR [ebp-0x90],0x0
c01073be:	0f 94 c0             	sete   al
c01073c1:	83 bd 74 ff ff ff 00 	cmp    DWORD PTR [ebp-0x8c],0x0
c01073c8:	0f 94 c2             	sete   dl
c01073cb:	09 d0                	or     eax,edx
c01073cd:	83 7d 84 00          	cmp    DWORD PTR [ebp-0x7c],0x0
c01073d1:	0f 94 c2             	sete   dl
c01073d4:	08 d0                	or     al,dl
c01073d6:	0f 85 24 01 00 00    	jne    c0107500 <ksymbol_init+0x31c>
c01073dc:	83 7d 80 00          	cmp    DWORD PTR [ebp-0x80],0x0
c01073e0:	0f 84 1a 01 00 00    	je     c0107500 <ksymbol_init+0x31c>
c01073e6:	83 ec 0c             	sub    esp,0xc
c01073e9:	ff 75 84             	push   DWORD PTR [ebp-0x7c]
c01073ec:	e8 d2 aa ff ff       	call   c0101ec3 <malloc>
c01073f1:	89 85 78 ff ff ff    	mov    DWORD PTR [ebp-0x88],eax
c01073f7:	5a                   	pop    edx
c01073f8:	59                   	pop    ecx
c01073f9:	6a 00                	push   0x0
c01073fb:	6a 00                	push   0x0
c01073fd:	ff b5 74 ff ff ff    	push   DWORD PTR [ebp-0x8c]
c0107403:	ff 75 84             	push   DWORD PTR [ebp-0x7c]
c0107406:	50                   	push   eax
c0107407:	8d 45 88             	lea    eax,[ebp-0x78]
c010740a:	50                   	push   eax
c010740b:	e8 33 da ff ff       	call   c0104e43 <uio_construct>
c0107410:	8d 7d b4             	lea    edi,[ebp-0x4c]
c0107413:	b9 05 00 00 00       	mov    ecx,0x5
c0107418:	8d 75 88             	lea    esi,[ebp-0x78]
c010741b:	f3 a5                	rep movs DWORD PTR es:[edi],DWORD PTR ds:[esi]
c010741d:	8d 45 b4             	lea    eax,[ebp-0x4c]
c0107420:	89 04 24             	mov    DWORD PTR [esp],eax
c0107423:	ff 75 b0             	push   DWORD PTR [ebp-0x50]
c0107426:	e8 4c e4 ff ff       	call   c0105877 <vfs_read>
c010742b:	83 c4 20             	add    esp,0x20
c010742e:	85 c0                	test   eax,eax
c0107430:	0f 85 ca 00 00 00    	jne    c0107500 <ksymbol_init+0x31c>
c0107436:	83 ec 0c             	sub    esp,0xc
c0107439:	ff 75 80             	push   DWORD PTR [ebp-0x80]
c010743c:	e8 82 aa ff ff       	call   c0101ec3 <malloc>
c0107441:	89 85 74 ff ff ff    	mov    DWORD PTR [ebp-0x8c],eax
c0107447:	5e                   	pop    esi
c0107448:	5f                   	pop    edi
c0107449:	6a 00                	push   0x0
c010744b:	6a 00                	push   0x0
c010744d:	ff b5 70 ff ff ff    	push   DWORD PTR [ebp-0x90]
c0107453:	ff 75 80             	push   DWORD PTR [ebp-0x80]
c0107456:	50                   	push   eax
c0107457:	8d 45 88             	lea    eax,[ebp-0x78]
c010745a:	50                   	push   eax
c010745b:	e8 e3 d9 ff ff       	call   c0104e43 <uio_construct>
c0107460:	b9 05 00 00 00       	mov    ecx,0x5
c0107465:	8d 7d b4             	lea    edi,[ebp-0x4c]
c0107468:	8d 75 88             	lea    esi,[ebp-0x78]
c010746b:	f3 a5                	rep movs DWORD PTR es:[edi],DWORD PTR ds:[esi]
c010746d:	8d 45 b4             	lea    eax,[ebp-0x4c]
c0107470:	89 04 24             	mov    DWORD PTR [esp],eax
c0107473:	ff 75 b0             	push   DWORD PTR [ebp-0x50]
c0107476:	e8 fc e3 ff ff       	call   c0105877 <vfs_read>
c010747b:	83 c4 20             	add    esp,0x20
c010747e:	85 c0                	test   eax,eax
c0107480:	75 7e                	jne    c0107500 <ksymbol_init+0x31c>
c0107482:	8b bd 78 ff ff ff    	mov    edi,DWORD PTR [ebp-0x88]
c0107488:	8b 75 84             	mov    esi,DWORD PTR [ebp-0x7c]
c010748b:	83 e6 f0             	and    esi,0xfffffff0
c010748e:	01 fe                	add    esi,edi
c0107490:	89 75 84             	mov    DWORD PTR [ebp-0x7c],esi
c0107493:	39 7d 84             	cmp    DWORD PTR [ebp-0x7c],edi
c0107496:	74 29                	je     c01074c1 <ksymbol_init+0x2dd>
c0107498:	8b 77 04             	mov    esi,DWORD PTR [edi+0x4]
c010749b:	85 f6                	test   esi,esi
c010749d:	74 1d                	je     c01074bc <ksymbol_init+0x2d8>
c010749f:	83 ec 0c             	sub    esp,0xc
c01074a2:	8b 85 74 ff ff ff    	mov    eax,DWORD PTR [ebp-0x8c]
c01074a8:	03 07                	add    eax,DWORD PTR [edi]
c01074aa:	50                   	push   eax
c01074ab:	e8 89 9e ff ff       	call   c0101339 <strdup>
c01074b0:	5a                   	pop    edx
c01074b1:	59                   	pop    ecx
c01074b2:	56                   	push   esi
c01074b3:	50                   	push   eax
c01074b4:	e8 00 fd ff ff       	call   c01071b9 <ksymbol_add_symbol>
c01074b9:	83 c4 10             	add    esp,0x10
c01074bc:	83 c7 10             	add    edi,0x10
c01074bf:	eb d2                	jmp    c0107493 <ksymbol_init+0x2af>
c01074c1:	83 ec 0c             	sub    esp,0xc
c01074c4:	ff b5 78 ff ff ff    	push   DWORD PTR [ebp-0x88]
c01074ca:	e8 10 ab ff ff       	call   c0101fdf <free>
c01074cf:	58                   	pop    eax
c01074d0:	ff b5 74 ff ff ff    	push   DWORD PTR [ebp-0x8c]
c01074d6:	e8 04 ab ff ff       	call   c0101fdf <free>
c01074db:	89 1c 24             	mov    DWORD PTR [esp],ebx
c01074de:	e8 fc aa ff ff       	call   c0101fdf <free>
c01074e3:	5a                   	pop    edx
c01074e4:	ff b5 7c ff ff ff    	push   DWORD PTR [ebp-0x84]
c01074ea:	e8 f0 aa ff ff       	call   c0101fdf <free>
c01074ef:	59                   	pop    ecx
c01074f0:	ff 75 b0             	push   DWORD PTR [ebp-0x50]
c01074f3:	e8 ed e1 ff ff       	call   c01056e5 <vfs_close>
c01074f8:	8d 65 f4             	lea    esp,[ebp-0xc]
c01074fb:	5b                   	pop    ebx
c01074fc:	5e                   	pop    esi
c01074fd:	5f                   	pop    edi
c01074fe:	5d                   	pop    ebp
c01074ff:	c3                   	ret    
c0107500:	83 ec 0c             	sub    esp,0xc
c0107503:	68 87 9c 10 c0       	push   0xc0109c87
c0107508:	e8 67 d5 ff ff       	call   c0104a74 <panic>

c010750d <ksymbol_get_address_from_name>:
c010750d:	55                   	push   ebp
c010750e:	89 e5                	mov    ebp,esp
c0107510:	53                   	push   ebx
c0107511:	51                   	push   ecx
c0107512:	8b 5d 08             	mov    ebx,DWORD PTR [ebp+0x8]
c0107515:	83 3d d8 57 11 c0 00 	cmp    DWORD PTR ds:0xc01157d8,0x0
c010751c:	75 05                	jne    c0107523 <ksymbol_get_address_from_name+0x16>
c010751e:	e8 c1 fc ff ff       	call   c01071e4 <ksymbol_init>
c0107523:	52                   	push   edx
c0107524:	52                   	push   edx
c0107525:	53                   	push   ebx
c0107526:	ff 35 d8 57 11 c0    	push   DWORD PTR ds:0xc01157d8
c010752c:	e8 57 cd ff ff       	call   c0104288 <adt_hashmap_contains>
c0107531:	88 c2                	mov    dl,al
c0107533:	83 c4 10             	add    esp,0x10
c0107536:	31 c0                	xor    eax,eax
c0107538:	84 d2                	test   dl,dl
c010753a:	74 11                	je     c010754d <ksymbol_get_address_from_name+0x40>
c010753c:	50                   	push   eax
c010753d:	50                   	push   eax
c010753e:	53                   	push   ebx
c010753f:	ff 35 d8 57 11 c0    	push   DWORD PTR ds:0xc01157d8
c0107545:	e8 17 ce ff ff       	call   c0104361 <adt_hashmap_get>
c010754a:	83 c4 10             	add    esp,0x10
c010754d:	8b 5d fc             	mov    ebx,DWORD PTR [ebp-0x4]
c0107550:	c9                   	leave  
c0107551:	c3                   	ret    

c0107552 <x86_gdt_create_entry>:
c0107552:	55                   	push   ebp
c0107553:	89 e5                	mov    ebp,esp
c0107555:	53                   	push   ebx
c0107556:	8b 45 08             	mov    eax,DWORD PTR [ebp+0x8]
c0107559:	8b 4d 0c             	mov    ecx,DWORD PTR [ebp+0xc]
c010755c:	8b 55 10             	mov    edx,DWORD PTR [ebp+0x10]
c010755f:	66 89 10             	mov    WORD PTR [eax],dx
c0107562:	66 89 48 02          	mov    WORD PTR [eax+0x2],cx
c0107566:	89 cb                	mov    ebx,ecx
c0107568:	c1 eb 10             	shr    ebx,0x10
c010756b:	88 58 04             	mov    BYTE PTR [eax+0x4],bl
c010756e:	8b 5d 14             	mov    ebx,DWORD PTR [ebp+0x14]
c0107571:	88 58 05             	mov    BYTE PTR [eax+0x5],bl
c0107574:	c1 ea 10             	shr    edx,0x10
c0107577:	83 e2 0f             	and    edx,0xf
c010757a:	0f b6 5d 18          	movzx  ebx,BYTE PTR [ebp+0x18]
c010757e:	c1 e3 04             	shl    ebx,0x4
c0107581:	09 da                	or     edx,ebx
c0107583:	88 50 06             	mov    BYTE PTR [eax+0x6],dl
c0107586:	c1 e9 18             	shr    ecx,0x18
c0107589:	88 48 07             	mov    BYTE PTR [eax+0x7],cl
c010758c:	5b                   	pop    ebx
c010758d:	5d                   	pop    ebp
c010758e:	c2 04 00             	ret    0x4

c0107591 <x86_gdt_initialise>:
c0107591:	55                   	push   ebp
c0107592:	89 e5                	mov    ebp,esp
c0107594:	83 ec 14             	sub    esp,0x14
c0107597:	a1 e8 1a 11 c0       	mov    eax,ds:0xc0111ae8
c010759c:	8b 40 08             	mov    eax,DWORD PTR [eax+0x8]
c010759f:	c7 40 04 00 00 00 00 	mov    DWORD PTR [eax+0x4],0x0
c01075a6:	c7 40 08 00 00 00 00 	mov    DWORD PTR [eax+0x8],0x0
c01075ad:	c7 40 0c ff ff 00 00 	mov    DWORD PTR [eax+0xc],0xffff
c01075b4:	c7 40 10 00 9a cf 00 	mov    DWORD PTR [eax+0x10],0xcf9a00
c01075bb:	c7 40 14 ff ff 00 00 	mov    DWORD PTR [eax+0x14],0xffff
c01075c2:	c7 40 18 00 92 cf 00 	mov    DWORD PTR [eax+0x18],0xcf9200
c01075c9:	c7 40 1c ff ff 00 00 	mov    DWORD PTR [eax+0x1c],0xffff
c01075d0:	c7 40 20 00 fa cf 00 	mov    DWORD PTR [eax+0x20],0xcffa00
c01075d7:	c7 40 24 ff ff 00 00 	mov    DWORD PTR [eax+0x24],0xffff
c01075de:	c7 40 28 00 f2 cf 00 	mov    DWORD PTR [eax+0x28],0xcff200
c01075e5:	66 c7 80 84 08 00 00 7f 00 	mov    WORD PTR [eax+0x884],0x7f
c01075ee:	8d 50 04             	lea    edx,[eax+0x4]
c01075f1:	89 90 86 08 00 00    	mov    DWORD PTR [eax+0x886],edx
c01075f7:	05 84 08 00 00       	add    eax,0x884
c01075fc:	50                   	push   eax
c01075fd:	e8 ae 0c 00 00       	call   c01082b0 <x86_gdt_load>
c0107602:	83 c4 10             	add    esp,0x10
c0107605:	c9                   	leave  
c0107606:	c3                   	ret    

c0107607 <x86_gdt_add_tss>:
c0107607:	55                   	push   ebp
c0107608:	89 e5                	mov    ebp,esp
c010760a:	8b 55 08             	mov    edx,DWORD PTR [ebp+0x8]
c010760d:	a1 e8 1a 11 c0       	mov    eax,ds:0xc0111ae8
c0107612:	8b 40 08             	mov    eax,DWORD PTR [eax+0x8]
c0107615:	66 c7 40 2c 68 00    	mov    WORD PTR [eax+0x2c],0x68
c010761b:	66 89 50 2e          	mov    WORD PTR [eax+0x2e],dx
c010761f:	89 d1                	mov    ecx,edx
c0107621:	c1 e9 10             	shr    ecx,0x10
c0107624:	88 48 30             	mov    BYTE PTR [eax+0x30],cl
c0107627:	66 c7 40 31 89 00    	mov    WORD PTR [eax+0x31],0x89
c010762d:	c1 ea 18             	shr    edx,0x18
c0107630:	88 50 33             	mov    BYTE PTR [eax+0x33],dl
c0107633:	b8 28 00 00 00       	mov    eax,0x28
c0107638:	5d                   	pop    ebp
c0107639:	c3                   	ret    

c010763a <x86_idt_set_entry>:
c010763a:	55                   	push   ebp
c010763b:	89 e5                	mov    ebp,esp
c010763d:	53                   	push   ebx
c010763e:	8b 55 0c             	mov    edx,DWORD PTR [ebp+0xc]
c0107641:	8b 4d 10             	mov    ecx,DWORD PTR [ebp+0x10]
c0107644:	a1 e8 1a 11 c0       	mov    eax,ds:0xc0111ae8
c0107649:	8b 40 08             	mov    eax,DWORD PTR [eax+0x8]
c010764c:	8b 5d 08             	mov    ebx,DWORD PTR [ebp+0x8]
c010764f:	8d 04 d8             	lea    eax,[eax+ebx*8]
c0107652:	66 89 90 84 00 00 00 	mov    WORD PTR [eax+0x84],dx
c0107659:	c1 ea 10             	shr    edx,0x10
c010765c:	66 89 90 8a 00 00 00 	mov    WORD PTR [eax+0x8a],dx
c0107663:	66 c7 80 86 00 00 00 08 00 	mov    WORD PTR [eax+0x86],0x8
c010766c:	c6 80 88 00 00 00 00 	mov    BYTE PTR [eax+0x88],0x0
c0107673:	88 88 89 00 00 00    	mov    BYTE PTR [eax+0x89],cl
c0107679:	5b                   	pop    ebx
c010767a:	5d                   	pop    ebp
c010767b:	c3                   	ret    

c010767c <x86_idt_initialise>:
c010767c:	55                   	push   ebp
c010767d:	89 e5                	mov    ebp,esp
c010767f:	57                   	push   edi
c0107680:	56                   	push   esi
c0107681:	53                   	push   ebx
c0107682:	81 ec ac 00 00 00    	sub    esp,0xac
c0107688:	a1 e8 1a 11 c0       	mov    eax,ds:0xc0111ae8
c010768d:	8b 58 08             	mov    ebx,DWORD PTR [eax+0x8]
c0107690:	8d 7d 90             	lea    edi,[ebp-0x70]
c0107693:	be 20 91 10 c0       	mov    esi,0xc0109120
c0107698:	b9 16 00 00 00       	mov    ecx,0x16
c010769d:	f3 a5                	rep movs DWORD PTR es:[edi],DWORD PTR ds:[esi]
c010769f:	8d bd 50 ff ff ff    	lea    edi,[ebp-0xb0]
c01076a5:	be 80 91 10 c0       	mov    esi,0xc0109180
c01076aa:	b9 10 00 00 00       	mov    ecx,0x10
c01076af:	f3 a5                	rep movs DWORD PTR es:[edi],DWORD PTR ds:[esi]
c01076b1:	31 f6                	xor    esi,esi
c01076b3:	51                   	push   ecx
c01076b4:	68 8e 00 00 00       	push   0x8e
c01076b9:	ff 74 b5 90          	push   DWORD PTR [ebp+esi*4-0x70]
c01076bd:	56                   	push   esi
c01076be:	e8 77 ff ff ff       	call   c010763a <x86_idt_set_entry>
c01076c3:	46                   	inc    esi
c01076c4:	83 c4 10             	add    esp,0x10
c01076c7:	83 fe 15             	cmp    esi,0x15
c01076ca:	75 e7                	jne    c01076b3 <x86_idt_initialise+0x37>
c01076cc:	be 20 00 00 00       	mov    esi,0x20
c01076d1:	52                   	push   edx
c01076d2:	68 8e 00 00 00       	push   0x8e
c01076d7:	ff b4 b5 d0 fe ff ff 	push   DWORD PTR [ebp+esi*4-0x130]
c01076de:	56                   	push   esi
c01076df:	e8 56 ff ff ff       	call   c010763a <x86_idt_set_entry>
c01076e4:	46                   	inc    esi
c01076e5:	83 c4 10             	add    esp,0x10
c01076e8:	83 fe 30             	cmp    esi,0x30
c01076eb:	75 e4                	jne    c01076d1 <x86_idt_initialise+0x55>
c01076ed:	50                   	push   eax
c01076ee:	68 ee 00 00 00       	push   0xee
c01076f3:	68 a9 83 10 c0       	push   0xc01083a9
c01076f8:	6a 60                	push   0x60
c01076fa:	e8 3b ff ff ff       	call   c010763a <x86_idt_set_entry>
c01076ff:	8d 83 84 00 00 00    	lea    eax,[ebx+0x84]
c0107705:	89 83 8c 08 00 00    	mov    DWORD PTR [ebx+0x88c],eax
c010770b:	66 c7 83 8a 08 00 00 ff 07 	mov    WORD PTR [ebx+0x88a],0x7ff
c0107714:	81 c3 8a 08 00 00    	add    ebx,0x88a
c010771a:	89 1c 24             	mov    DWORD PTR [esp],ebx
c010771d:	e8 ae 0b 00 00       	call   c01082d0 <x86_idt_load>
c0107722:	83 c4 10             	add    esp,0x10
c0107725:	8d 65 f4             	lea    esp,[ebp-0xc]
c0107728:	5b                   	pop    ebx
c0107729:	5e                   	pop    esi
c010772a:	5f                   	pop    edi
c010772b:	5d                   	pop    ebp
c010772c:	c3                   	ret    

c010772d <x86_handle_syscall>:
c010772d:	55                   	push   ebp
c010772e:	89 e5                	mov    ebp,esp
c0107730:	53                   	push   ebx
c0107731:	83 ec 1c             	sub    esp,0x1c
c0107734:	8b 5d 08             	mov    ebx,DWORD PTR [ebp+0x8]
c0107737:	8b 43 20             	mov    eax,DWORD PTR [ebx+0x20]
c010773a:	89 45 e8             	mov    DWORD PTR [ebp-0x18],eax
c010773d:	8b 43 28             	mov    eax,DWORD PTR [ebx+0x28]
c0107740:	89 45 ec             	mov    DWORD PTR [ebp-0x14],eax
c0107743:	8b 43 14             	mov    eax,DWORD PTR [ebx+0x14]
c0107746:	89 45 f0             	mov    DWORD PTR [ebp-0x10],eax
c0107749:	8b 43 10             	mov    eax,DWORD PTR [ebx+0x10]
c010774c:	89 45 f4             	mov    DWORD PTR [ebp-0xc],eax
c010774f:	8d 45 e8             	lea    eax,[ebp-0x18]
c0107752:	50                   	push   eax
c0107753:	ff 73 2c             	push   DWORD PTR [ebx+0x2c]
c0107756:	e8 97 b4 ff ff       	call   c0102bf2 <syscall_perform>
c010775b:	89 43 2c             	mov    DWORD PTR [ebx+0x2c],eax
c010775e:	8b 5d fc             	mov    ebx,DWORD PTR [ebp-0x4]
c0107761:	c9                   	leave  
c0107762:	c3                   	ret    

c0107763 <x86_register_interrupt_handler>:
c0107763:	55                   	push   ebp
c0107764:	89 e5                	mov    ebp,esp
c0107766:	8b 55 08             	mov    edx,DWORD PTR [ebp+0x8]
c0107769:	b8 04 00 00 00       	mov    eax,0x4
c010776e:	83 3c 95 60 1b 11 c0 00 	cmp    DWORD PTR [edx*4-0x3feee4a0],0x0
c0107776:	75 19                	jne    c0107791 <x86_register_interrupt_handler+0x2e>
c0107778:	b8 07 00 00 00       	mov    eax,0x7
c010777d:	81 fa ff 00 00 00    	cmp    edx,0xff
c0107783:	77 0c                	ja     c0107791 <x86_register_interrupt_handler+0x2e>
c0107785:	8b 45 0c             	mov    eax,DWORD PTR [ebp+0xc]
c0107788:	89 04 95 60 1b 11 c0 	mov    DWORD PTR [edx*4-0x3feee4a0],eax
c010778f:	31 c0                	xor    eax,eax
c0107791:	5d                   	pop    ebp
c0107792:	c3                   	ret    

c0107793 <x86_interrupt_initialise>:
c0107793:	55                   	push   ebp
c0107794:	89 e5                	mov    ebp,esp
c0107796:	83 ec 0c             	sub    esp,0xc
c0107799:	68 00 04 00 00       	push   0x400
c010779e:	6a 00                	push   0x0
c01077a0:	68 60 1b 11 c0       	push   0xc0111b60
c01077a5:	e8 b1 9a ff ff       	call   c010125b <memset>
c01077aa:	58                   	pop    eax
c01077ab:	5a                   	pop    edx
c01077ac:	68 b9 7e 10 c0       	push   0xc0107eb9
c01077b1:	6a 0e                	push   0xe
c01077b3:	e8 ab ff ff ff       	call   c0107763 <x86_register_interrupt_handler>
c01077b8:	59                   	pop    ecx
c01077b9:	58                   	pop    eax
c01077ba:	68 2d 77 10 c0       	push   0xc010772d
c01077bf:	6a 60                	push   0x60
c01077c1:	e8 9d ff ff ff       	call   c0107763 <x86_register_interrupt_handler>
c01077c6:	83 c4 10             	add    esp,0x10
c01077c9:	c9                   	leave  
c01077ca:	c3                   	ret    

c01077cb <x86_interrupt_handler>:
c01077cb:	55                   	push   ebp
c01077cc:	89 e5                	mov    ebp,esp
c01077ce:	56                   	push   esi
c01077cf:	53                   	push   ebx
c01077d0:	8b 75 08             	mov    esi,DWORD PTR [ebp+0x8]
c01077d3:	8b 5e 30             	mov    ebx,DWORD PTR [esi+0x30]
c01077d6:	83 ec 0c             	sub    esp,0xc
c01077d9:	53                   	push   ebx
c01077da:	e8 1b f5 ff ff       	call   c0106cfa <pic_is_spurious>
c01077df:	83 c4 10             	add    esp,0x10
c01077e2:	84 c0                	test   al,al
c01077e4:	75 6c                	jne    c0107852 <x86_interrupt_handler+0x87>
c01077e6:	8d 43 e0             	lea    eax,[ebx-0x20]
c01077e9:	83 f8 0f             	cmp    eax,0xf
c01077ec:	77 0c                	ja     c01077fa <x86_interrupt_handler+0x2f>
c01077ee:	83 ec 0c             	sub    esp,0xc
c01077f1:	53                   	push   ebx
c01077f2:	e8 50 f5 ff ff       	call   c0106d47 <pic_eoi>
c01077f7:	83 c4 10             	add    esp,0x10
c01077fa:	31 c0                	xor    eax,eax
c01077fc:	83 fb 20             	cmp    ebx,0x20
c01077ff:	0f 9d c0             	setge  al
c0107802:	48                   	dec    eax
c0107803:	83 e0 13             	and    eax,0x13
c0107806:	8b 14 9d 60 1b 11 c0 	mov    edx,DWORD PTR [ebx*4-0x3feee4a0]
c010780d:	85 d2                	test   edx,edx
c010780f:	74 09                	je     c010781a <x86_interrupt_handler+0x4f>
c0107811:	83 ec 0c             	sub    esp,0xc
c0107814:	56                   	push   esi
c0107815:	ff d2                	call   edx
c0107817:	83 c4 10             	add    esp,0x10
c010781a:	83 fb 60             	cmp    ebx,0x60
c010781d:	74 33                	je     c0107852 <x86_interrupt_handler+0x87>
c010781f:	85 c0                	test   eax,eax
c0107821:	74 2f                	je     c0107852 <x86_interrupt_handler+0x87>
c0107823:	b8 c0 9c 10 c0       	mov    eax,0xc0109cc0
c0107828:	83 fb 12             	cmp    ebx,0x12
c010782b:	7f 0a                	jg     c0107837 <x86_interrupt_handler+0x6c>
c010782d:	89 d8                	mov    eax,ebx
c010782f:	c1 e0 05             	shl    eax,0x5
c0107832:	05 40 d0 10 c0       	add    eax,0xc010d040
c0107837:	52                   	push   edx
c0107838:	53                   	push   ebx
c0107839:	50                   	push   eax
c010783a:	68 c8 9c 10 c0       	push   0xc0109cc8
c010783f:	e8 76 d0 ff ff       	call   c01048ba <kprintf>
c0107844:	83 c4 10             	add    esp,0x10
c0107847:	8d 65 f8             	lea    esp,[ebp-0x8]
c010784a:	5b                   	pop    ebx
c010784b:	5e                   	pop    esi
c010784c:	5d                   	pop    ebp
c010784d:	e9 2b c5 ff ff       	jmp    c0103d7d <thread_terminate>
c0107852:	8d 65 f8             	lea    esp,[ebp-0x8]
c0107855:	5b                   	pop    ebx
c0107856:	5e                   	pop    esi
c0107857:	5d                   	pop    ebp
c0107858:	c3                   	ret    

c0107859 <x86_tss_initialise>:
c0107859:	55                   	push   ebp
c010785a:	89 e5                	mov    ebp,esp
c010785c:	53                   	push   ebx
c010785d:	83 ec 10             	sub    esp,0x10
c0107860:	a1 e8 1a 11 c0       	mov    eax,ds:0xc0111ae8
c0107865:	8b 58 08             	mov    ebx,DWORD PTR [eax+0x8]
c0107868:	6a 68                	push   0x68
c010786a:	e8 54 a6 ff ff       	call   c0101ec3 <malloc>
c010786f:	89 03                	mov    DWORD PTR [ebx],eax
c0107871:	66 c7 00 10 00       	mov    WORD PTR [eax],0x10
c0107876:	8b 03                	mov    eax,DWORD PTR [ebx]
c0107878:	c7 40 04 00 00 00 00 	mov    DWORD PTR [eax+0x4],0x0
c010787f:	8b 03                	mov    eax,DWORD PTR [ebx]
c0107881:	66 c7 40 08 10 00    	mov    WORD PTR [eax+0x8],0x10
c0107887:	8b 03                	mov    eax,DWORD PTR [ebx]
c0107889:	66 c7 40 66 68 00    	mov    WORD PTR [eax+0x66],0x68
c010788f:	58                   	pop    eax
c0107890:	ff 33                	push   DWORD PTR [ebx]
c0107892:	e8 70 fd ff ff       	call   c0107607 <x86_gdt_add_tss>
c0107897:	0f b7 c0             	movzx  eax,ax
c010789a:	89 04 24             	mov    DWORD PTR [esp],eax
c010789d:	e8 9e 0b 00 00       	call   c0108440 <x86_tss_load>
c01078a2:	83 c4 10             	add    esp,0x10
c01078a5:	8b 5d fc             	mov    ebx,DWORD PTR [ebp-0x4]
c01078a8:	c9                   	leave  
c01078a9:	c3                   	ret    

c01078aa <arch_get_memory>:
c01078aa:	55                   	push   ebp
c01078ab:	89 e5                	mov    ebp,esp
c01078ad:	56                   	push   esi
c01078ae:	53                   	push   ebx
c01078af:	ff 05 a0 d2 10 c0    	inc    DWORD PTR ds:0xc010d2a0
c01078b5:	83 3d dc 57 11 c0 00 	cmp    DWORD PTR ds:0xc01157dc,0x0
c01078bc:	75 46                	jne    c0107904 <arch_get_memory+0x5a>
c01078be:	83 ec 0c             	sub    esp,0xc
c01078c1:	ff 35 4b 82 10 c0    	push   DWORD PTR ds:0xc010824b
c01078c7:	e8 ba 00 00 00       	call   c0107986 <lowmem_physical_to_virtual>
c01078cc:	a3 4b 82 10 c0       	mov    ds:0xc010824b,eax
c01078d1:	8b 10                	mov    edx,DWORD PTR [eax]
c01078d3:	83 c4 10             	add    esp,0x10
c01078d6:	c1 ea 06             	shr    edx,0x6
c01078d9:	75 0d                	jne    c01078e8 <arch_get_memory+0x3e>
c01078db:	83 ec 0c             	sub    esp,0xc
c01078de:	68 e7 9c 10 c0       	push   0xc0109ce7
c01078e3:	e8 8c d1 ff ff       	call   c0104a74 <panic>
c01078e8:	8b 50 2c             	mov    edx,DWORD PTR [eax+0x2c]
c01078eb:	89 15 ec 57 11 c0    	mov    DWORD PTR ds:0xc01157ec,edx
c01078f1:	83 ec 0c             	sub    esp,0xc
c01078f4:	ff 70 30             	push   DWORD PTR [eax+0x30]
c01078f7:	e8 8a 00 00 00       	call   c0107986 <lowmem_physical_to_virtual>
c01078fc:	a3 dc 57 11 c0       	mov    ds:0xc01157dc,eax
c0107901:	83 c4 10             	add    esp,0x10
c0107904:	8b 0d e8 57 11 c0    	mov    ecx,DWORD PTR ds:0xc01157e8
c010790a:	3b 0d ec 57 11 c0    	cmp    ecx,DWORD PTR ds:0xc01157ec
c0107910:	7d 6b                	jge    c010797d <arch_get_memory+0xd3>
c0107912:	8b 15 dc 57 11 c0    	mov    edx,DWORD PTR ds:0xc01157dc
c0107918:	8b 72 14             	mov    esi,DWORD PTR [edx+0x14]
c010791b:	8b 5a 04             	mov    ebx,DWORD PTR [edx+0x4]
c010791e:	89 1d e0 57 11 c0    	mov    DWORD PTR ds:0xc01157e0,ebx
c0107924:	83 c8 ff             	or     eax,0xffffffff
c0107927:	83 7a 10 00          	cmp    DWORD PTR [edx+0x10],0x0
c010792b:	75 03                	jne    c0107930 <arch_get_memory+0x86>
c010792d:	8b 42 0c             	mov    eax,DWORD PTR [edx+0xc]
c0107930:	a3 e4 57 11 c0       	mov    ds:0xc01157e4,eax
c0107935:	83 c2 18             	add    edx,0x18
c0107938:	89 15 dc 57 11 c0    	mov    DWORD PTR ds:0xc01157dc,edx
c010793e:	83 c1 18             	add    ecx,0x18
c0107941:	89 0d e8 57 11 c0    	mov    DWORD PTR ds:0xc01157e8,ecx
c0107947:	4e                   	dec    esi
c0107948:	0f 85 67 ff ff ff    	jne    c01078b5 <arch_get_memory+0xb>
c010794e:	b9 ff cf 11 00       	mov    ecx,0x11cfff
c0107953:	81 e1 00 f0 ff ff    	and    ecx,0xfffff000
c0107959:	8d 14 03             	lea    edx,[ebx+eax*1]
c010795c:	39 ca                	cmp    edx,ecx
c010795e:	0f 82 51 ff ff ff    	jb     c01078b5 <arch_get_memory+0xb>
c0107964:	b8 e0 57 11 c0       	mov    eax,0xc01157e0
c0107969:	39 cb                	cmp    ebx,ecx
c010796b:	73 12                	jae    c010797f <arch_get_memory+0xd5>
c010796d:	29 ca                	sub    edx,ecx
c010796f:	89 15 e4 57 11 c0    	mov    DWORD PTR ds:0xc01157e4,edx
c0107975:	89 0d e0 57 11 c0    	mov    DWORD PTR ds:0xc01157e0,ecx
c010797b:	eb 02                	jmp    c010797f <arch_get_memory+0xd5>
c010797d:	31 c0                	xor    eax,eax
c010797f:	8d 65 f8             	lea    esp,[ebp-0x8]
c0107982:	5b                   	pop    ebx
c0107983:	5e                   	pop    esi
c0107984:	5d                   	pop    ebp
c0107985:	c3                   	ret    

c0107986 <lowmem_physical_to_virtual>:
c0107986:	55                   	push   ebp
c0107987:	89 e5                	mov    ebp,esp
c0107989:	8b 45 08             	mov    eax,DWORD PTR [ebp+0x8]
c010798c:	2d 00 00 00 40       	sub    eax,0x40000000
c0107991:	5d                   	pop    ebp
c0107992:	c3                   	ret    

c0107993 <arch_vas_destroy>:
c0107993:	e9 47 a6 ff ff       	jmp    c0101fdf <free>

c0107998 <arch_vas_load>:
c0107998:	55                   	push   ebp
c0107999:	89 e5                	mov    ebp,esp
c010799b:	8b 45 08             	mov    eax,DWORD PTR [ebp+0x8]
c010799e:	8b 00                	mov    eax,DWORD PTR [eax]
c01079a0:	89 45 08             	mov    DWORD PTR [ebp+0x8],eax
c01079a3:	5d                   	pop    ebp
c01079a4:	e9 a7 0a 00 00       	jmp    c0108450 <x86_set_cr3>

c01079a9 <arch_vas_set_entry>:
c01079a9:	55                   	push   ebp
c01079aa:	89 e5                	mov    ebp,esp
c01079ac:	53                   	push   ebx
c01079ad:	52                   	push   edx
c01079ae:	8b 45 14             	mov    eax,DWORD PTR [ebp+0x14]
c01079b1:	89 c3                	mov    ebx,eax
c01079b3:	83 e3 01             	and    ebx,0x1
c01079b6:	74 05                	je     c01079bd <arch_vas_set_entry+0x14>
c01079b8:	bb 02 00 00 00       	mov    ebx,0x2
c01079bd:	a8 04                	test   al,0x4
c01079bf:	74 03                	je     c01079c4 <arch_vas_set_entry+0x1b>
c01079c1:	83 cb 04             	or     ebx,0x4
c01079c4:	a8 10                	test   al,0x10
c01079c6:	74 03                	je     c01079cb <arch_vas_set_entry+0x22>
c01079c8:	83 cb 01             	or     ebx,0x1
c01079cb:	a8 20                	test   al,0x20
c01079cd:	74 03                	je     c01079d2 <arch_vas_set_entry+0x29>
c01079cf:	80 cf 01             	or     bh,0x1
c01079d2:	a8 08                	test   al,0x8
c01079d4:	74 03                	je     c01079d9 <arch_vas_set_entry+0x30>
c01079d6:	80 cf 08             	or     bh,0x8
c01079d9:	a8 40                	test   al,0x40
c01079db:	74 03                	je     c01079e0 <arch_vas_set_entry+0x37>
c01079dd:	80 cf 04             	or     bh,0x4
c01079e0:	50                   	push   eax
c01079e1:	6a 01                	push   0x1
c01079e3:	ff 75 0c             	push   DWORD PTR [ebp+0xc]
c01079e6:	ff 75 08             	push   DWORD PTR [ebp+0x8]
c01079e9:	e8 47 02 00 00       	call   c0107c35 <x86_get_entry>
c01079ee:	0b 5d 10             	or     ebx,DWORD PTR [ebp+0x10]
c01079f1:	89 18                	mov    DWORD PTR [eax],ebx
c01079f3:	83 c4 10             	add    esp,0x10
c01079f6:	8b 5d fc             	mov    ebx,DWORD PTR [ebp-0x4]
c01079f9:	c9                   	leave  
c01079fa:	c3                   	ret    

c01079fb <allocate_page_table>:
c01079fb:	55                   	push   ebp
c01079fc:	89 e5                	mov    ebp,esp
c01079fe:	57                   	push   edi
c01079ff:	56                   	push   esi
c0107a00:	53                   	push   ebx
c0107a01:	83 ec 1c             	sub    esp,0x1c
c0107a04:	89 c6                	mov    esi,eax
c0107a06:	89 d7                	mov    edi,edx
c0107a08:	89 4d e4             	mov    DWORD PTR [ebp-0x1c],ecx
c0107a0b:	e8 4d a7 ff ff       	call   c010215d <phys_allocate_page>
c0107a10:	89 c3                	mov    ebx,eax
c0107a12:	6a 31                	push   0x31
c0107a14:	50                   	push   eax
c0107a15:	68 00 30 11 c0       	push   0xc0113000
c0107a1a:	56                   	push   esi
c0107a1b:	e8 89 ff ff ff       	call   c01079a9 <arch_vas_set_entry>
c0107a20:	e8 0a aa ff ff       	call   c010242f <vas_flush_tlb>
c0107a25:	83 c4 0c             	add    esp,0xc
c0107a28:	68 00 10 00 00       	push   0x1000
c0107a2d:	6a 00                	push   0x0
c0107a2f:	68 00 30 11 c0       	push   0xc0113000
c0107a34:	e8 22 98 ff ff       	call   c010125b <memset>
c0107a39:	6a 00                	push   0x0
c0107a3b:	53                   	push   ebx
c0107a3c:	68 00 30 11 c0       	push   0xc0113000
c0107a41:	56                   	push   esi
c0107a42:	e8 62 ff ff ff       	call   c01079a9 <arch_vas_set_entry>
c0107a47:	83 c4 20             	add    esp,0x20
c0107a4a:	8b 4d e4             	mov    ecx,DWORD PTR [ebp-0x1c]
c0107a4d:	31 c0                	xor    eax,eax
c0107a4f:	81 f9 00 03 00 00    	cmp    ecx,0x300
c0107a55:	0f 9c c0             	setl   al
c0107a58:	c1 e0 02             	shl    eax,0x2
c0107a5b:	09 d8                	or     eax,ebx
c0107a5d:	0d 03 01 00 00       	or     eax,0x103
c0107a62:	89 04 8f             	mov    DWORD PTR [edi+ecx*4],eax
c0107a65:	8d 65 f4             	lea    esp,[ebp-0xc]
c0107a68:	5b                   	pop    ebx
c0107a69:	5e                   	pop    esi
c0107a6a:	5f                   	pop    edi
c0107a6b:	5d                   	pop    ebp
c0107a6c:	e9 be a9 ff ff       	jmp    c010242f <vas_flush_tlb>

c0107a71 <x86_per_cpu_virt_initialise>:
c0107a71:	55                   	push   ebp
c0107a72:	89 e5                	mov    ebp,esp
c0107a74:	56                   	push   esi
c0107a75:	53                   	push   ebx
c0107a76:	51                   	push   ecx
c0107a77:	68 00 10 00 00       	push   0x1000
c0107a7c:	6a 00                	push   0x0
c0107a7e:	68 00 40 11 c0       	push   0xc0114000
c0107a83:	e8 d3 97 ff ff       	call   c010125b <memset>
c0107a88:	bb ff cf 11 c0       	mov    ebx,0xc011cfff
c0107a8d:	81 e3 00 f0 ff ff    	and    ebx,0xfffff000
c0107a93:	5e                   	pop    esi
c0107a94:	58                   	pop    eax
c0107a95:	53                   	push   ebx
c0107a96:	68 ff 9c 10 c0       	push   0xc0109cff
c0107a9b:	e8 1a ce ff ff       	call   c01048ba <kprintf>
c0107aa0:	81 c3 00 00 00 40    	add    ebx,0x40000000
c0107aa6:	c1 eb 0c             	shr    ebx,0xc
c0107aa9:	b8 00 20 11 00       	mov    eax,0x112000
c0107aae:	0d 07 01 00 00       	or     eax,0x107
c0107ab3:	a3 00 4c 11 c0       	mov    ds:0xc0114c00,eax
c0107ab8:	83 c4 10             	add    esp,0x10
c0107abb:	31 d2                	xor    edx,edx
c0107abd:	39 da                	cmp    edx,ebx
c0107abf:	8d 42 01             	lea    eax,[edx+0x1]
c0107ac2:	74 16                	je     c0107ada <x86_per_cpu_virt_initialise+0x69>
c0107ac4:	89 d1                	mov    ecx,edx
c0107ac6:	c1 e1 0c             	shl    ecx,0xc
c0107ac9:	81 c9 01 01 00 00    	or     ecx,0x101
c0107acf:	89 0c 95 00 20 11 c0 	mov    DWORD PTR [edx*4-0x3feee000],ecx
c0107ad6:	89 c2                	mov    edx,eax
c0107ad8:	eb e3                	jmp    c0107abd <x86_per_cpu_virt_initialise+0x4c>
c0107ada:	3d ff 03 00 00       	cmp    eax,0x3ff
c0107adf:	77 0e                	ja     c0107aef <x86_per_cpu_virt_initialise+0x7e>
c0107ae1:	c7 04 85 00 20 11 c0 00 00 00 00 	mov    DWORD PTR [eax*4-0x3feee000],0x0
c0107aec:	40                   	inc    eax
c0107aed:	eb eb                	jmp    c0107ada <x86_per_cpu_virt_initialise+0x69>
c0107aef:	b8 00 40 11 00       	mov    eax,0x114000
c0107af4:	0d 03 01 00 00       	or     eax,0x103
c0107af9:	a3 fc 4f 11 c0       	mov    ds:0xc0114ffc,eax
c0107afe:	e8 d3 cc ff ff       	call   c01047d6 <cpu_get_count>
c0107b03:	52                   	push   edx
c0107b04:	52                   	push   edx
c0107b05:	68 17 9d 10 c0       	push   0xc0109d17
c0107b0a:	6b c0 50             	imul   eax,eax,0x50
c0107b0d:	05 88 50 11 c0       	add    eax,0xc0115088
c0107b12:	50                   	push   eax
c0107b13:	e8 34 b8 ff ff       	call   c010334c <spinlock_init>
c0107b18:	e8 b9 cc ff ff       	call   c01047d6 <cpu_get_count>
c0107b1d:	89 c3                	mov    ebx,eax
c0107b1f:	e8 b2 cc ff ff       	call   c01047d6 <cpu_get_count>
c0107b24:	6b c0 50             	imul   eax,eax,0x50
c0107b27:	8d 14 dd 00 50 11 c0 	lea    edx,[ebx*8-0x3feeb000]
c0107b2e:	89 90 80 50 11 c0    	mov    DWORD PTR [eax-0x3feeaf80],edx
c0107b34:	e8 9d cc ff ff       	call   c01047d6 <cpu_get_count>
c0107b39:	c7 04 c5 00 50 11 c0 00 40 11 00 	mov    DWORD PTR [eax*8-0x3feeb000],0x114000
c0107b44:	e8 8d cc ff ff       	call   c01047d6 <cpu_get_count>
c0107b49:	c7 04 c5 04 50 11 c0 00 40 11 c0 	mov    DWORD PTR [eax*8-0x3feeaffc],0xc0114000
c0107b54:	e8 7d cc ff ff       	call   c01047d6 <cpu_get_count>
c0107b59:	8d 04 c5 00 50 11 c0 	lea    eax,[eax*8-0x3feeb000]
c0107b60:	89 04 24             	mov    DWORD PTR [esp],eax
c0107b63:	e8 30 fe ff ff       	call   c0107998 <arch_vas_load>
c0107b68:	83 c4 10             	add    esp,0x10
c0107b6b:	bb 01 03 00 00       	mov    ebx,0x301
c0107b70:	e8 61 cc ff ff       	call   c01047d6 <cpu_get_count>
c0107b75:	83 ec 0c             	sub    esp,0xc
c0107b78:	6b c0 50             	imul   eax,eax,0x50
c0107b7b:	05 88 50 11 c0       	add    eax,0xc0115088
c0107b80:	50                   	push   eax
c0107b81:	e8 f7 b7 ff ff       	call   c010337d <spinlock_acquire>
c0107b86:	e8 4b cc ff ff       	call   c01047d6 <cpu_get_count>
c0107b8b:	6b c0 50             	imul   eax,eax,0x50
c0107b8e:	05 80 50 11 c0       	add    eax,0xc0115080
c0107b93:	89 d9                	mov    ecx,ebx
c0107b95:	ba 00 40 11 c0       	mov    edx,0xc0114000
c0107b9a:	e8 5c fe ff ff       	call   c01079fb <allocate_page_table>
c0107b9f:	e8 32 cc ff ff       	call   c01047d6 <cpu_get_count>
c0107ba4:	6b c0 50             	imul   eax,eax,0x50
c0107ba7:	05 88 50 11 c0       	add    eax,0xc0115088
c0107bac:	89 04 24             	mov    DWORD PTR [esp],eax
c0107baf:	e8 ce b7 ff ff       	call   c0103382 <spinlock_release>
c0107bb4:	43                   	inc    ebx
c0107bb5:	83 c4 10             	add    esp,0x10
c0107bb8:	81 fb ff 03 00 00    	cmp    ebx,0x3ff
c0107bbe:	75 b0                	jne    c0107b70 <x86_per_cpu_virt_initialise+0xff>
c0107bc0:	e8 11 cc ff ff       	call   c01047d6 <cpu_get_count>
c0107bc5:	85 c0                	test   eax,eax
c0107bc7:	75 12                	jne    c0107bdb <x86_per_cpu_virt_initialise+0x16a>
c0107bc9:	83 ec 0c             	sub    esp,0xc
c0107bcc:	6a 10                	push   0x10
c0107bce:	e8 53 ab ff ff       	call   c0102726 <virt_allocate_unbacked_krnl_region>
c0107bd3:	a3 e8 1a 11 c0       	mov    ds:0xc0111ae8,eax
c0107bd8:	83 c4 10             	add    esp,0x10
c0107bdb:	8b 35 e8 1a 11 c0    	mov    esi,DWORD PTR ds:0xc0111ae8
c0107be1:	e8 77 a5 ff ff       	call   c010215d <phys_allocate_page>
c0107be6:	89 c3                	mov    ebx,eax
c0107be8:	e8 e9 cb ff ff       	call   c01047d6 <cpu_get_count>
c0107bed:	6a 21                	push   0x21
c0107bef:	56                   	push   esi
c0107bf0:	53                   	push   ebx
c0107bf1:	6b c0 50             	imul   eax,eax,0x50
c0107bf4:	05 80 50 11 c0       	add    eax,0xc0115080
c0107bf9:	50                   	push   eax
c0107bfa:	e8 09 a9 ff ff       	call   c0102508 <vas_map>
c0107bff:	e8 d2 cb ff ff       	call   c01047d6 <cpu_get_count>
c0107c04:	8b 1d e8 1a 11 c0    	mov    ebx,DWORD PTR ds:0xc0111ae8
c0107c0a:	6b c0 50             	imul   eax,eax,0x50
c0107c0d:	05 80 50 11 c0       	add    eax,0xc0115080
c0107c12:	89 43 04             	mov    DWORD PTR [ebx+0x4],eax
c0107c15:	e8 bc cb ff ff       	call   c01047d6 <cpu_get_count>
c0107c1a:	89 43 0c             	mov    DWORD PTR [ebx+0xc],eax
c0107c1d:	58                   	pop    eax
c0107c1e:	a1 e8 1a 11 c0       	mov    eax,ds:0xc0111ae8
c0107c23:	ff 70 04             	push   DWORD PTR [eax+0x4]
c0107c26:	e8 5a a8 ff ff       	call   c0102485 <vas_load>
c0107c2b:	83 c4 10             	add    esp,0x10
c0107c2e:	8d 65 f8             	lea    esp,[ebp-0x8]
c0107c31:	5b                   	pop    ebx
c0107c32:	5e                   	pop    esi
c0107c33:	5d                   	pop    ebp
c0107c34:	c3                   	ret    

c0107c35 <x86_get_entry>:
c0107c35:	55                   	push   ebp
c0107c36:	89 e5                	mov    ebp,esp
c0107c38:	57                   	push   edi
c0107c39:	56                   	push   esi
c0107c3a:	53                   	push   ebx
c0107c3b:	83 ec 0c             	sub    esp,0xc
c0107c3e:	8b 5d 0c             	mov    ebx,DWORD PTR [ebp+0xc]
c0107c41:	8b 7d 10             	mov    edi,DWORD PTR [ebp+0x10]
c0107c44:	89 de                	mov    esi,ebx
c0107c46:	c1 ee 16             	shr    esi,0x16
c0107c49:	8b 45 08             	mov    eax,DWORD PTR [ebp+0x8]
c0107c4c:	8b 10                	mov    edx,DWORD PTR [eax]
c0107c4e:	8b 52 04             	mov    edx,DWORD PTR [edx+0x4]
c0107c51:	f6 04 b2 01          	test   BYTE PTR [edx+esi*4],0x1
c0107c55:	75 27                	jne    c0107c7e <x86_get_entry+0x49>
c0107c57:	81 fb ff ff ff bf    	cmp    ebx,0xbfffffff
c0107c5d:	76 0d                	jbe    c0107c6c <x86_get_entry+0x37>
c0107c5f:	83 ec 0c             	sub    esp,0xc
c0107c62:	68 27 9d 10 c0       	push   0xc0109d27
c0107c67:	e8 08 ce ff ff       	call   c0104a74 <panic>
c0107c6c:	31 c9                	xor    ecx,ecx
c0107c6e:	89 f8                	mov    eax,edi
c0107c70:	84 c0                	test   al,al
c0107c72:	74 1d                	je     c0107c91 <x86_get_entry+0x5c>
c0107c74:	89 f1                	mov    ecx,esi
c0107c76:	8b 45 08             	mov    eax,DWORD PTR [ebp+0x8]
c0107c79:	e8 7d fd ff ff       	call   c01079fb <allocate_page_table>
c0107c7e:	c1 e6 0c             	shl    esi,0xc
c0107c81:	c1 eb 0a             	shr    ebx,0xa
c0107c84:	81 e3 fc 0f 00 00    	and    ebx,0xffc
c0107c8a:	8d 8c 1e 00 00 c0 ff 	lea    ecx,[esi+ebx*1-0x400000]
c0107c91:	89 c8                	mov    eax,ecx
c0107c93:	8d 65 f4             	lea    esp,[ebp-0xc]
c0107c96:	5b                   	pop    ebx
c0107c97:	5e                   	pop    esi
c0107c98:	5f                   	pop    edi
c0107c99:	5d                   	pop    ebp
c0107c9a:	c3                   	ret    

c0107c9b <x86_perform_copy_on_write>:
c0107c9b:	55                   	push   ebp
c0107c9c:	89 e5                	mov    ebp,esp
c0107c9e:	57                   	push   edi
c0107c9f:	56                   	push   esi
c0107ca0:	53                   	push   ebx
c0107ca1:	81 ec 10 10 00 00    	sub    esp,0x1010
c0107ca7:	89 c3                	mov    ebx,eax
c0107ca9:	6a 00                	push   0x0
c0107cab:	50                   	push   eax
c0107cac:	a1 e8 1a 11 c0       	mov    eax,ds:0xc0111ae8
c0107cb1:	ff 70 04             	push   DWORD PTR [eax+0x4]
c0107cb4:	e8 7c ff ff ff       	call   c0107c35 <x86_get_entry>
c0107cb9:	89 c6                	mov    esi,eax
c0107cbb:	89 df                	mov    edi,ebx
c0107cbd:	81 e7 00 f0 ff ff    	and    edi,0xfffff000
c0107cc3:	83 c4 0c             	add    esp,0xc
c0107cc6:	68 00 10 00 00       	push   0x1000
c0107ccb:	57                   	push   edi
c0107ccc:	8d 8d e8 ef ff ff    	lea    ecx,[ebp-0x1018]
c0107cd2:	51                   	push   ecx
c0107cd3:	e8 3e 95 ff ff       	call   c0101216 <memcpy>
c0107cd8:	e8 80 a4 ff ff       	call   c010215d <phys_allocate_page>
c0107cdd:	8b 16                	mov    edx,DWORD PTR [esi]
c0107cdf:	81 e2 00 f0 ff ff    	and    edx,0xfffff000
c0107ce5:	09 c2                	or     edx,eax
c0107ce7:	89 16                	mov    DWORD PTR [esi],edx
c0107ce9:	e8 41 a7 ff ff       	call   c010242f <vas_flush_tlb>
c0107cee:	83 c4 0c             	add    esp,0xc
c0107cf1:	68 00 10 00 00       	push   0x1000
c0107cf6:	8d 8d e8 ef ff ff    	lea    ecx,[ebp-0x1018]
c0107cfc:	51                   	push   ecx
c0107cfd:	57                   	push   edi
c0107cfe:	e8 13 95 ff ff       	call   c0101216 <memcpy>
c0107d03:	8b 06                	mov    eax,DWORD PTR [esi]
c0107d05:	80 e4 f7             	and    ah,0xf7
c0107d08:	83 c8 02             	or     eax,0x2
c0107d0b:	89 06                	mov    DWORD PTR [esi],eax
c0107d0d:	a1 e8 1a 11 c0       	mov    eax,ds:0xc0111ae8
c0107d12:	8b 70 04             	mov    esi,DWORD PTR [eax+0x4]
c0107d15:	83 c4 10             	add    esp,0x10
c0107d18:	50                   	push   eax
c0107d19:	6a 00                	push   0x0
c0107d1b:	53                   	push   ebx
c0107d1c:	56                   	push   esi
c0107d1d:	e8 13 ff ff ff       	call   c0107c35 <x86_get_entry>
c0107d22:	8b 10                	mov    edx,DWORD PTR [eax]
c0107d24:	80 e6 f7             	and    dh,0xf7
c0107d27:	83 ca 02             	or     edx,0x2
c0107d2a:	89 10                	mov    DWORD PTR [eax],edx
c0107d2c:	8b 76 04             	mov    esi,DWORD PTR [esi+0x4]
c0107d2f:	83 c4 10             	add    esp,0x10
c0107d32:	85 f6                	test   esi,esi
c0107d34:	75 e2                	jne    c0107d18 <x86_perform_copy_on_write+0x7d>
c0107d36:	8d 65 f4             	lea    esp,[ebp-0xc]
c0107d39:	5b                   	pop    ebx
c0107d3a:	5e                   	pop    esi
c0107d3b:	5f                   	pop    edi
c0107d3c:	5d                   	pop    ebp
c0107d3d:	c3                   	ret    

c0107d3e <arch_vas_create>:
c0107d3e:	55                   	push   ebp
c0107d3f:	89 e5                	mov    ebp,esp
c0107d41:	57                   	push   edi
c0107d42:	56                   	push   esi
c0107d43:	53                   	push   ebx
c0107d44:	83 ec 18             	sub    esp,0x18
c0107d47:	6a 08                	push   0x8
c0107d49:	e8 75 a1 ff ff       	call   c0101ec3 <malloc>
c0107d4e:	89 c3                	mov    ebx,eax
c0107d50:	8b 45 08             	mov    eax,DWORD PTR [ebp+0x8]
c0107d53:	89 18                	mov    DWORD PTR [eax],ebx
c0107d55:	e8 03 a4 ff ff       	call   c010215d <phys_allocate_page>
c0107d5a:	89 03                	mov    DWORD PTR [ebx],eax
c0107d5c:	c7 04 24 00 10 00 00 	mov    DWORD PTR [esp],0x1000
c0107d63:	e8 be a9 ff ff       	call   c0102726 <virt_allocate_unbacked_krnl_region>
c0107d68:	89 c6                	mov    esi,eax
c0107d6a:	89 43 04             	mov    DWORD PTR [ebx+0x4],eax
c0107d6d:	8b 3b                	mov    edi,DWORD PTR [ebx]
c0107d6f:	e8 b2 a6 ff ff       	call   c0102426 <vas_get_current_vas>
c0107d74:	6a 35                	push   0x35
c0107d76:	57                   	push   edi
c0107d77:	56                   	push   esi
c0107d78:	50                   	push   eax
c0107d79:	e8 2b fc ff ff       	call   c01079a9 <arch_vas_set_entry>
c0107d7e:	8b 43 04             	mov    eax,DWORD PTR [ebx+0x4]
c0107d81:	89 c2                	mov    edx,eax
c0107d83:	8d 88 00 0c 00 00    	lea    ecx,[eax+0xc00]
c0107d89:	83 c4 20             	add    esp,0x20
c0107d8c:	c7 00 00 00 00 00    	mov    DWORD PTR [eax],0x0
c0107d92:	83 c0 04             	add    eax,0x4
c0107d95:	39 c8                	cmp    eax,ecx
c0107d97:	75 f3                	jne    c0107d8c <arch_vas_create+0x4e>
c0107d99:	31 c0                	xor    eax,eax
c0107d9b:	8b b0 00 4c 11 c0    	mov    esi,DWORD PTR [eax-0x3feeb400]
c0107da1:	89 34 08             	mov    DWORD PTR [eax+ecx*1],esi
c0107da4:	83 c0 04             	add    eax,0x4
c0107da7:	3d fc 03 00 00       	cmp    eax,0x3fc
c0107dac:	75 ed                	jne    c0107d9b <arch_vas_create+0x5d>
c0107dae:	8b 03                	mov    eax,DWORD PTR [ebx]
c0107db0:	0d 03 01 00 00       	or     eax,0x103
c0107db5:	89 82 fc 0f 00 00    	mov    DWORD PTR [edx+0xffc],eax
c0107dbb:	8d 65 f4             	lea    esp,[ebp-0xc]
c0107dbe:	5b                   	pop    ebx
c0107dbf:	5e                   	pop    esi
c0107dc0:	5f                   	pop    edi
c0107dc1:	5d                   	pop    ebp
c0107dc2:	c3                   	ret    

c0107dc3 <arch_vas_copy>:
c0107dc3:	55                   	push   ebp
c0107dc4:	89 e5                	mov    ebp,esp
c0107dc6:	57                   	push   edi
c0107dc7:	56                   	push   esi
c0107dc8:	53                   	push   ebx
c0107dc9:	83 ec 38             	sub    esp,0x38
c0107dcc:	8b 5d 0c             	mov    ebx,DWORD PTR [ebp+0xc]
c0107dcf:	53                   	push   ebx
c0107dd0:	e8 69 ff ff ff       	call   c0107d3e <arch_vas_create>
c0107dd5:	8b 45 08             	mov    eax,DWORD PTR [ebp+0x8]
c0107dd8:	8b 00                	mov    eax,DWORD PTR [eax]
c0107dda:	8b 40 04             	mov    eax,DWORD PTR [eax+0x4]
c0107ddd:	89 45 e0             	mov    DWORD PTR [ebp-0x20],eax
c0107de0:	8b 03                	mov    eax,DWORD PTR [ebx]
c0107de2:	8b 40 04             	mov    eax,DWORD PTR [eax+0x4]
c0107de5:	89 45 dc             	mov    DWORD PTR [ebp-0x24],eax
c0107de8:	83 c4 10             	add    esp,0x10
c0107deb:	8b 5d e0             	mov    ebx,DWORD PTR [ebp-0x20]
c0107dee:	c7 45 e4 00 00 00 00 	mov    DWORD PTR [ebp-0x1c],0x0
c0107df5:	8b 13                	mov    edx,DWORD PTR [ebx]
c0107df7:	8b 4d dc             	mov    ecx,DWORD PTR [ebp-0x24]
c0107dfa:	2b 4d e0             	sub    ecx,DWORD PTR [ebp-0x20]
c0107dfd:	01 d9                	add    ecx,ebx
c0107dff:	f6 c2 01             	test   dl,0x1
c0107e02:	0f 84 90 00 00 00    	je     c0107e98 <arch_vas_copy+0xd5>
c0107e08:	89 4d d4             	mov    DWORD PTR [ebp-0x2c],ecx
c0107e0b:	89 55 d8             	mov    DWORD PTR [ebp-0x28],edx
c0107e0e:	e8 4a a3 ff ff       	call   c010215d <phys_allocate_page>
c0107e13:	89 c7                	mov    edi,eax
c0107e15:	83 ec 0c             	sub    esp,0xc
c0107e18:	68 00 10 00 00       	push   0x1000
c0107e1d:	e8 04 a9 ff ff       	call   c0102726 <virt_allocate_unbacked_krnl_region>
c0107e22:	89 c6                	mov    esi,eax
c0107e24:	e8 fd a5 ff ff       	call   c0102426 <vas_get_current_vas>
c0107e29:	6a 31                	push   0x31
c0107e2b:	57                   	push   edi
c0107e2c:	56                   	push   esi
c0107e2d:	50                   	push   eax
c0107e2e:	e8 76 fb ff ff       	call   c01079a9 <arch_vas_set_entry>
c0107e33:	8b 55 d8             	mov    edx,DWORD PTR [ebp-0x28]
c0107e36:	81 e2 ff 0f 00 00    	and    edx,0xfff
c0107e3c:	09 d7                	or     edi,edx
c0107e3e:	8b 4d d4             	mov    ecx,DWORD PTR [ebp-0x2c]
c0107e41:	89 39                	mov    DWORD PTR [ecx],edi
c0107e43:	83 c4 20             	add    esp,0x20
c0107e46:	31 d2                	xor    edx,edx
c0107e48:	8b 45 e4             	mov    eax,DWORD PTR [ebp-0x1c]
c0107e4b:	2d 00 00 40 00       	sub    eax,0x400000
c0107e50:	89 45 d8             	mov    DWORD PTR [ebp-0x28],eax
c0107e53:	8b 45 d8             	mov    eax,DWORD PTR [ebp-0x28]
c0107e56:	8d 0c 10             	lea    ecx,[eax+edx*1]
c0107e59:	8b 01                	mov    eax,DWORD PTR [ecx]
c0107e5b:	8d 3c 32             	lea    edi,[edx+esi*1]
c0107e5e:	a8 02                	test   al,0x2
c0107e60:	75 04                	jne    c0107e66 <arch_vas_copy+0xa3>
c0107e62:	89 07                	mov    DWORD PTR [edi],eax
c0107e64:	eb 12                	jmp    c0107e78 <arch_vas_copy+0xb5>
c0107e66:	83 e0 fd             	and    eax,0xfffffffd
c0107e69:	80 cc 08             	or     ah,0x8
c0107e6c:	89 07                	mov    DWORD PTR [edi],eax
c0107e6e:	8b 01                	mov    eax,DWORD PTR [ecx]
c0107e70:	83 e0 fd             	and    eax,0xfffffffd
c0107e73:	80 cc 08             	or     ah,0x8
c0107e76:	89 01                	mov    DWORD PTR [ecx],eax
c0107e78:	83 c2 04             	add    edx,0x4
c0107e7b:	81 fa 00 10 00 00    	cmp    edx,0x1000
c0107e81:	75 d0                	jne    c0107e53 <arch_vas_copy+0x90>
c0107e83:	e8 9e a5 ff ff       	call   c0102426 <vas_get_current_vas>
c0107e88:	6a 00                	push   0x0
c0107e8a:	6a 00                	push   0x0
c0107e8c:	56                   	push   esi
c0107e8d:	50                   	push   eax
c0107e8e:	e8 16 fb ff ff       	call   c01079a9 <arch_vas_set_entry>
c0107e93:	83 c4 10             	add    esp,0x10
c0107e96:	eb 02                	jmp    c0107e9a <arch_vas_copy+0xd7>
c0107e98:	89 11                	mov    DWORD PTR [ecx],edx
c0107e9a:	83 c3 04             	add    ebx,0x4
c0107e9d:	81 45 e4 00 10 00 00 	add    DWORD PTR [ebp-0x1c],0x1000
c0107ea4:	81 7d e4 00 00 30 00 	cmp    DWORD PTR [ebp-0x1c],0x300000
c0107eab:	0f 85 44 ff ff ff    	jne    c0107df5 <arch_vas_copy+0x32>
c0107eb1:	8d 65 f4             	lea    esp,[ebp-0xc]
c0107eb4:	5b                   	pop    ebx
c0107eb5:	5e                   	pop    esi
c0107eb6:	5f                   	pop    edi
c0107eb7:	5d                   	pop    ebp
c0107eb8:	c3                   	ret    

c0107eb9 <x86_handle_page_fault>:
c0107eb9:	55                   	push   ebp
c0107eba:	89 e5                	mov    ebp,esp
c0107ebc:	57                   	push   edi
c0107ebd:	56                   	push   esi
c0107ebe:	53                   	push   ebx
c0107ebf:	83 ec 0c             	sub    esp,0xc
c0107ec2:	8b 7d 08             	mov    edi,DWORD PTR [ebp+0x8]
c0107ec5:	e8 26 04 00 00       	call   c01082f0 <x86_get_cr2>
c0107eca:	89 c3                	mov    ebx,eax
c0107ecc:	83 ec 0c             	sub    esp,0xc
c0107ecf:	a1 e8 1a 11 c0       	mov    eax,ds:0xc0111ae8
c0107ed4:	8b 40 04             	mov    eax,DWORD PTR [eax+0x4]
c0107ed7:	83 c0 08             	add    eax,0x8
c0107eda:	50                   	push   eax
c0107edb:	e8 9d b4 ff ff       	call   c010337d <spinlock_acquire>
c0107ee0:	83 c4 0c             	add    esp,0xc
c0107ee3:	6a 00                	push   0x0
c0107ee5:	53                   	push   ebx
c0107ee6:	a1 e8 1a 11 c0       	mov    eax,ds:0xc0111ae8
c0107eeb:	ff 70 04             	push   DWORD PTR [eax+0x4]
c0107eee:	e8 42 fd ff ff       	call   c0107c35 <x86_get_entry>
c0107ef3:	83 c4 10             	add    esp,0x10
c0107ef6:	85 c0                	test   eax,eax
c0107ef8:	75 1e                	jne    c0107f18 <x86_handle_page_fault+0x5f>
c0107efa:	ff 77 34             	push   DWORD PTR [edi+0x34]
c0107efd:	ff 77 38             	push   DWORD PTR [edi+0x38]
c0107f00:	53                   	push   ebx
c0107f01:	68 5e 9d 10 c0       	push   0xc0109d5e
c0107f06:	e8 af c9 ff ff       	call   c01048ba <kprintf>
c0107f0b:	83 c4 10             	add    esp,0x10
c0107f0e:	b8 13 00 00 00       	mov    eax,0x13
c0107f13:	e9 f7 00 00 00       	jmp    c010800f <x86_handle_page_fault+0x156>
c0107f18:	89 c6                	mov    esi,eax
c0107f1a:	8b 00                	mov    eax,DWORD PTR [eax]
c0107f1c:	89 c2                	mov    edx,eax
c0107f1e:	81 e2 01 04 00 00    	and    edx,0x401
c0107f24:	81 fa 00 04 00 00    	cmp    edx,0x400
c0107f2a:	75 18                	jne    c0107f44 <x86_handle_page_fault+0x8b>
c0107f2c:	e8 2c a2 ff ff       	call   c010215d <phys_allocate_page>
c0107f31:	8b 16                	mov    edx,DWORD PTR [esi]
c0107f33:	80 e6 fb             	and    dh,0xfb
c0107f36:	09 c2                	or     edx,eax
c0107f38:	83 ca 01             	or     edx,0x1
c0107f3b:	89 16                	mov    DWORD PTR [esi],edx
c0107f3d:	e8 a7 03 00 00       	call   c01082e9 <arch_flush_tlb>
c0107f42:	eb 13                	jmp    c0107f57 <x86_handle_page_fault+0x9e>
c0107f44:	25 01 08 00 00       	and    eax,0x801
c0107f49:	3d 01 08 00 00       	cmp    eax,0x801
c0107f4e:	75 20                	jne    c0107f70 <x86_handle_page_fault+0xb7>
c0107f50:	89 d8                	mov    eax,ebx
c0107f52:	e8 44 fd ff ff       	call   c0107c9b <x86_perform_copy_on_write>
c0107f57:	83 ec 0c             	sub    esp,0xc
c0107f5a:	a1 e8 1a 11 c0       	mov    eax,ds:0xc0111ae8
c0107f5f:	8b 40 04             	mov    eax,DWORD PTR [eax+0x4]
c0107f62:	83 c0 08             	add    eax,0x8
c0107f65:	50                   	push   eax
c0107f66:	e8 17 b4 ff ff       	call   c0103382 <spinlock_release>
c0107f6b:	e9 9a 00 00 00       	jmp    c010800a <x86_handle_page_fault+0x151>
c0107f70:	ff 77 34             	push   DWORD PTR [edi+0x34]
c0107f73:	ff 77 38             	push   DWORD PTR [edi+0x38]
c0107f76:	53                   	push   ebx
c0107f77:	68 92 9d 10 c0       	push   0xc0109d92
c0107f7c:	e8 39 c9 ff ff       	call   c01048ba <kprintf>
c0107f81:	8b 36                	mov    esi,DWORD PTR [esi]
c0107f83:	83 c4 10             	add    esp,0x10
c0107f86:	0f ba e6 08          	bt     esi,0x8
c0107f8a:	73 16                	jae    c0107fa2 <x86_handle_page_fault+0xe9>
c0107f8c:	ff 77 34             	push   DWORD PTR [edi+0x34]
c0107f8f:	ff 77 38             	push   DWORD PTR [edi+0x38]
c0107f92:	53                   	push   ebx
c0107f93:	68 bb 9d 10 c0       	push   0xc0109dbb
c0107f98:	e8 1d c9 ff ff       	call   c01048ba <kprintf>
c0107f9d:	83 c4 10             	add    esp,0x10
c0107fa0:	eb fe                	jmp    c0107fa0 <x86_handle_page_fault+0xe7>
c0107fa2:	83 ec 0c             	sub    esp,0xc
c0107fa5:	a1 e8 1a 11 c0       	mov    eax,ds:0xc0111ae8
c0107faa:	8b 40 04             	mov    eax,DWORD PTR [eax+0x4]
c0107fad:	83 c0 08             	add    eax,0x8
c0107fb0:	50                   	push   eax
c0107fb1:	e8 cc b3 ff ff       	call   c0103382 <spinlock_release>
c0107fb6:	e8 a2 a1 ff ff       	call   c010215d <phys_allocate_page>
c0107fbb:	89 c7                	mov    edi,eax
c0107fbd:	a1 e8 1a 11 c0       	mov    eax,ds:0xc0111ae8
c0107fc2:	8b 40 04             	mov    eax,DWORD PTR [eax+0x4]
c0107fc5:	83 c0 08             	add    eax,0x8
c0107fc8:	89 04 24             	mov    DWORD PTR [esp],eax
c0107fcb:	e8 ad b3 ff ff       	call   c010337d <spinlock_acquire>
c0107fd0:	81 e3 00 f0 ff ff    	and    ebx,0xfffff000
c0107fd6:	e8 4b a4 ff ff       	call   c0102426 <vas_get_current_vas>
c0107fdb:	6a 30                	push   0x30
c0107fdd:	57                   	push   edi
c0107fde:	53                   	push   ebx
c0107fdf:	50                   	push   eax
c0107fe0:	e8 c4 f9 ff ff       	call   c01079a9 <arch_vas_set_entry>
c0107fe5:	83 c4 18             	add    esp,0x18
c0107fe8:	c1 ee 0c             	shr    esi,0xc
c0107feb:	56                   	push   esi
c0107fec:	53                   	push   ebx
c0107fed:	e8 7a a3 ff ff       	call   c010236c <swapfile_read>
c0107ff2:	a1 e8 1a 11 c0       	mov    eax,ds:0xc0111ae8
c0107ff7:	8b 40 04             	mov    eax,DWORD PTR [eax+0x4]
c0107ffa:	83 c0 08             	add    eax,0x8
c0107ffd:	89 04 24             	mov    DWORD PTR [esp],eax
c0108000:	e8 7d b3 ff ff       	call   c0103382 <spinlock_release>
c0108005:	e8 df 02 00 00       	call   c01082e9 <arch_flush_tlb>
c010800a:	83 c4 10             	add    esp,0x10
c010800d:	31 c0                	xor    eax,eax
c010800f:	8d 65 f4             	lea    esp,[ebp-0xc]
c0108012:	5b                   	pop    ebx
c0108013:	5e                   	pop    esi
c0108014:	5f                   	pop    edi
c0108015:	5d                   	pop    ebp
c0108016:	c3                   	ret    

c0108017 <arch_vas_get_entry>:
c0108017:	55                   	push   ebp
c0108018:	89 e5                	mov    ebp,esp
c010801a:	83 ec 0c             	sub    esp,0xc
c010801d:	6a 01                	push   0x1
c010801f:	ff 75 0c             	push   DWORD PTR [ebp+0xc]
c0108022:	ff 75 08             	push   DWORD PTR [ebp+0x8]
c0108025:	e8 0b fc ff ff       	call   c0107c35 <x86_get_entry>
c010802a:	8b 08                	mov    ecx,DWORD PTR [eax]
c010802c:	89 ca                	mov    edx,ecx
c010802e:	d1 ea                	shr    edx,1
c0108030:	83 e2 01             	and    edx,0x1
c0108033:	83 c4 10             	add    esp,0x10
c0108036:	f6 c1 04             	test   cl,0x4
c0108039:	74 03                	je     c010803e <arch_vas_get_entry+0x27>
c010803b:	83 ca 04             	or     edx,0x4
c010803e:	f6 c1 01             	test   cl,0x1
c0108041:	74 03                	je     c0108046 <arch_vas_get_entry+0x2f>
c0108043:	83 ca 10             	or     edx,0x10
c0108046:	0f ba e1 08          	bt     ecx,0x8
c010804a:	73 03                	jae    c010804f <arch_vas_get_entry+0x38>
c010804c:	83 ca 20             	or     edx,0x20
c010804f:	0f ba e1 0b          	bt     ecx,0xb
c0108053:	73 03                	jae    c0108058 <arch_vas_get_entry+0x41>
c0108055:	83 ca 08             	or     edx,0x8
c0108058:	0f ba e1 0a          	bt     ecx,0xa
c010805c:	73 03                	jae    c0108061 <arch_vas_get_entry+0x4a>
c010805e:	83 ca 40             	or     edx,0x40
c0108061:	8b 4d 14             	mov    ecx,DWORD PTR [ebp+0x14]
c0108064:	89 11                	mov    DWORD PTR [ecx],edx
c0108066:	8b 00                	mov    eax,DWORD PTR [eax]
c0108068:	25 00 f0 ff ff       	and    eax,0xfffff000
c010806d:	8b 55 10             	mov    edx,DWORD PTR [ebp+0x10]
c0108070:	89 02                	mov    DWORD PTR [edx],eax
c0108072:	c9                   	leave  
c0108073:	c3                   	ret    

c0108074 <arch_find_page_replacement_virt_address>:
c0108074:	55                   	push   ebp
c0108075:	89 e5                	mov    ebp,esp
c0108077:	53                   	push   ebx
c0108078:	52                   	push   edx
c0108079:	31 db                	xor    ebx,ebx
c010807b:	50                   	push   eax
c010807c:	6a 00                	push   0x0
c010807e:	53                   	push   ebx
c010807f:	ff 75 08             	push   DWORD PTR [ebp+0x8]
c0108082:	e8 ae fb ff ff       	call   c0107c35 <x86_get_entry>
c0108087:	83 c4 10             	add    esp,0x10
c010808a:	85 c0                	test   eax,eax
c010808c:	74 0c                	je     c010809a <arch_find_page_replacement_virt_address+0x26>
c010808e:	8b 00                	mov    eax,DWORD PTR [eax]
c0108090:	25 01 01 00 00       	and    eax,0x101
c0108095:	48                   	dec    eax
c0108096:	75 1c                	jne    c01080b4 <arch_find_page_replacement_virt_address+0x40>
c0108098:	eb 35                	jmp    c01080cf <arch_find_page_replacement_virt_address+0x5b>
c010809a:	81 fb ff ff 3f ff    	cmp    ebx,0xff3fffff
c01080a0:	77 12                	ja     c01080b4 <arch_find_page_replacement_virt_address+0x40>
c01080a2:	81 c3 00 00 40 00    	add    ebx,0x400000
c01080a8:	81 e3 00 00 c0 ff    	and    ebx,0xffc00000
c01080ae:	81 eb 00 10 00 00    	sub    ebx,0x1000
c01080b4:	81 c3 00 10 00 00    	add    ebx,0x1000
c01080ba:	81 fb ff ff 7f ff    	cmp    ebx,0xff7fffff
c01080c0:	76 b9                	jbe    c010807b <arch_find_page_replacement_virt_address+0x7>
c01080c2:	83 ec 0c             	sub    esp,0xc
c01080c5:	68 f1 9d 10 c0       	push   0xc0109df1
c01080ca:	e8 a5 c9 ff ff       	call   c0104a74 <panic>
c01080cf:	89 d8                	mov    eax,ebx
c01080d1:	8b 5d fc             	mov    ebx,DWORD PTR [ebp-0x4]
c01080d4:	c9                   	leave  
c01080d5:	c3                   	ret    

c01080d6 <arch_set_forked_kernel_stack>:
c01080d6:	55                   	push   ebp
c01080d7:	89 e5                	mov    ebp,esp
c01080d9:	57                   	push   edi
c01080da:	56                   	push   esi
c01080db:	53                   	push   ebx
c01080dc:	83 ec 10             	sub    esp,0x10
c01080df:	8b 4d 08             	mov    ecx,DWORD PTR [ebp+0x8]
c01080e2:	8b 75 0c             	mov    esi,DWORD PTR [ebp+0xc]
c01080e5:	8b 7d 00             	mov    edi,DWORD PTR [ebp+0x0]
c01080e8:	8b 41 04             	mov    eax,DWORD PTR [ecx+0x4]
c01080eb:	8b 5e 04             	mov    ebx,DWORD PTR [esi+0x4]
c01080ee:	29 c3                	sub    ebx,eax
c01080f0:	8b 56 48             	mov    edx,DWORD PTR [esi+0x48]
c01080f3:	52                   	push   edx
c01080f4:	2b 41 48             	sub    eax,DWORD PTR [ecx+0x48]
c01080f7:	50                   	push   eax
c01080f8:	8b 46 04             	mov    eax,DWORD PTR [esi+0x4]
c01080fb:	29 d0                	sub    eax,edx
c01080fd:	50                   	push   eax
c01080fe:	e8 13 91 ff ff       	call   c0101216 <memcpy>
c0108103:	8d 44 1d 00          	lea    eax,[ebp+ebx*1+0x0]
c0108107:	89 46 08             	mov    DWORD PTR [esi+0x8],eax
c010810a:	8b 45 04             	mov    eax,DWORD PTR [ebp+0x4]
c010810d:	89 44 1d fc          	mov    DWORD PTR [ebp+ebx*1-0x4],eax
c0108111:	c7 44 1d f8 00 00 00 00 	mov    DWORD PTR [ebp+ebx*1-0x8],0x0
c0108119:	c7 44 1d f4 00 00 00 00 	mov    DWORD PTR [ebp+ebx*1-0xc],0x0
c0108121:	c7 44 1d f0 00 00 00 00 	mov    DWORD PTR [ebp+ebx*1-0x10],0x0
c0108129:	01 df                	add    edi,ebx
c010812b:	89 7c 1d ec          	mov    DWORD PTR [ebp+ebx*1-0x14],edi
c010812f:	83 6e 08 14          	sub    DWORD PTR [esi+0x8],0x14
c0108133:	83 c4 10             	add    esp,0x10
c0108136:	8d 65 f4             	lea    esp,[ebp-0xc]
c0108139:	5b                   	pop    ebx
c010813a:	5e                   	pop    esi
c010813b:	5f                   	pop    edi
c010813c:	5d                   	pop    ebp
c010813d:	c3                   	ret    

c010813e <test_stack_canary>:
c010813e:	55                   	push   ebp
c010813f:	89 e5                	mov    ebp,esp
c0108141:	83 ec 14             	sub    esp,0x14
c0108144:	68 a0 1a 11 c0       	push   0xc0111aa0
c0108149:	e8 2f b2 ff ff       	call   c010337d <spinlock_acquire>
c010814e:	e8 69 b9 ff ff       	call   c0103abc <thread_schedule>
c0108153:	c7 04 24 a0 1a 11 c0 	mov    DWORD PTR [esp],0xc0111aa0
c010815a:	e8 23 b2 ff ff       	call   c0103382 <spinlock_release>
c010815f:	e8 da ff ff ff       	call   c010813e <test_stack_canary>
c0108164:	c7 04 24 ff 9d 10 c0 	mov    DWORD PTR [esp],0xc0109dff
c010816b:	e8 4a c7 ff ff       	call   c01048ba <kprintf>
c0108170:	83 c4 10             	add    esp,0x10
c0108173:	c9                   	leave  
c0108174:	c3                   	ret    

c0108175 <test_heap>:
c0108175:	55                   	push   ebp
c0108176:	89 e5                	mov    ebp,esp
c0108178:	56                   	push   esi
c0108179:	53                   	push   ebx
c010817a:	31 db                	xor    ebx,ebx
c010817c:	83 ec 0c             	sub    esp,0xc
c010817f:	6a 7b                	push   0x7b
c0108181:	e8 3d 9d ff ff       	call   c0101ec3 <malloc>
c0108186:	89 c6                	mov    esi,eax
c0108188:	83 c4 0c             	add    esp,0xc
c010818b:	6a 7b                	push   0x7b
c010818d:	53                   	push   ebx
c010818e:	50                   	push   eax
c010818f:	e8 c7 90 ff ff       	call   c010125b <memset>
c0108194:	89 34 24             	mov    DWORD PTR [esp],esi
c0108197:	e8 43 9e ff ff       	call   c0101fdf <free>
c010819c:	43                   	inc    ebx
c010819d:	83 c4 10             	add    esp,0x10
c01081a0:	81 fb 20 a1 07 00    	cmp    ebx,0x7a120
c01081a6:	75 d4                	jne    c010817c <test_heap+0x7>
c01081a8:	31 db                	xor    ebx,ebx
c01081aa:	83 ec 0c             	sub    esp,0xc
c01081ad:	68 40 e2 01 00       	push   0x1e240
c01081b2:	e8 0c 9d ff ff       	call   c0101ec3 <malloc>
c01081b7:	89 c6                	mov    esi,eax
c01081b9:	83 c4 0c             	add    esp,0xc
c01081bc:	68 40 e2 01 00       	push   0x1e240
c01081c1:	53                   	push   ebx
c01081c2:	50                   	push   eax
c01081c3:	e8 93 90 ff ff       	call   c010125b <memset>
c01081c8:	89 34 24             	mov    DWORD PTR [esp],esi
c01081cb:	e8 0f 9e ff ff       	call   c0101fdf <free>
c01081d0:	43                   	inc    ebx
c01081d1:	83 c4 10             	add    esp,0x10
c01081d4:	81 fb 88 13 00 00    	cmp    ebx,0x1388
c01081da:	75 ce                	jne    c01081aa <test_heap+0x35>
c01081dc:	83 ec 0c             	sub    esp,0xc
c01081df:	68 08 9e 10 c0       	push   0xc0109e08
c01081e4:	e8 d1 c6 ff ff       	call   c01048ba <kprintf>
c01081e9:	83 c4 10             	add    esp,0x10
c01081ec:	8d 65 f8             	lea    esp,[ebp-0x8]
c01081ef:	5b                   	pop    ebx
c01081f0:	5e                   	pop    esi
c01081f1:	5d                   	pop    ebp
c01081f2:	c3                   	ret    

c01081f3 <test_sleep>:
c01081f3:	55                   	push   ebp
c01081f4:	89 e5                	mov    ebp,esp
c01081f6:	53                   	push   ebx
c01081f7:	52                   	push   edx
c01081f8:	bb 0a 00 00 00       	mov    ebx,0xa
c01081fd:	50                   	push   eax
c01081fe:	50                   	push   eax
c01081ff:	53                   	push   ebx
c0108200:	68 0f 9e 10 c0       	push   0xc0109e0f
c0108205:	e8 b0 c6 ff ff       	call   c01048ba <kprintf>
c010820a:	c7 04 24 01 00 00 00 	mov    DWORD PTR [esp],0x1
c0108211:	e8 27 bb ff ff       	call   c0103d3d <thread_sleep>
c0108216:	83 c4 10             	add    esp,0x10
c0108219:	4b                   	dec    ebx
c010821a:	75 e1                	jne    c01081fd <test_sleep+0xa>
c010821c:	83 ec 0c             	sub    esp,0xc
c010821f:	68 16 9e 10 c0       	push   0xc0109e16
c0108224:	e8 91 c6 ff ff       	call   c01048ba <kprintf>
c0108229:	c7 04 24 01 00 00 00 	mov    DWORD PTR [esp],0x1
c0108230:	e8 08 bb ff ff       	call   c0103d3d <thread_sleep>
c0108235:	83 c4 10             	add    esp,0x10
c0108238:	8b 5d fc             	mov    ebx,DWORD PTR [ebp-0x4]
c010823b:	c9                   	leave  
c010823c:	c3                   	ret    
c010823d:	66 90                	xchg   ax,ax
c010823f:	90                   	nop

c0108240 <vesa_depth>:
	...

c0108241 <vesa_framebuffer>:
c0108241:	00 00                	add    BYTE PTR [eax],al
	...

c0108245 <vesa_width>:
	...

c0108247 <vesa_height>:
	...

c0108249 <vesa_pitch>:
	...

c010824b <x86_grub_table>:
c010824b:	00 00                	add    BYTE PTR [eax],al
	...

c010824f <kernel_entry_point>:
c010824f:	89 1d 4b 82 10 c0    	mov    DWORD PTR ds:0xc010824b,ebx
c0108255:	66 a1 10 00 07 00    	mov    ax,ds:0x70010
c010825b:	66 a3 49 82 10 c0    	mov    ds:0xc0108249,ax
c0108261:	66 a1 12 00 07 00    	mov    ax,ds:0x70012
c0108267:	66 a3 45 82 10 c0    	mov    ds:0xc0108245,ax
c010826d:	66 a1 14 00 07 00    	mov    ax,ds:0x70014
c0108273:	66 a3 47 82 10 c0    	mov    ds:0xc0108247,ax
c0108279:	a0 19 00 07 00       	mov    al,ds:0x70019
c010827e:	a2 40 82 10 c0       	mov    ds:0xc0108240,al
c0108283:	a1 28 00 07 00       	mov    eax,ds:0x70028
c0108288:	a3 41 82 10 c0       	mov    ds:0xc0108241,eax
c010828d:	c7 05 00 a0 11 c0 00 00 00 00 	mov    DWORD PTR ds:0xc011a000,0x0
c0108297:	0f 20 d9             	mov    ecx,cr3
c010829a:	0f 22 d9             	mov    cr3,ecx
c010829d:	bc 00 a0 11 c0       	mov    esp,0xc011a000
c01082a2:	e8 57 9a ff ff       	call   c0101cfe <kernel_main>
c01082a7:	fa                   	cli    
c01082a8:	f4                   	hlt    
c01082a9:	eb fe                	jmp    c01082a9 <kernel_entry_point+0x5a>
c01082ab:	66 90                	xchg   ax,ax
c01082ad:	66 90                	xchg   ax,ax
c01082af:	90                   	nop

c01082b0 <x86_gdt_load>:
c01082b0:	8b 44 24 04          	mov    eax,DWORD PTR [esp+0x4]
c01082b4:	0f 01 10             	lgdtd  [eax]
c01082b7:	ea be 82 10 c0 08 00 	jmp    0x8:0xc01082be

c01082be <x86_gdt_load.reloadSegments>:
c01082be:	66 b8 10 00          	mov    ax,0x10
c01082c2:	8e d8                	mov    ds,eax
c01082c4:	8e c0                	mov    es,eax
c01082c6:	8e e0                	mov    fs,eax
c01082c8:	8e e8                	mov    gs,eax
c01082ca:	8e d0                	mov    ss,eax
c01082cc:	c3                   	ret    
c01082cd:	66 90                	xchg   ax,ax
c01082cf:	90                   	nop

c01082d0 <x86_idt_load>:
c01082d0:	8b 44 24 04          	mov    eax,DWORD PTR [esp+0x4]
c01082d4:	0f 01 18             	lidtd  [eax]
c01082d7:	c3                   	ret    
c01082d8:	66 90                	xchg   ax,ax
c01082da:	66 90                	xchg   ax,ax
c01082dc:	66 90                	xchg   ax,ax
c01082de:	66 90                	xchg   ax,ax

c01082e0 <arch_read_timestamp>:
c01082e0:	0f 31                	rdtsc  
c01082e2:	c3                   	ret    

c01082e3 <arch_enable_interrupts>:
c01082e3:	fb                   	sti    
c01082e4:	c3                   	ret    

c01082e5 <arch_disable_interrupts>:
c01082e5:	fa                   	cli    
c01082e6:	c3                   	ret    

c01082e7 <arch_stall_processor>:
c01082e7:	f4                   	hlt    
c01082e8:	c3                   	ret    

c01082e9 <arch_flush_tlb>:
c01082e9:	0f 20 d8             	mov    eax,cr3
c01082ec:	0f 22 d8             	mov    cr3,eax
c01082ef:	c3                   	ret    

c01082f0 <x86_get_cr2>:
c01082f0:	0f 20 d0             	mov    eax,cr2
c01082f3:	c3                   	ret    

c01082f4 <x86_are_irqs_on>:
c01082f4:	9c                   	pushf  
c01082f5:	58                   	pop    eax
c01082f6:	25 00 02 00 00       	and    eax,0x200
c01082fb:	c1 e8 09             	shr    eax,0x9
c01082fe:	c3                   	ret    
c01082ff:	90                   	nop

c0108300 <isr0>:
c0108300:	6a 00                	push   0x0
c0108302:	6a 00                	push   0x0
c0108304:	e9 06 01 00 00       	jmp    c010840f <int_common_handler>

c0108309 <isr1>:
c0108309:	6a 00                	push   0x0
c010830b:	6a 01                	push   0x1
c010830d:	e9 fd 00 00 00       	jmp    c010840f <int_common_handler>

c0108312 <isr2>:
c0108312:	6a 00                	push   0x0
c0108314:	6a 02                	push   0x2
c0108316:	e9 f4 00 00 00       	jmp    c010840f <int_common_handler>

c010831b <isr3>:
c010831b:	6a 00                	push   0x0
c010831d:	6a 03                	push   0x3
c010831f:	e9 eb 00 00 00       	jmp    c010840f <int_common_handler>

c0108324 <isr4>:
c0108324:	6a 00                	push   0x0
c0108326:	6a 04                	push   0x4
c0108328:	e9 e2 00 00 00       	jmp    c010840f <int_common_handler>

c010832d <isr5>:
c010832d:	6a 00                	push   0x0
c010832f:	6a 05                	push   0x5
c0108331:	e9 d9 00 00 00       	jmp    c010840f <int_common_handler>

c0108336 <isr6>:
c0108336:	6a 00                	push   0x0
c0108338:	6a 06                	push   0x6
c010833a:	e9 d0 00 00 00       	jmp    c010840f <int_common_handler>

c010833f <isr7>:
c010833f:	6a 00                	push   0x0
c0108341:	6a 07                	push   0x7
c0108343:	e9 c7 00 00 00       	jmp    c010840f <int_common_handler>

c0108348 <isr8>:
c0108348:	6a 08                	push   0x8
c010834a:	e9 c0 00 00 00       	jmp    c010840f <int_common_handler>

c010834f <isr9>:
c010834f:	6a 00                	push   0x0
c0108351:	6a 09                	push   0x9
c0108353:	e9 b7 00 00 00       	jmp    c010840f <int_common_handler>

c0108358 <isr10>:
c0108358:	6a 0a                	push   0xa
c010835a:	e9 b0 00 00 00       	jmp    c010840f <int_common_handler>

c010835f <isr11>:
c010835f:	6a 0b                	push   0xb
c0108361:	e9 a9 00 00 00       	jmp    c010840f <int_common_handler>

c0108366 <isr12>:
c0108366:	6a 0c                	push   0xc
c0108368:	e9 a2 00 00 00       	jmp    c010840f <int_common_handler>

c010836d <isr13>:
c010836d:	6a 0d                	push   0xd
c010836f:	e9 9b 00 00 00       	jmp    c010840f <int_common_handler>

c0108374 <isr14>:
c0108374:	6a 0e                	push   0xe
c0108376:	e9 94 00 00 00       	jmp    c010840f <int_common_handler>

c010837b <isr15>:
c010837b:	6a 00                	push   0x0
c010837d:	6a 0f                	push   0xf
c010837f:	e9 8b 00 00 00       	jmp    c010840f <int_common_handler>

c0108384 <isr16>:
c0108384:	6a 00                	push   0x0
c0108386:	6a 10                	push   0x10
c0108388:	e9 82 00 00 00       	jmp    c010840f <int_common_handler>

c010838d <isr17>:
c010838d:	6a 11                	push   0x11
c010838f:	eb 7e                	jmp    c010840f <int_common_handler>

c0108391 <isr18>:
c0108391:	6a 00                	push   0x0
c0108393:	6a 12                	push   0x12
c0108395:	eb 78                	jmp    c010840f <int_common_handler>

c0108397 <isr19>:
c0108397:	6a 00                	push   0x0
c0108399:	6a 13                	push   0x13
c010839b:	eb 72                	jmp    c010840f <int_common_handler>

c010839d <isr20>:
c010839d:	6a 00                	push   0x0
c010839f:	6a 14                	push   0x14
c01083a1:	eb 6c                	jmp    c010840f <int_common_handler>

c01083a3 <isr21>:
c01083a3:	6a 00                	push   0x0
c01083a5:	6a 15                	push   0x15
c01083a7:	eb 66                	jmp    c010840f <int_common_handler>

c01083a9 <isr96>:
c01083a9:	6a 00                	push   0x0
c01083ab:	6a 60                	push   0x60
c01083ad:	eb 60                	jmp    c010840f <int_common_handler>

c01083af <irq0>:
c01083af:	6a 00                	push   0x0
c01083b1:	6a 20                	push   0x20
c01083b3:	eb 5a                	jmp    c010840f <int_common_handler>

c01083b5 <irq1>:
c01083b5:	6a 00                	push   0x0
c01083b7:	6a 21                	push   0x21
c01083b9:	eb 54                	jmp    c010840f <int_common_handler>

c01083bb <irq2>:
c01083bb:	6a 00                	push   0x0
c01083bd:	6a 22                	push   0x22
c01083bf:	eb 4e                	jmp    c010840f <int_common_handler>

c01083c1 <irq3>:
c01083c1:	6a 00                	push   0x0
c01083c3:	6a 23                	push   0x23
c01083c5:	eb 48                	jmp    c010840f <int_common_handler>

c01083c7 <irq4>:
c01083c7:	6a 00                	push   0x0
c01083c9:	6a 24                	push   0x24
c01083cb:	eb 42                	jmp    c010840f <int_common_handler>

c01083cd <irq5>:
c01083cd:	6a 00                	push   0x0
c01083cf:	6a 25                	push   0x25
c01083d1:	eb 3c                	jmp    c010840f <int_common_handler>

c01083d3 <irq6>:
c01083d3:	6a 00                	push   0x0
c01083d5:	6a 26                	push   0x26
c01083d7:	eb 36                	jmp    c010840f <int_common_handler>

c01083d9 <irq7>:
c01083d9:	6a 00                	push   0x0
c01083db:	6a 27                	push   0x27
c01083dd:	eb 30                	jmp    c010840f <int_common_handler>

c01083df <irq8>:
c01083df:	6a 00                	push   0x0
c01083e1:	6a 28                	push   0x28
c01083e3:	eb 2a                	jmp    c010840f <int_common_handler>

c01083e5 <irq9>:
c01083e5:	6a 00                	push   0x0
c01083e7:	6a 29                	push   0x29
c01083e9:	eb 24                	jmp    c010840f <int_common_handler>

c01083eb <irq10>:
c01083eb:	6a 00                	push   0x0
c01083ed:	6a 2a                	push   0x2a
c01083ef:	eb 1e                	jmp    c010840f <int_common_handler>

c01083f1 <irq11>:
c01083f1:	6a 00                	push   0x0
c01083f3:	6a 2b                	push   0x2b
c01083f5:	eb 18                	jmp    c010840f <int_common_handler>

c01083f7 <irq12>:
c01083f7:	6a 00                	push   0x0
c01083f9:	6a 2c                	push   0x2c
c01083fb:	eb 12                	jmp    c010840f <int_common_handler>

c01083fd <irq13>:
c01083fd:	6a 00                	push   0x0
c01083ff:	6a 2d                	push   0x2d
c0108401:	eb 0c                	jmp    c010840f <int_common_handler>

c0108403 <irq14>:
c0108403:	6a 00                	push   0x0
c0108405:	6a 2e                	push   0x2e
c0108407:	eb 06                	jmp    c010840f <int_common_handler>

c0108409 <irq15>:
c0108409:	6a 00                	push   0x0
c010840b:	6a 2f                	push   0x2f
c010840d:	eb 00                	jmp    c010840f <int_common_handler>

c010840f <int_common_handler>:
c010840f:	60                   	pusha  
c0108410:	1e                   	push   ds
c0108411:	06                   	push   es
c0108412:	0f a0                	push   fs
c0108414:	0f a8                	push   gs
c0108416:	66 b8 10 00          	mov    ax,0x10
c010841a:	8e d8                	mov    ds,eax
c010841c:	8e c0                	mov    es,eax
c010841e:	8e e0                	mov    fs,eax
c0108420:	8e e8                	mov    gs,eax
c0108422:	fb                   	sti    
c0108423:	54                   	push   esp
c0108424:	fc                   	cld    
c0108425:	e8 a1 f3 ff ff       	call   c01077cb <x86_interrupt_handler>
c010842a:	83 c4 04             	add    esp,0x4
c010842d:	0f a9                	pop    gs
c010842f:	0f a1                	pop    fs
c0108431:	07                   	pop    es
c0108432:	1f                   	pop    ds
c0108433:	61                   	popa   
c0108434:	83 c4 08             	add    esp,0x8
c0108437:	cf                   	iret   
c0108438:	66 90                	xchg   ax,ax
c010843a:	66 90                	xchg   ax,ax
c010843c:	66 90                	xchg   ax,ax
c010843e:	66 90                	xchg   ax,ax

c0108440 <x86_tss_load>:
c0108440:	8b 44 24 04          	mov    eax,DWORD PTR [esp+0x4]
c0108444:	0f 00 d8             	ltr    ax
c0108447:	c3                   	ret    
c0108448:	66 90                	xchg   ax,ax
c010844a:	66 90                	xchg   ax,ax
c010844c:	66 90                	xchg   ax,ax
c010844e:	66 90                	xchg   ax,ax

c0108450 <x86_set_cr3>:
c0108450:	8b 44 24 04          	mov    eax,DWORD PTR [esp+0x4]
c0108454:	0f 22 d8             	mov    cr3,eax
c0108457:	c3                   	ret    
c0108458:	66 90                	xchg   ax,ax
c010845a:	66 90                	xchg   ax,ax
c010845c:	66 90                	xchg   ax,ax
c010845e:	66 90                	xchg   ax,ax

c0108460 <x86_spinlocks_held>:
c0108460:	00 00                	add    BYTE PTR [eax],al
	...

c0108464 <arch_irq_spinlock_acquire>:
c0108464:	fa                   	cli    
c0108465:	8b 44 24 04          	mov    eax,DWORD PTR [esp+0x4]

c0108469 <arch_irq_spinlock_acquire.try_acquire>:
c0108469:	f0 0f ba 28 00       	lock bts DWORD PTR [eax],0x0
c010846e:	72 07                	jb     c0108477 <arch_irq_spinlock_acquire.spin_wait>
c0108470:	ff 05 60 84 10 c0    	inc    DWORD PTR ds:0xc0108460
c0108476:	c3                   	ret    

c0108477 <arch_irq_spinlock_acquire.spin_wait>:
c0108477:	f3 90                	pause  
c0108479:	f7 00 01 00 00 00    	test   DWORD PTR [eax],0x1
c010847f:	75 f6                	jne    c0108477 <arch_irq_spinlock_acquire.spin_wait>
c0108481:	eb e6                	jmp    c0108469 <arch_irq_spinlock_acquire.try_acquire>

c0108483 <arch_irq_spinlock_release>:
c0108483:	8b 44 24 04          	mov    eax,DWORD PTR [esp+0x4]
c0108487:	ff 0d 60 84 10 c0    	dec    DWORD PTR ds:0xc0108460
c010848d:	75 0a                	jne    c0108499 <arch_irq_spinlock_release.noEnableIRQ>
c010848f:	83 3d 88 57 11 c0 00 	cmp    DWORD PTR ds:0xc0115788,0x0
c0108496:	74 01                	je     c0108499 <arch_irq_spinlock_release.noEnableIRQ>
c0108498:	fb                   	sti    

c0108499 <arch_irq_spinlock_release.noEnableIRQ>:
c0108499:	f0 0f ba 30 00       	lock btr DWORD PTR [eax],0x0
c010849e:	c3                   	ret    
c010849f:	90                   	nop

c01084a0 <arch_prepare_stack>:
c01084a0:	8b 44 24 04          	mov    eax,DWORD PTR [esp+0x4]
c01084a4:	83 e8 14             	sub    eax,0x14
c01084a7:	c7 40 10 08 3f 10 c0 	mov    DWORD PTR [eax+0x10],0xc0103f08
c01084ae:	c3                   	ret    

c01084af <arch_switch_thread>:
c01084af:	53                   	push   ebx
c01084b0:	56                   	push   esi
c01084b1:	57                   	push   edi
c01084b2:	55                   	push   ebp
c01084b3:	8b 3d e8 1a 11 c0    	mov    edi,DWORD PTR ds:0xc0111ae8
c01084b9:	8b 3f                	mov    edi,DWORD PTR [edi]
c01084bb:	89 67 08             	mov    DWORD PTR [edi+0x8],esp
c01084be:	8b 74 24 14          	mov    esi,DWORD PTR [esp+0x14]
c01084c2:	8b 3d e8 1a 11 c0    	mov    edi,DWORD PTR ds:0xc0111ae8
c01084c8:	89 37                	mov    DWORD PTR [edi],esi
c01084ca:	8b 66 08             	mov    esp,DWORD PTR [esi+0x8]
c01084cd:	8b 5e 04             	mov    ebx,DWORD PTR [esi+0x4]
c01084d0:	8b 4f 08             	mov    ecx,DWORD PTR [edi+0x8]
c01084d3:	8b 09                	mov    ecx,DWORD PTR [ecx]
c01084d5:	89 59 04             	mov    DWORD PTR [ecx+0x4],ebx
c01084d8:	5d                   	pop    ebp
c01084d9:	5f                   	pop    edi
c01084da:	5e                   	pop    esi
c01084db:	5b                   	pop    ebx
c01084dc:	c3                   	ret    
c01084dd:	66 90                	xchg   ax,ax
c01084df:	90                   	nop

c01084e0 <arch_switch_to_usermode>:
c01084e0:	8b 5c 24 04          	mov    ebx,DWORD PTR [esp+0x4]
c01084e4:	8b 4c 24 08          	mov    ecx,DWORD PTR [esp+0x8]
c01084e8:	66 b8 23 00          	mov    ax,0x23
c01084ec:	8e d8                	mov    ds,eax
c01084ee:	8e c0                	mov    es,eax
c01084f0:	8e e0                	mov    fs,eax
c01084f2:	8e e8                	mov    gs,eax
c01084f4:	6a 23                	push   0x23
c01084f6:	51                   	push   ecx
c01084f7:	68 02 02 00 00       	push   0x202
c01084fc:	6a 1b                	push   0x1b
c01084fe:	53                   	push   ebx
c01084ff:	cf                   	iret   

c0108500 <__udivdi3>:
c0108500:	55                   	push   ebp
c0108501:	57                   	push   edi
c0108502:	56                   	push   esi
c0108503:	53                   	push   ebx
c0108504:	83 ec 1c             	sub    esp,0x1c
c0108507:	8b 6c 24 30          	mov    ebp,DWORD PTR [esp+0x30]
c010850b:	8b 74 24 34          	mov    esi,DWORD PTR [esp+0x34]
c010850f:	8b 7c 24 38          	mov    edi,DWORD PTR [esp+0x38]
c0108513:	8b 54 24 3c          	mov    edx,DWORD PTR [esp+0x3c]
c0108517:	85 d2                	test   edx,edx
c0108519:	75 41                	jne    c010855c <__udivdi3+0x5c>
c010851b:	39 f7                	cmp    edi,esi
c010851d:	76 15                	jbe    c0108534 <__udivdi3+0x34>
c010851f:	89 e8                	mov    eax,ebp
c0108521:	89 f2                	mov    edx,esi
c0108523:	f7 f7                	div    edi
c0108525:	31 db                	xor    ebx,ebx
c0108527:	89 da                	mov    edx,ebx
c0108529:	83 c4 1c             	add    esp,0x1c
c010852c:	5b                   	pop    ebx
c010852d:	5e                   	pop    esi
c010852e:	5f                   	pop    edi
c010852f:	5d                   	pop    ebp
c0108530:	c3                   	ret    
c0108531:	8d 76 00             	lea    esi,[esi+0x0]
c0108534:	89 f9                	mov    ecx,edi
c0108536:	85 ff                	test   edi,edi
c0108538:	75 0b                	jne    c0108545 <__udivdi3+0x45>
c010853a:	b8 01 00 00 00       	mov    eax,0x1
c010853f:	31 d2                	xor    edx,edx
c0108541:	f7 f7                	div    edi
c0108543:	89 c1                	mov    ecx,eax
c0108545:	31 d2                	xor    edx,edx
c0108547:	89 f0                	mov    eax,esi
c0108549:	f7 f1                	div    ecx
c010854b:	89 c3                	mov    ebx,eax
c010854d:	89 e8                	mov    eax,ebp
c010854f:	f7 f1                	div    ecx
c0108551:	89 da                	mov    edx,ebx
c0108553:	83 c4 1c             	add    esp,0x1c
c0108556:	5b                   	pop    ebx
c0108557:	5e                   	pop    esi
c0108558:	5f                   	pop    edi
c0108559:	5d                   	pop    ebp
c010855a:	c3                   	ret    
c010855b:	90                   	nop
c010855c:	39 f2                	cmp    edx,esi
c010855e:	77 1c                	ja     c010857c <__udivdi3+0x7c>
c0108560:	0f bd da             	bsr    ebx,edx
c0108563:	83 f3 1f             	xor    ebx,0x1f
c0108566:	75 24                	jne    c010858c <__udivdi3+0x8c>
c0108568:	39 f2                	cmp    edx,esi
c010856a:	72 08                	jb     c0108574 <__udivdi3+0x74>
c010856c:	39 ef                	cmp    edi,ebp
c010856e:	0f 87 84 00 00 00    	ja     c01085f8 <__udivdi3+0xf8>
c0108574:	b8 01 00 00 00       	mov    eax,0x1
c0108579:	eb ac                	jmp    c0108527 <__udivdi3+0x27>
c010857b:	90                   	nop
c010857c:	31 db                	xor    ebx,ebx
c010857e:	31 c0                	xor    eax,eax
c0108580:	89 da                	mov    edx,ebx
c0108582:	83 c4 1c             	add    esp,0x1c
c0108585:	5b                   	pop    ebx
c0108586:	5e                   	pop    esi
c0108587:	5f                   	pop    edi
c0108588:	5d                   	pop    ebp
c0108589:	c3                   	ret    
c010858a:	66 90                	xchg   ax,ax
c010858c:	b8 20 00 00 00       	mov    eax,0x20
c0108591:	29 d8                	sub    eax,ebx
c0108593:	88 d9                	mov    cl,bl
c0108595:	d3 e2                	shl    edx,cl
c0108597:	89 54 24 08          	mov    DWORD PTR [esp+0x8],edx
c010859b:	89 fa                	mov    edx,edi
c010859d:	88 c1                	mov    cl,al
c010859f:	d3 ea                	shr    edx,cl
c01085a1:	8b 4c 24 08          	mov    ecx,DWORD PTR [esp+0x8]
c01085a5:	09 d1                	or     ecx,edx
c01085a7:	89 4c 24 08          	mov    DWORD PTR [esp+0x8],ecx
c01085ab:	88 d9                	mov    cl,bl
c01085ad:	d3 e7                	shl    edi,cl
c01085af:	89 7c 24 0c          	mov    DWORD PTR [esp+0xc],edi
c01085b3:	89 f7                	mov    edi,esi
c01085b5:	88 c1                	mov    cl,al
c01085b7:	d3 ef                	shr    edi,cl
c01085b9:	88 d9                	mov    cl,bl
c01085bb:	d3 e6                	shl    esi,cl
c01085bd:	89 ea                	mov    edx,ebp
c01085bf:	88 c1                	mov    cl,al
c01085c1:	d3 ea                	shr    edx,cl
c01085c3:	09 d6                	or     esi,edx
c01085c5:	89 f0                	mov    eax,esi
c01085c7:	89 fa                	mov    edx,edi
c01085c9:	f7 74 24 08          	div    DWORD PTR [esp+0x8]
c01085cd:	89 d7                	mov    edi,edx
c01085cf:	89 c6                	mov    esi,eax
c01085d1:	f7 64 24 0c          	mul    DWORD PTR [esp+0xc]
c01085d5:	39 d7                	cmp    edi,edx
c01085d7:	72 13                	jb     c01085ec <__udivdi3+0xec>
c01085d9:	74 09                	je     c01085e4 <__udivdi3+0xe4>
c01085db:	89 f0                	mov    eax,esi
c01085dd:	31 db                	xor    ebx,ebx
c01085df:	e9 43 ff ff ff       	jmp    c0108527 <__udivdi3+0x27>
c01085e4:	88 d9                	mov    cl,bl
c01085e6:	d3 e5                	shl    ebp,cl
c01085e8:	39 c5                	cmp    ebp,eax
c01085ea:	73 ef                	jae    c01085db <__udivdi3+0xdb>
c01085ec:	8d 46 ff             	lea    eax,[esi-0x1]
c01085ef:	31 db                	xor    ebx,ebx
c01085f1:	e9 31 ff ff ff       	jmp    c0108527 <__udivdi3+0x27>
c01085f6:	66 90                	xchg   ax,ax
c01085f8:	31 c0                	xor    eax,eax
c01085fa:	e9 28 ff ff ff       	jmp    c0108527 <__udivdi3+0x27>
